
../target/debug/executor:	file format mach-o arm64

Disassembly of section __TEXT,__text:

00000001000015f8 <__ZN3std2rt10lang_start17h44a5558da92a9c9aE>:
1000015f8: ff 83 01 d1 	sub	sp, sp, #96
1000015fc: fd 7b 05 a9 	stp	x29, x30, [sp, #80]
100001600: fd 43 01 91 	add	x29, sp, #80
100001604: e8 03 00 aa 	mov	x8, x0
100001608: e1 07 00 f9 	str	x1, [sp, #8]
10000160c: e0 03 02 aa 	mov	x0, x2
100001610: e2 07 40 f9 	ldr	x2, [sp, #8]
100001614: e0 0b 00 f9 	str	x0, [sp, #16]
100001618: e4 03 03 aa 	mov	x4, x3
10000161c: e3 0b 40 f9 	ldr	x3, [sp, #16]
100001620: e0 03 08 aa 	mov	x0, x8
100001624: e0 17 00 f9 	str	x0, [sp, #40]
100001628: a2 03 1e f8 	stur	x2, [x29, #-32]
10000162c: e9 03 03 aa 	mov	x9, x3
100001630: a9 83 1e f8 	stur	x9, [x29, #-24]
100001634: a4 73 1f 38 	sturb	w4, [x29, #-9]
100001638: e0 83 00 91 	add	x0, sp, #32
10000163c: e8 13 00 f9 	str	x8, [sp, #32]
100001640: e1 01 00 f0 	adrp	x1, 0x100040000 <__ZN4core3ops8function6FnOnce9call_once17h5e6b0d459bf24f7aE+0x18>
100001644: 21 60 08 91 	add	x1, x1, #536
100001648: 6f 4f 00 94 	bl	0x100015404 <__ZN3std2rt19lang_start_internal17h9f0566e553deb11eE>
10000164c: e0 0f 00 f9 	str	x0, [sp, #24]
100001650: e0 0f 40 f9 	ldr	x0, [sp, #24]
100001654: a0 83 1f f8 	stur	x0, [x29, #-8]
100001658: fd 7b 45 a9 	ldp	x29, x30, [sp, #80]
10000165c: ff 83 01 91 	add	sp, sp, #96
100001660: c0 03 5f d6 	ret

0000000100001664 <__ZN3std2rt10lang_start28_$u7b$$u7b$closure$u7d$$u7d$17h7294ea9f27e81a48E>:
100001664: ff c3 00 d1 	sub	sp, sp, #48
100001668: fd 7b 02 a9 	stp	x29, x30, [sp, #32]
10000166c: fd 83 00 91 	add	x29, sp, #32
100001670: e8 03 00 aa 	mov	x8, x0
100001674: e8 0b 00 f9 	str	x8, [sp, #16]
100001678: 00 00 40 f9 	ldr	x0, [x0]
10000167c: ee 02 00 94 	bl	0x100002234 <__ZN3std10sys_common9backtrace28__rust_begin_short_backtrace17h677b98ea43b81824E>
100001680: 08 00 00 94 	bl	0x1000016a0 <__ZN54_$LT$$LP$$RP$$u20$as$u20$std..process..Termination$GT$6report17h33d4a444bbc289abE>
100001684: e8 3f 00 91 	add	x8, sp, #15
100001688: e0 3f 00 39 	strb	w0, [sp, #15]
10000168c: a8 83 1f f8 	stur	x8, [x29, #-8]
100001690: e0 3f 40 39 	ldrb	w0, [sp, #15]
100001694: fd 7b 42 a9 	ldp	x29, x30, [sp, #32]
100001698: ff c3 00 91 	add	sp, sp, #48
10000169c: c0 03 5f d6 	ret

00000001000016a0 <__ZN54_$LT$$LP$$RP$$u20$as$u20$std..process..Termination$GT$6report17h33d4a444bbc289abE>:
1000016a0: ff 43 00 d1 	sub	sp, sp, #16
1000016a4: 00 00 80 52 	mov	w0, #0
1000016a8: ff 43 00 91 	add	sp, sp, #16
1000016ac: c0 03 5f d6 	ret

00000001000016b0 <__ZN4core3ops8function6FnOnce40call_once$u7b$$u7b$vtable.shim$u7d$$u7d$17h94c93ff675920d7bE>:
1000016b0: ff 83 00 d1 	sub	sp, sp, #32
1000016b4: fd 7b 01 a9 	stp	x29, x30, [sp, #16]
1000016b8: fd 43 00 91 	add	x29, sp, #16
1000016bc: e8 03 00 aa 	mov	x8, x0
1000016c0: e8 07 00 f9 	str	x8, [sp, #8]
1000016c4: 00 00 40 f9 	ldr	x0, [x0]
1000016c8: 04 00 00 94 	bl	0x1000016d8 <__ZN4core3ops8function6FnOnce9call_once17h35d762845d36d7c2E>
1000016cc: fd 7b 41 a9 	ldp	x29, x30, [sp, #16]
1000016d0: ff 83 00 91 	add	sp, sp, #32
1000016d4: c0 03 5f d6 	ret

00000001000016d8 <__ZN4core3ops8function6FnOnce9call_once17h35d762845d36d7c2E>:
1000016d8: ff 03 01 d1 	sub	sp, sp, #64
1000016dc: fd 7b 03 a9 	stp	x29, x30, [sp, #48]
1000016e0: fd c3 00 91 	add	x29, sp, #48
1000016e4: e8 03 00 aa 	mov	x8, x0
1000016e8: e0 43 00 91 	add	x0, sp, #16
1000016ec: e8 0b 00 f9 	str	x8, [sp, #16]
1000016f0: dd ff ff 97 	bl	0x100001664 <__ZN3std2rt10lang_start28_$u7b$$u7b$closure$u7d$$u7d$17h7294ea9f27e81a48E>
1000016f4: e0 0f 00 b9 	str	w0, [sp, #12]
1000016f8: 07 00 00 14 	b	0x100001714 <__ZN4core3ops8function6FnOnce9call_once17h35d762845d36d7c2E+0x3c>
1000016fc: a0 03 5f f8 	ldur	x0, [x29, #-16]
100001700: d4 c1 00 94 	bl	0x100031e50 <_writev+0x100031e50>
100001704: e8 03 01 aa 	mov	x8, x1
100001708: a0 03 1f f8 	stur	x0, [x29, #-16]
10000170c: a8 83 1f b8 	stur	w8, [x29, #-8]
100001710: fb ff ff 17 	b	0x1000016fc <__ZN4core3ops8function6FnOnce9call_once17h35d762845d36d7c2E+0x24>
100001714: e0 0f 40 b9 	ldr	w0, [sp, #12]
100001718: fd 7b 43 a9 	ldp	x29, x30, [sp, #48]
10000171c: ff 03 01 91 	add	sp, sp, #64
100001720: c0 03 5f d6 	ret

0000000100001724 <__ZN4core3ops8function6FnOnce9call_once17h5e6b0d459bf24f7aE>:
100001724: ff 83 00 d1 	sub	sp, sp, #32
100001728: fd 7b 01 a9 	stp	x29, x30, [sp, #16]
10000172c: fd 43 00 91 	add	x29, sp, #16
100001730: e0 07 00 f9 	str	x0, [sp, #8]
100001734: 00 00 3f d6 	blr	x0
100001738: fd 7b 41 a9 	ldp	x29, x30, [sp, #16]
10000173c: ff 83 00 91 	add	sp, sp, #32
100001740: c0 03 5f d6 	ret

0000000100001744 <__ZN4core3ptr85drop_in_place$LT$std..rt..lang_start$LT$$LP$$RP$$GT$..$u7b$$u7b$closure$u7d$$u7d$$GT$17h9bd19f785d63a1e9E>:
100001744: ff 43 00 d1 	sub	sp, sp, #16
100001748: e0 07 00 f9 	str	x0, [sp, #8]
10000174c: ff 43 00 91 	add	sp, sp, #16
100001750: c0 03 5f d6 	ret

0000000100001754 <__ZN4core4sync6atomic12atomic_store17h8fac9438165bcc20E>:
100001754: ff c3 02 d1 	sub	sp, sp, #176
100001758: fd 7b 0a a9 	stp	x29, x30, [sp, #160]
10000175c: fd 83 02 91 	add	x29, sp, #160
100001760: e0 0b 00 f9 	str	x0, [sp, #16]
100001764: e1 1f 00 b9 	str	w1, [sp, #28]
100001768: e2 bf 00 39 	strb	w2, [sp, #47]
10000176c: a0 03 1f f8 	stur	x0, [x29, #-16]
100001770: a1 f3 1f 38 	sturb	w1, [x29, #-1]
100001774: e8 bf 40 39 	ldrb	w8, [sp, #47]
100001778: 08 01 00 f1 	subs	x8, x8, #0
10000177c: e8 13 00 f9 	str	x8, [sp, #32]
100001780: eb 13 40 f9 	ldr	x11, [sp, #32]
100001784: 8a 01 00 b0 	adrp	x10, 0x100032000 <__ZN4core4sync6atomic23atomic_compare_exchange17h18340ef4a55cf47bE>
100001788: 4a 01 3e 91 	add	x10, x10, #3968
10000178c: 08 00 00 10 	adr	x8, #0
100001790: 49 79 ab b8 	ldrsw	x9, [x10, x11, lsl #2]
100001794: 08 01 09 8b 	add	x8, x8, x9
100001798: 00 01 1f d6 	br	x8
10000179c: e8 1f 40 b9 	ldr	w8, [sp, #28]
1000017a0: e9 0b 40 f9 	ldr	x9, [sp, #16]
1000017a4: 28 01 00 39 	strb	w8, [x9]
1000017a8: 25 00 00 14 	b	0x10000183c <__ZN4core4sync6atomic12atomic_store17h8fac9438165bcc20E+0xe8>
1000017ac: e8 1f 40 b9 	ldr	w8, [sp, #28]
1000017b0: e9 0b 40 f9 	ldr	x9, [sp, #16]
1000017b4: 28 fd 9f 08 	stlrb	w8, [x9]
1000017b8: 21 00 00 14 	b	0x10000183c <__ZN4core4sync6atomic12atomic_store17h8fac9438165bcc20E+0xe8>
1000017bc: e8 c3 00 91 	add	x8, sp, #48
1000017c0: e8 07 00 f9 	str	x8, [sp, #8]
1000017c4: e0 01 00 f0 	adrp	x0, 0x100040000 <__ZN4core4sync6atomic23atomic_compare_exchange17h18340ef4a55cf47bE+0x78>
1000017c8: 00 c0 09 91 	add	x0, x0, #624
1000017cc: 29 00 80 52 	mov	w9, #1
1000017d0: e1 03 09 aa 	mov	x1, x9
1000017d4: 82 01 00 b0 	adrp	x2, 0x100032000 <__ZN4core4sync6atomic23atomic_compare_exchange17h18340ef4a55cf47bE+0x50>
1000017d8: 42 80 3f 91 	add	x2, x2, #4064
1000017dc: 03 00 80 d2 	mov	x3, #0
1000017e0: 19 02 00 94 	bl	0x100002044 <__ZN4core3fmt9Arguments6new_v117h52a5993812f711c7E>
1000017e4: e0 07 40 f9 	ldr	x0, [sp, #8]
1000017e8: e1 01 00 f0 	adrp	x1, 0x100040000 <__ZN4core4sync6atomic23atomic_compare_exchange17h18340ef4a55cf47bE+0x9c>
1000017ec: 21 00 0a 91 	add	x1, x1, #640
1000017f0: ac c0 00 94 	bl	0x100031aa0 <__ZN4core9panicking9panic_fmt17hc1e7b11add95109dE>
1000017f4: a8 03 01 d1 	sub	x8, x29, #64
1000017f8: e8 03 00 f9 	str	x8, [sp]
1000017fc: e0 01 00 f0 	adrp	x0, 0x100040000 <__ZN4core4sync6atomic23atomic_compare_exchange17h18340ef4a55cf47bE+0xb0>
100001800: 00 20 09 91 	add	x0, x0, #584
100001804: 29 00 80 52 	mov	w9, #1
100001808: e1 03 09 aa 	mov	x1, x9
10000180c: 82 01 00 b0 	adrp	x2, 0x100032000 <__ZN4core4sync6atomic23atomic_compare_exchange17h18340ef4a55cf47bE+0x88>
100001810: 42 80 3f 91 	add	x2, x2, #4064
100001814: 03 00 80 d2 	mov	x3, #0
100001818: 0b 02 00 94 	bl	0x100002044 <__ZN4core3fmt9Arguments6new_v117h52a5993812f711c7E>
10000181c: e0 03 40 f9 	ldr	x0, [sp]
100001820: e1 01 00 f0 	adrp	x1, 0x100040000 <__ZN4core4sync6atomic23atomic_compare_exchange17h18340ef4a55cf47bE+0xd4>
100001824: 21 60 09 91 	add	x1, x1, #600
100001828: 9e c0 00 94 	bl	0x100031aa0 <__ZN4core9panicking9panic_fmt17hc1e7b11add95109dE>
10000182c: e8 1f 40 b9 	ldr	w8, [sp, #28]
100001830: e9 0b 40 f9 	ldr	x9, [sp, #16]
100001834: 28 fd 9f 08 	stlrb	w8, [x9]
100001838: 01 00 00 14 	b	0x10000183c <__ZN4core4sync6atomic12atomic_store17h8fac9438165bcc20E+0xe8>
10000183c: fd 7b 4a a9 	ldp	x29, x30, [sp, #160]
100001840: ff c3 02 91 	add	sp, sp, #176
100001844: c0 03 5f d6 	ret

0000000100001848 <__ZN4core4sync6atomic23atomic_compare_exchange17h18340ef4a55cf47bE>:
100001848: ff 83 03 d1 	sub	sp, sp, #224
10000184c: fd 7b 0d a9 	stp	x29, x30, [sp, #208]
100001850: fd 43 03 91 	add	x29, sp, #208
100001854: e0 23 00 f9 	str	x0, [sp, #64]
100001858: e1 4b 00 b9 	str	w1, [sp, #72]
10000185c: e2 4f 00 b9 	str	w2, [sp, #76]
100001860: a0 03 1f f8 	stur	x0, [x29, #-16]
100001864: a1 a3 1f 38 	sturb	w1, [x29, #-6]
100001868: a2 b3 1f 38 	sturb	w2, [x29, #-5]
10000186c: a3 c3 1f 38 	sturb	w3, [x29, #-4]
100001870: a4 d3 1f 38 	sturb	w4, [x29, #-3]
100001874: e3 7b 01 39 	strb	w3, [sp, #94]
100001878: e4 7f 01 39 	strb	w4, [sp, #95]
10000187c: e8 7b 41 39 	ldrb	w8, [sp, #94]
100001880: 08 01 00 f1 	subs	x8, x8, #0
100001884: e8 2b 00 f9 	str	x8, [sp, #80]
100001888: eb 2b 40 f9 	ldr	x11, [sp, #80]
10000188c: 8a 01 00 b0 	adrp	x10, 0x100032000 <__ZN4core4sync6atomic23atomic_compare_exchange17h18340ef4a55cf47bE+0x108>
100001890: 4a 51 3e 91 	add	x10, x10, #3988
100001894: 08 00 00 10 	adr	x8, #0
100001898: 49 79 ab b8 	ldrsw	x9, [x10, x11, lsl #2]
10000189c: 08 01 09 8b 	add	x8, x8, x9
1000018a0: 00 01 1f d6 	br	x8
1000018a4: e8 7f 41 39 	ldrb	w8, [sp, #95]
1000018a8: e8 1f 00 f9 	str	x8, [sp, #56]
1000018ac: 08 01 00 f1 	subs	x8, x8, #0
1000018b0: e8 17 9f 1a 	cset	w8, eq
1000018b4: 48 1d 00 37 	tbnz	w8, #0, 0x100001c5c <__ZN4core4sync6atomic23atomic_compare_exchange17h18340ef4a55cf47bE+0x414>
1000018b8: 01 00 00 14 	b	0x1000018bc <__ZN4core4sync6atomic23atomic_compare_exchange17h18340ef4a55cf47bE+0x74>
1000018bc: e8 1f 40 f9 	ldr	x8, [sp, #56]
1000018c0: 08 09 00 f1 	subs	x8, x8, #2
1000018c4: e8 17 9f 1a 	cset	w8, eq
1000018c8: 28 1e 00 37 	tbnz	w8, #0, 0x100001c8c <__ZN4core4sync6atomic23atomic_compare_exchange17h18340ef4a55cf47bE+0x444>
1000018cc: 01 00 00 14 	b	0x1000018d0 <__ZN4core4sync6atomic23atomic_compare_exchange17h18340ef4a55cf47bE+0x88>
1000018d0: e8 1f 40 f9 	ldr	x8, [sp, #56]
1000018d4: 08 11 00 f1 	subs	x8, x8, #4
1000018d8: e8 17 9f 1a 	cset	w8, eq
1000018dc: 08 1f 00 37 	tbnz	w8, #0, 0x100001cbc <__ZN4core4sync6atomic23atomic_compare_exchange17h18340ef4a55cf47bE+0x474>
1000018e0: 41 00 00 14 	b	0x1000019e4 <__ZN4core4sync6atomic23atomic_compare_exchange17h18340ef4a55cf47bE+0x19c>
1000018e4: e8 7f 41 39 	ldrb	w8, [sp, #95]
1000018e8: e8 1b 00 f9 	str	x8, [sp, #48]
1000018ec: 08 01 00 f1 	subs	x8, x8, #0
1000018f0: e8 17 9f 1a 	cset	w8, eq
1000018f4: c8 16 00 37 	tbnz	w8, #0, 0x100001bcc <__ZN4core4sync6atomic23atomic_compare_exchange17h18340ef4a55cf47bE+0x384>
1000018f8: 01 00 00 14 	b	0x1000018fc <__ZN4core4sync6atomic23atomic_compare_exchange17h18340ef4a55cf47bE+0xb4>
1000018fc: e8 1b 40 f9 	ldr	x8, [sp, #48]
100001900: 08 09 00 f1 	subs	x8, x8, #2
100001904: e8 17 9f 1a 	cset	w8, eq
100001908: a8 17 00 37 	tbnz	w8, #0, 0x100001bfc <__ZN4core4sync6atomic23atomic_compare_exchange17h18340ef4a55cf47bE+0x3b4>
10000190c: 01 00 00 14 	b	0x100001910 <__ZN4core4sync6atomic23atomic_compare_exchange17h18340ef4a55cf47bE+0xc8>
100001910: e8 1b 40 f9 	ldr	x8, [sp, #48]
100001914: 08 11 00 f1 	subs	x8, x8, #4
100001918: e8 17 9f 1a 	cset	w8, eq
10000191c: 88 18 00 37 	tbnz	w8, #0, 0x100001c2c <__ZN4core4sync6atomic23atomic_compare_exchange17h18340ef4a55cf47bE+0x3e4>
100001920: 31 00 00 14 	b	0x1000019e4 <__ZN4core4sync6atomic23atomic_compare_exchange17h18340ef4a55cf47bE+0x19c>
100001924: e8 7f 41 39 	ldrb	w8, [sp, #95]
100001928: e8 17 00 f9 	str	x8, [sp, #40]
10000192c: 08 01 00 f1 	subs	x8, x8, #0
100001930: e8 17 9f 1a 	cset	w8, eq
100001934: 48 10 00 37 	tbnz	w8, #0, 0x100001b3c <__ZN4core4sync6atomic23atomic_compare_exchange17h18340ef4a55cf47bE+0x2f4>
100001938: 01 00 00 14 	b	0x10000193c <__ZN4core4sync6atomic23atomic_compare_exchange17h18340ef4a55cf47bE+0xf4>
10000193c: e8 17 40 f9 	ldr	x8, [sp, #40]
100001940: 08 09 00 f1 	subs	x8, x8, #2
100001944: e8 17 9f 1a 	cset	w8, eq
100001948: 28 11 00 37 	tbnz	w8, #0, 0x100001b6c <__ZN4core4sync6atomic23atomic_compare_exchange17h18340ef4a55cf47bE+0x324>
10000194c: 01 00 00 14 	b	0x100001950 <__ZN4core4sync6atomic23atomic_compare_exchange17h18340ef4a55cf47bE+0x108>
100001950: e8 17 40 f9 	ldr	x8, [sp, #40]
100001954: 08 11 00 f1 	subs	x8, x8, #4
100001958: e8 17 9f 1a 	cset	w8, eq
10000195c: 08 12 00 37 	tbnz	w8, #0, 0x100001b9c <__ZN4core4sync6atomic23atomic_compare_exchange17h18340ef4a55cf47bE+0x354>
100001960: 21 00 00 14 	b	0x1000019e4 <__ZN4core4sync6atomic23atomic_compare_exchange17h18340ef4a55cf47bE+0x19c>
100001964: e8 7f 41 39 	ldrb	w8, [sp, #95]
100001968: e8 13 00 f9 	str	x8, [sp, #32]
10000196c: 08 01 00 f1 	subs	x8, x8, #0
100001970: e8 17 9f 1a 	cset	w8, eq
100001974: c8 09 00 37 	tbnz	w8, #0, 0x100001aac <__ZN4core4sync6atomic23atomic_compare_exchange17h18340ef4a55cf47bE+0x264>
100001978: 01 00 00 14 	b	0x10000197c <__ZN4core4sync6atomic23atomic_compare_exchange17h18340ef4a55cf47bE+0x134>
10000197c: e8 13 40 f9 	ldr	x8, [sp, #32]
100001980: 08 09 00 f1 	subs	x8, x8, #2
100001984: e8 17 9f 1a 	cset	w8, eq
100001988: a8 0a 00 37 	tbnz	w8, #0, 0x100001adc <__ZN4core4sync6atomic23atomic_compare_exchange17h18340ef4a55cf47bE+0x294>
10000198c: 01 00 00 14 	b	0x100001990 <__ZN4core4sync6atomic23atomic_compare_exchange17h18340ef4a55cf47bE+0x148>
100001990: e8 13 40 f9 	ldr	x8, [sp, #32]
100001994: 08 11 00 f1 	subs	x8, x8, #4
100001998: e8 17 9f 1a 	cset	w8, eq
10000199c: 88 0b 00 37 	tbnz	w8, #0, 0x100001b0c <__ZN4core4sync6atomic23atomic_compare_exchange17h18340ef4a55cf47bE+0x2c4>
1000019a0: 11 00 00 14 	b	0x1000019e4 <__ZN4core4sync6atomic23atomic_compare_exchange17h18340ef4a55cf47bE+0x19c>
1000019a4: e8 7f 41 39 	ldrb	w8, [sp, #95]
1000019a8: e8 0f 00 f9 	str	x8, [sp, #24]
1000019ac: 08 01 00 f1 	subs	x8, x8, #0
1000019b0: e8 17 9f 1a 	cset	w8, eq
1000019b4: 28 02 00 37 	tbnz	w8, #0, 0x1000019f8 <__ZN4core4sync6atomic23atomic_compare_exchange17h18340ef4a55cf47bE+0x1b0>
1000019b8: 01 00 00 14 	b	0x1000019bc <__ZN4core4sync6atomic23atomic_compare_exchange17h18340ef4a55cf47bE+0x174>
1000019bc: e8 0f 40 f9 	ldr	x8, [sp, #24]
1000019c0: 08 09 00 f1 	subs	x8, x8, #2
1000019c4: e8 17 9f 1a 	cset	w8, eq
1000019c8: 08 03 00 37 	tbnz	w8, #0, 0x100001a28 <__ZN4core4sync6atomic23atomic_compare_exchange17h18340ef4a55cf47bE+0x1e0>
1000019cc: 01 00 00 14 	b	0x1000019d0 <__ZN4core4sync6atomic23atomic_compare_exchange17h18340ef4a55cf47bE+0x188>
1000019d0: e8 0f 40 f9 	ldr	x8, [sp, #24]
1000019d4: 08 11 00 f1 	subs	x8, x8, #4
1000019d8: e8 17 9f 1a 	cset	w8, eq
1000019dc: e8 03 00 37 	tbnz	w8, #0, 0x100001a58 <__ZN4core4sync6atomic23atomic_compare_exchange17h18340ef4a55cf47bE+0x210>
1000019e0: 01 00 00 14 	b	0x1000019e4 <__ZN4core4sync6atomic23atomic_compare_exchange17h18340ef4a55cf47bE+0x19c>
1000019e4: e8 7f 41 39 	ldrb	w8, [sp, #95]
1000019e8: 08 05 00 f1 	subs	x8, x8, #1
1000019ec: e8 17 9f 1a 	cset	w8, eq
1000019f0: e8 17 00 37 	tbnz	w8, #0, 0x100001cec <__ZN4core4sync6atomic23atomic_compare_exchange17h18340ef4a55cf47bE+0x4a4>
1000019f4: cc 00 00 14 	b	0x100001d24 <__ZN4core4sync6atomic23atomic_compare_exchange17h18340ef4a55cf47bE+0x4dc>
1000019f8: ea 4b 40 b9 	ldr	w10, [sp, #72]
1000019fc: e8 4f 40 b9 	ldr	w8, [sp, #76]
100001a00: eb 23 40 f9 	ldr	x11, [sp, #64]
100001a04: e9 03 0a aa 	mov	x9, x10
100001a08: 68 fd e9 08 	<unknown>
100001a0c: 28 1d 00 12 	and	w8, w9, #0xff
100001a10: 08 01 2a 6b 	subs	w8, w8, w10, uxtb
100001a14: e8 17 9f 1a 	cset	w8, eq
100001a18: 08 01 00 12 	and	w8, w8, #0x1
100001a1c: e9 73 01 39 	strb	w9, [sp, #92]
100001a20: e8 77 01 39 	strb	w8, [sp, #93]
100001a24: 19 00 00 14 	b	0x100001a88 <__ZN4core4sync6atomic23atomic_compare_exchange17h18340ef4a55cf47bE+0x240>
100001a28: ea 4b 40 b9 	ldr	w10, [sp, #72]
100001a2c: e8 4f 40 b9 	ldr	w8, [sp, #76]
100001a30: eb 23 40 f9 	ldr	x11, [sp, #64]
100001a34: e9 03 0a aa 	mov	x9, x10
100001a38: 68 fd e9 08 	<unknown>
100001a3c: 28 1d 00 12 	and	w8, w9, #0xff
100001a40: 08 01 2a 6b 	subs	w8, w8, w10, uxtb
100001a44: e8 17 9f 1a 	cset	w8, eq
100001a48: 08 01 00 12 	and	w8, w8, #0x1
100001a4c: e9 73 01 39 	strb	w9, [sp, #92]
100001a50: e8 77 01 39 	strb	w8, [sp, #93]
100001a54: 0d 00 00 14 	b	0x100001a88 <__ZN4core4sync6atomic23atomic_compare_exchange17h18340ef4a55cf47bE+0x240>
100001a58: ea 4b 40 b9 	ldr	w10, [sp, #72]
100001a5c: e8 4f 40 b9 	ldr	w8, [sp, #76]
100001a60: eb 23 40 f9 	ldr	x11, [sp, #64]
100001a64: e9 03 0a aa 	mov	x9, x10
100001a68: 68 fd e9 08 	<unknown>
100001a6c: 28 1d 00 12 	and	w8, w9, #0xff
100001a70: 08 01 2a 6b 	subs	w8, w8, w10, uxtb
100001a74: e8 17 9f 1a 	cset	w8, eq
100001a78: 08 01 00 12 	and	w8, w8, #0x1
100001a7c: e9 73 01 39 	strb	w9, [sp, #92]
100001a80: e8 77 01 39 	strb	w8, [sp, #93]
100001a84: 01 00 00 14 	b	0x100001a88 <__ZN4core4sync6atomic23atomic_compare_exchange17h18340ef4a55cf47bE+0x240>
100001a88: e8 73 41 39 	ldrb	w8, [sp, #92]
100001a8c: e8 17 00 b9 	str	w8, [sp, #20]
100001a90: a8 e3 1f 38 	sturb	w8, [x29, #-2]
100001a94: e8 77 41 39 	ldrb	w8, [sp, #93]
100001a98: 29 00 80 52 	mov	w9, #1
100001a9c: 09 01 09 0a 	and	w9, w8, w9
100001aa0: a9 f3 1f 38 	sturb	w9, [x29, #-1]
100001aa4: 68 16 00 37 	tbnz	w8, #0, 0x100001d70 <__ZN4core4sync6atomic23atomic_compare_exchange17h18340ef4a55cf47bE+0x528>
100001aa8: ad 00 00 14 	b	0x100001d5c <__ZN4core4sync6atomic23atomic_compare_exchange17h18340ef4a55cf47bE+0x514>
100001aac: ea 4b 40 b9 	ldr	w10, [sp, #72]
100001ab0: e8 4f 40 b9 	ldr	w8, [sp, #76]
100001ab4: eb 23 40 f9 	ldr	x11, [sp, #64]
100001ab8: e9 03 0a aa 	mov	x9, x10
100001abc: 68 fd e9 08 	<unknown>
100001ac0: 28 1d 00 12 	and	w8, w9, #0xff
100001ac4: 08 01 2a 6b 	subs	w8, w8, w10, uxtb
100001ac8: e8 17 9f 1a 	cset	w8, eq
100001acc: 08 01 00 12 	and	w8, w8, #0x1
100001ad0: e9 73 01 39 	strb	w9, [sp, #92]
100001ad4: e8 77 01 39 	strb	w8, [sp, #93]
100001ad8: ec ff ff 17 	b	0x100001a88 <__ZN4core4sync6atomic23atomic_compare_exchange17h18340ef4a55cf47bE+0x240>
100001adc: ea 4b 40 b9 	ldr	w10, [sp, #72]
100001ae0: e8 4f 40 b9 	ldr	w8, [sp, #76]
100001ae4: eb 23 40 f9 	ldr	x11, [sp, #64]
100001ae8: e9 03 0a aa 	mov	x9, x10
100001aec: 68 fd e9 08 	<unknown>
100001af0: 28 1d 00 12 	and	w8, w9, #0xff
100001af4: 08 01 2a 6b 	subs	w8, w8, w10, uxtb
100001af8: e8 17 9f 1a 	cset	w8, eq
100001afc: 08 01 00 12 	and	w8, w8, #0x1
100001b00: e9 73 01 39 	strb	w9, [sp, #92]
100001b04: e8 77 01 39 	strb	w8, [sp, #93]
100001b08: e0 ff ff 17 	b	0x100001a88 <__ZN4core4sync6atomic23atomic_compare_exchange17h18340ef4a55cf47bE+0x240>
100001b0c: ea 4b 40 b9 	ldr	w10, [sp, #72]
100001b10: e8 4f 40 b9 	ldr	w8, [sp, #76]
100001b14: eb 23 40 f9 	ldr	x11, [sp, #64]
100001b18: e9 03 0a aa 	mov	x9, x10
100001b1c: 68 fd e9 08 	<unknown>
100001b20: 28 1d 00 12 	and	w8, w9, #0xff
100001b24: 08 01 2a 6b 	subs	w8, w8, w10, uxtb
100001b28: e8 17 9f 1a 	cset	w8, eq
100001b2c: 08 01 00 12 	and	w8, w8, #0x1
100001b30: e9 73 01 39 	strb	w9, [sp, #92]
100001b34: e8 77 01 39 	strb	w8, [sp, #93]
100001b38: d4 ff ff 17 	b	0x100001a88 <__ZN4core4sync6atomic23atomic_compare_exchange17h18340ef4a55cf47bE+0x240>
100001b3c: ea 4b 40 b9 	ldr	w10, [sp, #72]
100001b40: e8 4f 40 b9 	ldr	w8, [sp, #76]
100001b44: eb 23 40 f9 	ldr	x11, [sp, #64]
100001b48: e9 03 0a aa 	mov	x9, x10
100001b4c: 68 7d e9 08 	<unknown>
100001b50: 28 1d 00 12 	and	w8, w9, #0xff
100001b54: 08 01 2a 6b 	subs	w8, w8, w10, uxtb
100001b58: e8 17 9f 1a 	cset	w8, eq
100001b5c: 08 01 00 12 	and	w8, w8, #0x1
100001b60: e9 73 01 39 	strb	w9, [sp, #92]
100001b64: e8 77 01 39 	strb	w8, [sp, #93]
100001b68: c8 ff ff 17 	b	0x100001a88 <__ZN4core4sync6atomic23atomic_compare_exchange17h18340ef4a55cf47bE+0x240>
100001b6c: ea 4b 40 b9 	ldr	w10, [sp, #72]
100001b70: e8 4f 40 b9 	ldr	w8, [sp, #76]
100001b74: eb 23 40 f9 	ldr	x11, [sp, #64]
100001b78: e9 03 0a aa 	mov	x9, x10
100001b7c: 68 7d e9 08 	<unknown>
100001b80: 28 1d 00 12 	and	w8, w9, #0xff
100001b84: 08 01 2a 6b 	subs	w8, w8, w10, uxtb
100001b88: e8 17 9f 1a 	cset	w8, eq
100001b8c: 08 01 00 12 	and	w8, w8, #0x1
100001b90: e9 73 01 39 	strb	w9, [sp, #92]
100001b94: e8 77 01 39 	strb	w8, [sp, #93]
100001b98: bc ff ff 17 	b	0x100001a88 <__ZN4core4sync6atomic23atomic_compare_exchange17h18340ef4a55cf47bE+0x240>
100001b9c: ea 4b 40 b9 	ldr	w10, [sp, #72]
100001ba0: e8 4f 40 b9 	ldr	w8, [sp, #76]
100001ba4: eb 23 40 f9 	ldr	x11, [sp, #64]
100001ba8: e9 03 0a aa 	mov	x9, x10
100001bac: 68 fd e9 08 	<unknown>
100001bb0: 28 1d 00 12 	and	w8, w9, #0xff
100001bb4: 08 01 2a 6b 	subs	w8, w8, w10, uxtb
100001bb8: e8 17 9f 1a 	cset	w8, eq
100001bbc: 08 01 00 12 	and	w8, w8, #0x1
100001bc0: e9 73 01 39 	strb	w9, [sp, #92]
100001bc4: e8 77 01 39 	strb	w8, [sp, #93]
100001bc8: b0 ff ff 17 	b	0x100001a88 <__ZN4core4sync6atomic23atomic_compare_exchange17h18340ef4a55cf47bE+0x240>
100001bcc: ea 4b 40 b9 	ldr	w10, [sp, #72]
100001bd0: e8 4f 40 b9 	ldr	w8, [sp, #76]
100001bd4: eb 23 40 f9 	ldr	x11, [sp, #64]
100001bd8: e9 03 0a aa 	mov	x9, x10
100001bdc: 68 fd a9 08 	<unknown>
100001be0: 28 1d 00 12 	and	w8, w9, #0xff
100001be4: 08 01 2a 6b 	subs	w8, w8, w10, uxtb
100001be8: e8 17 9f 1a 	cset	w8, eq
100001bec: 08 01 00 12 	and	w8, w8, #0x1
100001bf0: e9 73 01 39 	strb	w9, [sp, #92]
100001bf4: e8 77 01 39 	strb	w8, [sp, #93]
100001bf8: a4 ff ff 17 	b	0x100001a88 <__ZN4core4sync6atomic23atomic_compare_exchange17h18340ef4a55cf47bE+0x240>
100001bfc: ea 4b 40 b9 	ldr	w10, [sp, #72]
100001c00: e8 4f 40 b9 	ldr	w8, [sp, #76]
100001c04: eb 23 40 f9 	ldr	x11, [sp, #64]
100001c08: e9 03 0a aa 	mov	x9, x10
100001c0c: 68 fd e9 08 	<unknown>
100001c10: 28 1d 00 12 	and	w8, w9, #0xff
100001c14: 08 01 2a 6b 	subs	w8, w8, w10, uxtb
100001c18: e8 17 9f 1a 	cset	w8, eq
100001c1c: 08 01 00 12 	and	w8, w8, #0x1
100001c20: e9 73 01 39 	strb	w9, [sp, #92]
100001c24: e8 77 01 39 	strb	w8, [sp, #93]
100001c28: 98 ff ff 17 	b	0x100001a88 <__ZN4core4sync6atomic23atomic_compare_exchange17h18340ef4a55cf47bE+0x240>
100001c2c: ea 4b 40 b9 	ldr	w10, [sp, #72]
100001c30: e8 4f 40 b9 	ldr	w8, [sp, #76]
100001c34: eb 23 40 f9 	ldr	x11, [sp, #64]
100001c38: e9 03 0a aa 	mov	x9, x10
100001c3c: 68 fd e9 08 	<unknown>
100001c40: 28 1d 00 12 	and	w8, w9, #0xff
100001c44: 08 01 2a 6b 	subs	w8, w8, w10, uxtb
100001c48: e8 17 9f 1a 	cset	w8, eq
100001c4c: 08 01 00 12 	and	w8, w8, #0x1
100001c50: e9 73 01 39 	strb	w9, [sp, #92]
100001c54: e8 77 01 39 	strb	w8, [sp, #93]
100001c58: 8c ff ff 17 	b	0x100001a88 <__ZN4core4sync6atomic23atomic_compare_exchange17h18340ef4a55cf47bE+0x240>
100001c5c: ea 4b 40 b9 	ldr	w10, [sp, #72]
100001c60: e8 4f 40 b9 	ldr	w8, [sp, #76]
100001c64: eb 23 40 f9 	ldr	x11, [sp, #64]
100001c68: e9 03 0a aa 	mov	x9, x10
100001c6c: 68 7d a9 08 	<unknown>
100001c70: 28 1d 00 12 	and	w8, w9, #0xff
100001c74: 08 01 2a 6b 	subs	w8, w8, w10, uxtb
100001c78: e8 17 9f 1a 	cset	w8, eq
100001c7c: 08 01 00 12 	and	w8, w8, #0x1
100001c80: e9 73 01 39 	strb	w9, [sp, #92]
100001c84: e8 77 01 39 	strb	w8, [sp, #93]
100001c88: 80 ff ff 17 	b	0x100001a88 <__ZN4core4sync6atomic23atomic_compare_exchange17h18340ef4a55cf47bE+0x240>
100001c8c: ea 4b 40 b9 	ldr	w10, [sp, #72]
100001c90: e8 4f 40 b9 	ldr	w8, [sp, #76]
100001c94: eb 23 40 f9 	ldr	x11, [sp, #64]
100001c98: e9 03 0a aa 	mov	x9, x10
100001c9c: 68 7d e9 08 	<unknown>
100001ca0: 28 1d 00 12 	and	w8, w9, #0xff
100001ca4: 08 01 2a 6b 	subs	w8, w8, w10, uxtb
100001ca8: e8 17 9f 1a 	cset	w8, eq
100001cac: 08 01 00 12 	and	w8, w8, #0x1
100001cb0: e9 73 01 39 	strb	w9, [sp, #92]
100001cb4: e8 77 01 39 	strb	w8, [sp, #93]
100001cb8: 74 ff ff 17 	b	0x100001a88 <__ZN4core4sync6atomic23atomic_compare_exchange17h18340ef4a55cf47bE+0x240>
100001cbc: ea 4b 40 b9 	ldr	w10, [sp, #72]
100001cc0: e8 4f 40 b9 	ldr	w8, [sp, #76]
100001cc4: eb 23 40 f9 	ldr	x11, [sp, #64]
100001cc8: e9 03 0a aa 	mov	x9, x10
100001ccc: 68 fd e9 08 	<unknown>
100001cd0: 28 1d 00 12 	and	w8, w9, #0xff
100001cd4: 08 01 2a 6b 	subs	w8, w8, w10, uxtb
100001cd8: e8 17 9f 1a 	cset	w8, eq
100001cdc: 08 01 00 12 	and	w8, w8, #0x1
100001ce0: e9 73 01 39 	strb	w9, [sp, #92]
100001ce4: e8 77 01 39 	strb	w8, [sp, #93]
100001ce8: 68 ff ff 17 	b	0x100001a88 <__ZN4core4sync6atomic23atomic_compare_exchange17h18340ef4a55cf47bE+0x240>
100001cec: a8 03 01 d1 	sub	x8, x29, #64
100001cf0: e8 07 00 f9 	str	x8, [sp, #8]
100001cf4: e0 01 00 f0 	adrp	x0, 0x100040000 <__ZN8executor5label17h29e9d7d4d93ab8b4E+0x58>
100001cf8: 00 00 0b 91 	add	x0, x0, #704
100001cfc: 29 00 80 52 	mov	w9, #1
100001d00: e1 03 09 aa 	mov	x1, x9
100001d04: 82 01 00 b0 	adrp	x2, 0x100032000 <__ZN8executor5label17h29e9d7d4d93ab8b4E+0x30>
100001d08: 42 80 3f 91 	add	x2, x2, #4064
100001d0c: 03 00 80 d2 	mov	x3, #0
100001d10: cd 00 00 94 	bl	0x100002044 <__ZN4core3fmt9Arguments6new_v117h52a5993812f711c7E>
100001d14: e0 07 40 f9 	ldr	x0, [sp, #8]
100001d18: e1 01 00 f0 	adrp	x1, 0x100040000 <__ZN8executor4main17h1fb10914b9ed3e26E+0x18>
100001d1c: 21 40 0b 91 	add	x1, x1, #720
100001d20: 60 bf 00 94 	bl	0x100031aa0 <__ZN4core9panicking9panic_fmt17hc1e7b11add95109dE>
100001d24: e8 83 01 91 	add	x8, sp, #96
100001d28: e8 03 00 f9 	str	x8, [sp]
100001d2c: e0 01 00 f0 	adrp	x0, 0x100040000 <__ZN8executor4main17h1fb10914b9ed3e26E+0x2c>
100001d30: 00 60 0a 91 	add	x0, x0, #664
100001d34: 29 00 80 52 	mov	w9, #1
100001d38: e1 03 09 aa 	mov	x1, x9
100001d3c: 82 01 00 b0 	adrp	x2, 0x100032000 <__ZN8executor4main17h1fb10914b9ed3e26E+0x4>
100001d40: 42 80 3f 91 	add	x2, x2, #4064
100001d44: 03 00 80 d2 	mov	x3, #0
100001d48: bf 00 00 94 	bl	0x100002044 <__ZN4core3fmt9Arguments6new_v117h52a5993812f711c7E>
100001d4c: e0 03 40 f9 	ldr	x0, [sp]
100001d50: e1 01 00 f0 	adrp	x1, 0x100040000 <__ZN8executor4main17h1fb10914b9ed3e26E+0x50>
100001d54: 21 a0 0a 91 	add	x1, x1, #680
100001d58: 52 bf 00 94 	bl	0x100031aa0 <__ZN4core9panicking9panic_fmt17hc1e7b11add95109dE>
100001d5c: e8 17 40 b9 	ldr	w8, [sp, #20]
100001d60: e8 6f 01 39 	strb	w8, [sp, #91]
100001d64: 28 00 80 52 	mov	w8, #1
100001d68: e8 6b 01 39 	strb	w8, [sp, #90]
100001d6c: 05 00 00 14 	b	0x100001d80 <__ZN4core4sync6atomic23atomic_compare_exchange17h18340ef4a55cf47bE+0x538>
100001d70: e8 17 40 b9 	ldr	w8, [sp, #20]
100001d74: e8 6f 01 39 	strb	w8, [sp, #91]
100001d78: ff 6b 01 39 	strb	wzr, [sp, #90]
100001d7c: 01 00 00 14 	b	0x100001d80 <__ZN4core4sync6atomic23atomic_compare_exchange17h18340ef4a55cf47bE+0x538>
100001d80: e8 6b 41 39 	ldrb	w8, [sp, #90]
100001d84: e1 6f 41 39 	ldrb	w1, [sp, #91]
100001d88: 00 01 00 12 	and	w0, w8, #0x1
100001d8c: fd 7b 4d a9 	ldp	x29, x30, [sp, #208]
100001d90: ff 83 03 91 	add	sp, sp, #224
100001d94: c0 03 5f d6 	ret

0000000100001d98 <__ZN8executor5label17h29e9d7d4d93ab8b4E>:
100001d98: ff c3 01 d1 	sub	sp, sp, #112
100001d9c: fd 7b 06 a9 	stp	x29, x30, [sp, #96]
100001da0: fd 83 01 91 	add	x29, sp, #96
100001da4: e8 03 00 aa 	mov	x8, x0
100001da8: e0 43 00 91 	add	x0, sp, #16
100001dac: e8 0b 00 f9 	str	x8, [sp, #16]
100001db0: e1 0f 00 f9 	str	x1, [sp, #24]
100001db4: 6a 00 00 94 	bl	0x100001f5c <__ZN4core3fmt10ArgumentV111new_display17hc0bc7fcb0efd0180E>
100001db8: a2 43 00 d1 	sub	x2, x29, #16
100001dbc: a0 03 1f f8 	stur	x0, [x29, #-16]
100001dc0: a1 83 1f f8 	stur	x1, [x29, #-8]
100001dc4: e8 83 00 91 	add	x8, sp, #32
100001dc8: e8 07 00 f9 	str	x8, [sp, #8]
100001dcc: e0 01 00 f0 	adrp	x0, 0x100040000 <__ZN8executor4main17h1fb10914b9ed3e26E+0xcc>
100001dd0: 00 a0 0b 91 	add	x0, x0, #744
100001dd4: 49 00 80 52 	mov	w9, #2
100001dd8: e1 03 09 aa 	mov	x1, x9
100001ddc: 29 00 80 52 	mov	w9, #1
100001de0: e3 03 09 aa 	mov	x3, x9
100001de4: 98 00 00 94 	bl	0x100002044 <__ZN4core3fmt9Arguments6new_v117h52a5993812f711c7E>
100001de8: e0 07 40 f9 	ldr	x0, [sp, #8]
100001dec: 98 55 00 94 	bl	0x10001744c <__ZN3std2io5stdio6_print17hf5189a9887145206E>
100001df0: fd 7b 46 a9 	ldp	x29, x30, [sp, #96]
100001df4: ff c3 01 91 	add	sp, sp, #112
100001df8: c0 03 5f d6 	ret

0000000100001dfc <__ZN8executor4main17h1fb10914b9ed3e26E>:
100001dfc: ff 03 02 d1 	sub	sp, sp, #128
100001e00: fd 7b 07 a9 	stp	x29, x30, [sp, #112]
100001e04: fd c3 01 91 	add	x29, sp, #112
100001e08: 80 01 00 d0 	adrp	x0, 0x100033000 <__ZN8executor4main17h1fb10914b9ed3e26E+0xd4>
100001e0c: 00 34 03 91 	add	x0, x0, #205
100001e10: 28 00 80 52 	mov	w8, #1
100001e14: e1 03 08 aa 	mov	x1, x8
100001e18: e0 ff ff 97 	bl	0x100001d98 <__ZN8executor5label17h29e9d7d4d93ab8b4E>
100001e1c: 01 00 00 14 	b	0x100001e20 <__ZN8executor4main17h1fb10914b9ed3e26E+0x24>
100001e20: ff 9b 00 39 	strb	wzr, [sp, #38]
100001e24: ff 9f 00 39 	strb	wzr, [sp, #39]
100001e28: e3 9b 40 39 	ldrb	w3, [sp, #38]
100001e2c: e4 9f 40 39 	ldrb	w4, [sp, #39]
100001e30: 00 02 00 f0 	adrp	x0, 0x100044000 <__ZN44_$LT$$RF$T$u20$as$u20$core..fmt..Display$GT$3fmt17hacb3b2587112bf34E+0x20>
100001e34: 00 40 04 91 	add	x0, x0, #272
100001e38: 28 00 80 52 	mov	w8, #1
100001e3c: 09 00 80 52 	mov	w9, #0
100001e40: 21 01 00 12 	and	w1, w9, #0x1
100001e44: 02 01 00 12 	and	w2, w8, #0x1
100001e48: bc 00 00 94 	bl	0x100002138 <__ZN4core4sync6atomic10AtomicBool16compare_exchange17h4822d93fd747b6afE>
100001e4c: e8 03 00 aa 	mov	x8, x0
100001e50: e0 93 00 91 	add	x0, sp, #36
100001e54: e8 93 00 39 	strb	w8, [sp, #36]
100001e58: e1 97 00 39 	strb	w1, [sp, #37]
100001e5c: 66 00 00 94 	bl	0x100001ff4 <__ZN4core6result19Result$LT$T$C$E$GT$6is_err17hd4244c50a0f64761E>
100001e60: 40 04 00 37 	tbnz	w0, #0, 0x100001ee8 <__ZN8executor4main17h1fb10914b9ed3e26E+0xec>
100001e64: 01 00 00 14 	b	0x100001e68 <__ZN8executor4main17h1fb10914b9ed3e26E+0x6c>
100001e68: 80 01 00 d0 	adrp	x0, 0x100033000 <__ZN44_$LT$$RF$T$u20$as$u20$core..fmt..Display$GT$3fmt17hacb3b2587112bf34E+0x14>
100001e6c: 00 38 03 91 	add	x0, x0, #206
100001e70: 28 00 80 52 	mov	w8, #1
100001e74: e1 03 08 aa 	mov	x1, x8
100001e78: e1 07 00 f9 	str	x1, [sp, #8]
100001e7c: c7 ff ff 97 	bl	0x100001d98 <__ZN8executor5label17h29e9d7d4d93ab8b4E>
100001e80: 00 02 00 f0 	adrp	x0, 0x100044000 <__ZN4core3fmt10ArgumentV111new_display17hc0bc7fcb0efd0180E+0x30>
100001e84: 00 40 04 91 	add	x0, x0, #272
100001e88: e0 0f 00 f9 	str	x0, [sp, #24]
100001e8c: 47 00 00 94 	bl	0x100001fa8 <__ZN4core3fmt10ArgumentV19new_debug17hcf89c3d18b859229E>
100001e90: e3 07 40 f9 	ldr	x3, [sp, #8]
100001e94: a2 63 00 d1 	sub	x2, x29, #24
100001e98: a0 83 1e f8 	stur	x0, [x29, #-24]
100001e9c: a1 03 1f f8 	stur	x1, [x29, #-16]
100001ea0: e8 a3 00 91 	add	x8, sp, #40
100001ea4: e8 0b 00 f9 	str	x8, [sp, #16]
100001ea8: e0 01 00 f0 	adrp	x0, 0x100040000 <__ZN4core3fmt10ArgumentV111new_display17hc0bc7fcb0efd0180E+0x48>
100001eac: 00 a0 0b 91 	add	x0, x0, #744
100001eb0: 49 00 80 52 	mov	w9, #2
100001eb4: e1 03 09 aa 	mov	x1, x9
100001eb8: 63 00 00 94 	bl	0x100002044 <__ZN4core3fmt9Arguments6new_v117h52a5993812f711c7E>
100001ebc: e0 0b 40 f9 	ldr	x0, [sp, #16]
100001ec0: 63 55 00 94 	bl	0x10001744c <__ZN3std2io5stdio6_print17hf5189a9887145206E>
100001ec4: e0 0f 40 f9 	ldr	x0, [sp, #24]
100001ec8: bf f3 1f 38 	sturb	wzr, [x29, #-1]
100001ecc: a2 f3 5f 38 	ldurb	w2, [x29, #-1]
100001ed0: 08 00 80 52 	mov	w8, #0
100001ed4: 01 01 00 12 	and	w1, w8, #0x1
100001ed8: c7 00 00 94 	bl	0x1000021f4 <__ZN4core4sync6atomic10AtomicBool5store17h6297654d521a9c97E>
100001edc: fd 7b 47 a9 	ldp	x29, x30, [sp, #112]
100001ee0: ff 03 02 91 	add	sp, sp, #128
100001ee4: c0 03 5f d6 	ret
100001ee8: df 3f 03 d5 	isb
100001eec: cd ff ff 17 	b	0x100001e20 <__ZN8executor4main17h1fb10914b9ed3e26E+0x24>

0000000100001ef0 <_main>:
100001ef0: fd 7b bf a9 	stp	x29, x30, [sp, #-16]!
100001ef4: fd 03 00 91 	mov	x29, sp
100001ef8: e2 03 01 aa 	mov	x2, x1
100001efc: e8 03 00 aa 	mov	x8, x0
100001f00: 01 7d 40 93 	sxtw	x1, w8
100001f04: 00 00 00 90 	adrp	x0, 0x100001000 <_main+0x14>
100001f08: 00 f0 37 91 	add	x0, x0, #3580
100001f0c: 03 00 80 52 	mov	w3, #0
100001f10: ba fd ff 97 	bl	0x1000015f8 <__ZN3std2rt10lang_start17h44a5558da92a9c9aE>
100001f14: fd 7b c1 a8 	ldp	x29, x30, [sp], #16
100001f18: c0 03 5f d6 	ret

0000000100001f1c <__ZN44_$LT$$RF$T$u20$as$u20$core..fmt..Display$GT$3fmt17hacb3b2587112bf34E>:
100001f1c: ff 83 00 d1 	sub	sp, sp, #32
100001f20: fd 7b 01 a9 	stp	x29, x30, [sp, #16]
100001f24: fd 43 00 91 	add	x29, sp, #16
100001f28: e8 03 00 aa 	mov	x8, x0
100001f2c: e2 03 01 aa 	mov	x2, x1
100001f30: e0 03 08 aa 	mov	x0, x8
100001f34: e0 03 00 f9 	str	x0, [sp]
100001f38: e1 03 02 aa 	mov	x1, x2
100001f3c: e1 07 00 f9 	str	x1, [sp, #8]
100001f40: 00 01 40 f9 	ldr	x0, [x8]
100001f44: 01 05 40 f9 	ldr	x1, [x8, #8]
100001f48: a3 a9 00 94 	bl	0x10002c5d4 <__ZN42_$LT$str$u20$as$u20$core..fmt..Display$GT$3fmt17haa2294d7267f7e90E>
100001f4c: 00 00 00 12 	and	w0, w0, #0x1
100001f50: fd 7b 41 a9 	ldp	x29, x30, [sp, #16]
100001f54: ff 83 00 91 	add	sp, sp, #32
100001f58: c0 03 5f d6 	ret

0000000100001f5c <__ZN4core3fmt10ArgumentV111new_display17hc0bc7fcb0efd0180E>:
100001f5c: ff 03 01 d1 	sub	sp, sp, #64
100001f60: e8 03 00 aa 	mov	x8, x0
100001f64: e8 0f 00 f9 	str	x8, [sp, #24]
100001f68: e8 03 00 aa 	mov	x8, x0
100001f6c: e8 13 00 f9 	str	x8, [sp, #32]
100001f70: 08 00 00 90 	adrp	x8, 0x100001000 <__ZN4core3fmt10ArgumentV111new_display17hc0bc7fcb0efd0180E+0x14>
100001f74: 08 71 3c 91 	add	x8, x8, #3868
100001f78: e9 03 08 aa 	mov	x9, x8
100001f7c: e9 17 00 f9 	str	x9, [sp, #40]
100001f80: e8 1b 00 f9 	str	x8, [sp, #48]
100001f84: e8 1b 40 f9 	ldr	x8, [sp, #48]
100001f88: e0 1f 00 f9 	str	x0, [sp, #56]
100001f8c: e9 1f 40 f9 	ldr	x9, [sp, #56]
100001f90: e9 07 00 f9 	str	x9, [sp, #8]
100001f94: e8 0b 00 f9 	str	x8, [sp, #16]
100001f98: e0 07 40 f9 	ldr	x0, [sp, #8]
100001f9c: e1 0b 40 f9 	ldr	x1, [sp, #16]
100001fa0: ff 03 01 91 	add	sp, sp, #64
100001fa4: c0 03 5f d6 	ret

0000000100001fa8 <__ZN4core3fmt10ArgumentV19new_debug17hcf89c3d18b859229E>:
100001fa8: ff 03 01 d1 	sub	sp, sp, #64
100001fac: e8 03 00 aa 	mov	x8, x0
100001fb0: e8 0f 00 f9 	str	x8, [sp, #24]
100001fb4: e8 03 00 aa 	mov	x8, x0
100001fb8: e8 13 00 f9 	str	x8, [sp, #32]
100001fbc: 48 01 00 b0 	adrp	x8, 0x10002a000 <__ZN4core3fmt9Arguments6new_v117h52a5993812f711c7E+0x1c>
100001fc0: 08 11 1f 91 	add	x8, x8, #1988
100001fc4: e9 03 08 aa 	mov	x9, x8
100001fc8: e9 17 00 f9 	str	x9, [sp, #40]
100001fcc: e8 1b 00 f9 	str	x8, [sp, #48]
100001fd0: e8 1b 40 f9 	ldr	x8, [sp, #48]
100001fd4: e0 1f 00 f9 	str	x0, [sp, #56]
100001fd8: e9 1f 40 f9 	ldr	x9, [sp, #56]
100001fdc: e9 07 00 f9 	str	x9, [sp, #8]
100001fe0: e8 0b 00 f9 	str	x8, [sp, #16]
100001fe4: e0 07 40 f9 	ldr	x0, [sp, #8]
100001fe8: e1 0b 40 f9 	ldr	x1, [sp, #16]
100001fec: ff 03 01 91 	add	sp, sp, #64
100001ff0: c0 03 5f d6 	ret

0000000100001ff4 <__ZN4core6result19Result$LT$T$C$E$GT$6is_err17hd4244c50a0f64761E>:
100001ff4: ff 83 00 d1 	sub	sp, sp, #32
100001ff8: e8 03 00 aa 	mov	x8, x0
100001ffc: e8 0b 00 f9 	str	x8, [sp, #16]
100002000: e8 03 00 aa 	mov	x8, x0
100002004: e8 0f 00 f9 	str	x8, [sp, #24]
100002008: 08 00 40 39 	ldrb	w8, [x0]
10000200c: 08 01 40 f2 	ands	x8, x8, #0x1
100002010: e8 07 9f 1a 	cset	w8, ne
100002014: a8 00 00 37 	tbnz	w8, #0, 0x100002028 <__ZN4core6result19Result$LT$T$C$E$GT$6is_err17hd4244c50a0f64761E+0x34>
100002018: 01 00 00 14 	b	0x10000201c <__ZN4core6result19Result$LT$T$C$E$GT$6is_err17hd4244c50a0f64761E+0x28>
10000201c: 28 00 80 52 	mov	w8, #1
100002020: e8 3f 00 39 	strb	w8, [sp, #15]
100002024: 03 00 00 14 	b	0x100002030 <__ZN4core6result19Result$LT$T$C$E$GT$6is_err17hd4244c50a0f64761E+0x3c>
100002028: ff 3f 00 39 	strb	wzr, [sp, #15]
10000202c: 01 00 00 14 	b	0x100002030 <__ZN4core6result19Result$LT$T$C$E$GT$6is_err17hd4244c50a0f64761E+0x3c>
100002030: e8 3f 40 39 	ldrb	w8, [sp, #15]
100002034: 08 01 00 52 	eor	w8, w8, #0x1
100002038: 00 01 00 12 	and	w0, w8, #0x1
10000203c: ff 83 00 91 	add	sp, sp, #32
100002040: c0 03 5f d6 	ret

0000000100002044 <__ZN4core3fmt9Arguments6new_v117h52a5993812f711c7E>:
100002044: ff c3 02 d1 	sub	sp, sp, #176
100002048: fd 7b 0a a9 	stp	x29, x30, [sp, #160]
10000204c: fd 83 02 91 	add	x29, sp, #160
100002050: e8 0b 00 f9 	str	x8, [sp, #16]
100002054: e0 0f 00 f9 	str	x0, [sp, #24]
100002058: e1 13 00 f9 	str	x1, [sp, #32]
10000205c: e2 17 00 f9 	str	x2, [sp, #40]
100002060: e3 1b 00 f9 	str	x3, [sp, #48]
100002064: a0 03 1e f8 	stur	x0, [x29, #-32]
100002068: a1 83 1e f8 	stur	x1, [x29, #-24]
10000206c: a2 03 1f f8 	stur	x2, [x29, #-16]
100002070: a3 83 1f f8 	stur	x3, [x29, #-8]
100002074: 28 00 03 eb 	subs	x8, x1, x3
100002078: e8 27 9f 1a 	cset	w8, lo
10000207c: 48 01 00 37 	tbnz	w8, #0, 0x1000020a4 <__ZN4core3fmt9Arguments6new_v117h52a5993812f711c7E+0x60>
100002080: 01 00 00 14 	b	0x100002084 <__ZN4core3fmt9Arguments6new_v117h52a5993812f711c7E+0x40>
100002084: e8 13 40 f9 	ldr	x8, [sp, #32]
100002088: e9 1b 40 f9 	ldr	x9, [sp, #48]
10000208c: 29 05 00 91 	add	x9, x9, #1
100002090: 08 01 09 eb 	subs	x8, x8, x9
100002094: e8 97 9f 1a 	cset	w8, hi
100002098: 08 01 00 12 	and	w8, w8, #0x1
10000209c: e8 ff 00 39 	strb	w8, [sp, #63]
1000020a0: 04 00 00 14 	b	0x1000020b0 <__ZN4core3fmt9Arguments6new_v117h52a5993812f711c7E+0x6c>
1000020a4: 28 00 80 52 	mov	w8, #1
1000020a8: e8 ff 00 39 	strb	w8, [sp, #63]
1000020ac: 01 00 00 14 	b	0x1000020b0 <__ZN4core3fmt9Arguments6new_v117h52a5993812f711c7E+0x6c>
1000020b0: e8 ff 40 39 	ldrb	w8, [sp, #63]
1000020b4: 68 02 00 37 	tbnz	w8, #0, 0x100002100 <__ZN4core3fmt9Arguments6new_v117h52a5993812f711c7E+0xbc>
1000020b8: 01 00 00 14 	b	0x1000020bc <__ZN4core3fmt9Arguments6new_v117h52a5993812f711c7E+0x78>
1000020bc: e8 1b 40 f9 	ldr	x8, [sp, #48]
1000020c0: e9 0b 40 f9 	ldr	x9, [sp, #16]
1000020c4: ea 17 40 f9 	ldr	x10, [sp, #40]
1000020c8: eb 13 40 f9 	ldr	x11, [sp, #32]
1000020cc: ec 0f 40 f9 	ldr	x12, [sp, #24]
1000020d0: bf 03 1d f8 	stur	xzr, [x29, #-48]
1000020d4: 2c 09 00 f9 	str	x12, [x9, #16]
1000020d8: 2b 0d 00 f9 	str	x11, [x9, #24]
1000020dc: ac 03 5d f8 	ldur	x12, [x29, #-48]
1000020e0: ab 83 5d f8 	ldur	x11, [x29, #-40]
1000020e4: 2c 01 00 f9 	str	x12, [x9]
1000020e8: 2b 05 00 f9 	str	x11, [x9, #8]
1000020ec: 2a 11 00 f9 	str	x10, [x9, #32]
1000020f0: 28 15 00 f9 	str	x8, [x9, #40]
1000020f4: fd 7b 4a a9 	ldp	x29, x30, [sp, #160]
1000020f8: ff c3 02 91 	add	sp, sp, #176
1000020fc: c0 03 5f d6 	ret
100002100: e8 03 01 91 	add	x8, sp, #64
100002104: e8 07 00 f9 	str	x8, [sp, #8]
100002108: e0 01 00 d0 	adrp	x0, 0x100040000 <__ZN4core4sync6atomic10AtomicBool5store17h6297654d521a9c97E+0xc>
10000210c: 00 20 0c 91 	add	x0, x0, #776
100002110: 29 00 80 52 	mov	w9, #1
100002114: e1 03 09 aa 	mov	x1, x9
100002118: 82 01 00 b0 	adrp	x2, 0x100033000 <__ZN4core4sync6atomic10AtomicBool16compare_exchange17h4822d93fd747b6afE+0xa4>
10000211c: 42 80 03 91 	add	x2, x2, #224
100002120: 03 00 80 d2 	mov	x3, #0
100002124: c8 ff ff 97 	bl	0x100002044 <__ZN4core3fmt9Arguments6new_v117h52a5993812f711c7E>
100002128: e0 07 40 f9 	ldr	x0, [sp, #8]
10000212c: e1 01 00 d0 	adrp	x1, 0x100040000 <__ZN4core4sync6atomic10AtomicBool5store17h6297654d521a9c97E+0x30>
100002130: 21 60 0c 91 	add	x1, x1, #792
100002134: 5b be 00 94 	bl	0x100031aa0 <__ZN4core9panicking9panic_fmt17hc1e7b11add95109dE>

0000000100002138 <__ZN4core4sync6atomic10AtomicBool16compare_exchange17h4822d93fd747b6afE>:
100002138: ff 03 01 d1 	sub	sp, sp, #64
10000213c: fd 7b 03 a9 	stp	x29, x30, [sp, #48]
100002140: fd c3 00 91 	add	x29, sp, #48
100002144: e8 03 00 aa 	mov	x8, x0
100002148: e8 0b 00 f9 	str	x8, [sp, #16]
10000214c: 28 00 80 52 	mov	w8, #1
100002150: 29 00 08 0a 	and	w9, w1, w8
100002154: a9 c3 1e 38 	sturb	w9, [x29, #-20]
100002158: 48 00 08 0a 	and	w8, w2, w8
10000215c: a8 d3 1e 38 	sturb	w8, [x29, #-19]
100002160: a3 e3 1e 38 	sturb	w3, [x29, #-18]
100002164: a4 f3 1e 38 	sturb	w4, [x29, #-17]
100002168: e8 03 00 aa 	mov	x8, x0
10000216c: a8 03 1f f8 	stur	x8, [x29, #-16]
100002170: 21 00 00 12 	and	w1, w1, #0x1
100002174: 42 00 00 12 	and	w2, w2, #0x1
100002178: b4 fd ff 97 	bl	0x100001848 <__ZN4core4sync6atomic23atomic_compare_exchange17h18340ef4a55cf47bE>
10000217c: e0 3b 00 39 	strb	w0, [sp, #14]
100002180: e1 3f 00 39 	strb	w1, [sp, #15]
100002184: e8 3b 40 39 	ldrb	w8, [sp, #14]
100002188: 08 01 40 f2 	ands	x8, x8, #0x1
10000218c: e8 07 9f 1a 	cset	w8, ne
100002190: 48 01 00 37 	tbnz	w8, #0, 0x1000021b8 <__ZN4core4sync6atomic10AtomicBool16compare_exchange17h4822d93fd747b6afE+0x80>
100002194: 01 00 00 14 	b	0x100002198 <__ZN4core4sync6atomic10AtomicBool16compare_exchange17h4822d93fd747b6afE+0x60>
100002198: e8 3f 40 39 	ldrb	w8, [sp, #15]
10000219c: a8 f3 1f 38 	sturb	w8, [x29, #-1]
1000021a0: 08 01 00 71 	subs	w8, w8, #0
1000021a4: e8 07 9f 1a 	cset	w8, ne
1000021a8: 08 01 00 12 	and	w8, w8, #0x1
1000021ac: e8 37 00 39 	strb	w8, [sp, #13]
1000021b0: ff 33 00 39 	strb	wzr, [sp, #12]
1000021b4: 0a 00 00 14 	b	0x1000021dc <__ZN4core4sync6atomic10AtomicBool16compare_exchange17h4822d93fd747b6afE+0xa4>
1000021b8: e8 3f 40 39 	ldrb	w8, [sp, #15]
1000021bc: a8 e3 1f 38 	sturb	w8, [x29, #-2]
1000021c0: 08 01 00 71 	subs	w8, w8, #0
1000021c4: e8 07 9f 1a 	cset	w8, ne
1000021c8: 08 01 00 12 	and	w8, w8, #0x1
1000021cc: e8 37 00 39 	strb	w8, [sp, #13]
1000021d0: 28 00 80 52 	mov	w8, #1
1000021d4: e8 33 00 39 	strb	w8, [sp, #12]
1000021d8: 01 00 00 14 	b	0x1000021dc <__ZN4core4sync6atomic10AtomicBool16compare_exchange17h4822d93fd747b6afE+0xa4>
1000021dc: e8 33 40 39 	ldrb	w8, [sp, #12]
1000021e0: e1 37 40 39 	ldrb	w1, [sp, #13]
1000021e4: 00 01 00 12 	and	w0, w8, #0x1
1000021e8: fd 7b 43 a9 	ldp	x29, x30, [sp, #48]
1000021ec: ff 03 01 91 	add	sp, sp, #64
1000021f0: c0 03 5f d6 	ret

00000001000021f4 <__ZN4core4sync6atomic10AtomicBool5store17h6297654d521a9c97E>:
1000021f4: ff c3 00 d1 	sub	sp, sp, #48
1000021f8: fd 7b 02 a9 	stp	x29, x30, [sp, #32]
1000021fc: fd 83 00 91 	add	x29, sp, #32
100002200: e8 03 00 aa 	mov	x8, x0
100002204: e8 07 00 f9 	str	x8, [sp, #8]
100002208: 28 00 80 52 	mov	w8, #1
10000220c: 28 00 08 0a 	and	w8, w1, w8
100002210: a8 63 1f 38 	sturb	w8, [x29, #-10]
100002214: a2 73 1f 38 	sturb	w2, [x29, #-9]
100002218: e8 03 00 aa 	mov	x8, x0
10000221c: a8 83 1f f8 	stur	x8, [x29, #-8]
100002220: 21 00 00 12 	and	w1, w1, #0x1
100002224: 4c fd ff 97 	bl	0x100001754 <__ZN4core4sync6atomic12atomic_store17h8fac9438165bcc20E>
100002228: fd 7b 42 a9 	ldp	x29, x30, [sp, #32]
10000222c: ff c3 00 91 	add	sp, sp, #48
100002230: c0 03 5f d6 	ret

0000000100002234 <__ZN3std10sys_common9backtrace28__rust_begin_short_backtrace17h677b98ea43b81824E>:
100002234: ff 03 01 d1 	sub	sp, sp, #64
100002238: fd 7b 03 a9 	stp	x29, x30, [sp, #48]
10000223c: fd c3 00 91 	add	x29, sp, #48
100002240: e8 03 00 aa 	mov	x8, x0
100002244: e8 0b 00 f9 	str	x8, [sp, #16]
100002248: 37 fd ff 97 	bl	0x100001724 <__ZN4core3ops8function6FnOnce9call_once17h5e6b0d459bf24f7aE>
10000224c: 01 00 00 14 	b	0x100002250 <__ZN3std10sys_common9backtrace28__rust_begin_short_backtrace17h677b98ea43b81824E+0x1c>
100002250: fd 7b 43 a9 	ldp	x29, x30, [sp, #48]
100002254: ff 03 01 91 	add	sp, sp, #64
100002258: c0 03 5f d6 	ret

000000010000225c <___rust_alloc>:
10000225c: 21 61 00 14 	b	0x10001a6e0 <___rdl_alloc>

0000000100002260 <___rust_dealloc>:
100002260: 3b 61 00 14 	b	0x10001a74c <___rdl_dealloc>

0000000100002264 <___rust_realloc>:
100002264: 3b 61 00 14 	b	0x10001a750 <___rdl_realloc>

0000000100002268 <___rust_alloc_error_handler>:
100002268: 91 6b 00 14 	b	0x10001d0ac <___rg_oom>

000000010000226c <__ZN36_$LT$T$u20$as$u20$core..any..Any$GT$7type_id17h171aecba5ef549e0E>:
10000226c: 00 59 83 d2 	mov	x0, #6856
100002270: 00 3f b5 f2 	movk	x0, #43512, lsl #16
100002274: 80 86 cd f2 	movk	x0, #27700, lsl #32
100002278: e0 34 f1 f2 	movk	x0, #35239, lsl #48
10000227c: c0 03 5f d6 	ret

0000000100002280 <__ZN36_$LT$T$u20$as$u20$core..any..Any$GT$7type_id17h351895249c03b4b9E>:
100002280: e0 b5 9c d2 	mov	x0, #58799
100002284: e0 f2 a8 f2 	movk	x0, #18327, lsl #16
100002288: a0 02 d7 f2 	movk	x0, #47125, lsl #32
10000228c: a0 5b ee f2 	movk	x0, #29405, lsl #48
100002290: c0 03 5f d6 	ret

0000000100002294 <__ZN36_$LT$T$u20$as$u20$core..any..Any$GT$7type_id17hb9b072c59ac19aabE>:
100002294: e0 81 80 d2 	mov	x0, #1039
100002298: c0 2a ac f2 	movk	x0, #24918, lsl #16
10000229c: 80 19 da f2 	movk	x0, #53452, lsl #32
1000022a0: 80 1e f9 f2 	movk	x0, #51444, lsl #48
1000022a4: c0 03 5f d6 	ret

00000001000022a8 <__ZN42_$LT$$RF$T$u20$as$u20$core..fmt..Debug$GT$3fmt17h1964b046e7121877E>:
1000022a8: e0 03 01 aa 	mov	x0, x1
1000022ac: 21 9f 18 50 	adr	x1, #201702
1000022b0: 1f 20 03 d5 	nop
1000022b4: 42 00 80 52 	mov	w2, #2
1000022b8: 83 a5 00 14 	b	0x10002b8c4 <__ZN4core3fmt9Formatter3pad17hc20e53c0bf096972E>

00000001000022bc <__ZN42_$LT$$RF$T$u20$as$u20$core..fmt..Debug$GT$3fmt17h203b18233452af00E>:
1000022bc: e8 03 01 aa 	mov	x8, x1
1000022c0: 09 00 40 f9 	ldr	x9, [x0]
1000022c4: 29 01 40 39 	ldrb	w9, [x9]
1000022c8: 29 f1 7d d3 	lsl	x9, x9, #3
1000022cc: ea 63 19 10 	adr	x10, #207996
1000022d0: 1f 20 03 d5 	nop
1000022d4: 42 69 69 f8 	ldr	x2, [x10, x9]
1000022d8: 0a 9a 1f 10 	adr	x10, #258880
1000022dc: 1f 20 03 d5 	nop
1000022e0: 41 69 69 f8 	ldr	x1, [x10, x9]
1000022e4: e0 03 08 aa 	mov	x0, x8
1000022e8: 96 a6 00 14 	b	0x10002bd40 <__ZN57_$LT$core..fmt..Formatter$u20$as$u20$core..fmt..Write$GT$9write_str17h46d1f0db51d761a8E>

00000001000022ec <__ZN42_$LT$$RF$T$u20$as$u20$core..fmt..Debug$GT$3fmt17h402f18e5aa4486c0E>:
1000022ec: 08 00 40 f9 	ldr	x8, [x0]
1000022f0: 00 21 40 a9 	ldp	x0, x8, [x8]
1000022f4: 02 0d 40 f9 	ldr	x2, [x8, #24]
1000022f8: 40 00 1f d6 	br	x2

00000001000022fc <__ZN42_$LT$$RF$T$u20$as$u20$core..fmt..Debug$GT$3fmt17h42f0440b7432b599E>:
1000022fc: 08 00 40 f9 	ldr	x8, [x0]
100002300: 00 01 40 f9 	ldr	x0, [x8]
100002304: 64 9f 00 14 	b	0x10002a094 <__ZN64_$LT$alloc..ffi..c_str..NulError$u20$as$u20$core..fmt..Debug$GT$3fmt17h7036c5e766dc7495E>

0000000100002308 <__ZN42_$LT$$RF$T$u20$as$u20$core..fmt..Debug$GT$3fmt17h64d40a510a477267E>:
100002308: f4 4f be a9 	stp	x20, x19, [sp, #-32]!
10000230c: fd 7b 01 a9 	stp	x29, x30, [sp, #16]
100002310: fd 43 00 91 	add	x29, sp, #16
100002314: f3 03 01 aa 	mov	x19, x1
100002318: 14 00 40 f9 	ldr	x20, [x0]
10000231c: e0 03 01 aa 	mov	x0, x1
100002320: 9e a6 00 94 	bl	0x10002bd98 <__ZN4core3fmt9Formatter15debug_lower_hex17h048772b104e69e74E>
100002324: c0 00 00 36 	tbz	w0, #0, 0x10000233c <__ZN42_$LT$$RF$T$u20$as$u20$core..fmt..Debug$GT$3fmt17h64d40a510a477267E+0x34>
100002328: e0 03 14 aa 	mov	x0, x20
10000232c: e1 03 13 aa 	mov	x1, x19
100002330: fd 7b 41 a9 	ldp	x29, x30, [sp, #16]
100002334: f4 4f c2 a8 	ldp	x20, x19, [sp], #32
100002338: 33 b2 00 14 	b	0x10002ec04 <__ZN4core3fmt3num55_$LT$impl$u20$core..fmt..LowerHex$u20$for$u20$usize$GT$3fmt17hd644e2f56ec6f6e9E>
10000233c: e0 03 13 aa 	mov	x0, x19
100002340: 99 a6 00 94 	bl	0x10002bda4 <__ZN4core3fmt9Formatter15debug_upper_hex17hca088ccaf9ff1030E>
100002344: c0 00 00 36 	tbz	w0, #0, 0x10000235c <__ZN42_$LT$$RF$T$u20$as$u20$core..fmt..Debug$GT$3fmt17h64d40a510a477267E+0x54>
100002348: e0 03 14 aa 	mov	x0, x20
10000234c: e1 03 13 aa 	mov	x1, x19
100002350: fd 7b 41 a9 	ldp	x29, x30, [sp, #16]
100002354: f4 4f c2 a8 	ldp	x20, x19, [sp], #32
100002358: 53 b2 00 14 	b	0x10002eca4 <__ZN4core3fmt3num55_$LT$impl$u20$core..fmt..UpperHex$u20$for$u20$usize$GT$3fmt17h3a8e91337312a6c2E>
10000235c: e0 03 14 aa 	mov	x0, x20
100002360: e1 03 13 aa 	mov	x1, x19
100002364: fd 7b 41 a9 	ldp	x29, x30, [sp, #16]
100002368: f4 4f c2 a8 	ldp	x20, x19, [sp], #32
10000236c: dd b3 00 14 	b	0x10002f2e0 <__ZN4core3fmt3num3imp54_$LT$impl$u20$core..fmt..Display$u20$for$u20$usize$GT$3fmt17h09480f266f45aaa1E>

0000000100002370 <__ZN42_$LT$$RF$T$u20$as$u20$core..fmt..Debug$GT$3fmt17hc92a16b835971feeE>:
100002370: e2 03 01 aa 	mov	x2, x1
100002374: 08 04 40 a9 	ldp	x8, x1, [x0]
100002378: e0 03 08 aa 	mov	x0, x8
10000237c: 82 a7 00 14 	b	0x10002c184 <__ZN40_$LT$str$u20$as$u20$core..fmt..Debug$GT$3fmt17hbac9cad13cd39d40E>

0000000100002380 <__ZN42_$LT$$RF$T$u20$as$u20$core..fmt..Debug$GT$3fmt17he07a3eaf51e33f1fE>:
100002380: f4 4f be a9 	stp	x20, x19, [sp, #-32]!
100002384: fd 7b 01 a9 	stp	x29, x30, [sp, #16]
100002388: fd 43 00 91 	add	x29, sp, #16
10000238c: f3 03 01 aa 	mov	x19, x1
100002390: 14 00 40 f9 	ldr	x20, [x0]
100002394: e0 03 01 aa 	mov	x0, x1
100002398: 80 a6 00 94 	bl	0x10002bd98 <__ZN4core3fmt9Formatter15debug_lower_hex17h048772b104e69e74E>
10000239c: c0 00 00 36 	tbz	w0, #0, 0x1000023b4 <__ZN42_$LT$$RF$T$u20$as$u20$core..fmt..Debug$GT$3fmt17he07a3eaf51e33f1fE+0x34>
1000023a0: e0 03 14 aa 	mov	x0, x20
1000023a4: e1 03 13 aa 	mov	x1, x19
1000023a8: fd 7b 41 a9 	ldp	x29, x30, [sp, #16]
1000023ac: f4 4f c2 a8 	ldp	x20, x19, [sp], #32
1000023b0: c5 b1 00 14 	b	0x10002eac4 <__ZN4core3fmt3num53_$LT$impl$u20$core..fmt..LowerHex$u20$for$u20$i32$GT$3fmt17hd9de63ebcb3fc621E>
1000023b4: e0 03 13 aa 	mov	x0, x19
1000023b8: 7b a6 00 94 	bl	0x10002bda4 <__ZN4core3fmt9Formatter15debug_upper_hex17hca088ccaf9ff1030E>
1000023bc: c0 00 00 36 	tbz	w0, #0, 0x1000023d4 <__ZN42_$LT$$RF$T$u20$as$u20$core..fmt..Debug$GT$3fmt17he07a3eaf51e33f1fE+0x54>
1000023c0: e0 03 14 aa 	mov	x0, x20
1000023c4: e1 03 13 aa 	mov	x1, x19
1000023c8: fd 7b 41 a9 	ldp	x29, x30, [sp, #16]
1000023cc: f4 4f c2 a8 	ldp	x20, x19, [sp], #32
1000023d0: e5 b1 00 14 	b	0x10002eb64 <__ZN4core3fmt3num53_$LT$impl$u20$core..fmt..UpperHex$u20$for$u20$i32$GT$3fmt17hfd0c9e2a4819dce8E>
1000023d4: e0 03 14 aa 	mov	x0, x20
1000023d8: e1 03 13 aa 	mov	x1, x19
1000023dc: fd 7b 41 a9 	ldp	x29, x30, [sp, #16]
1000023e0: f4 4f c2 a8 	ldp	x20, x19, [sp], #32
1000023e4: 12 b3 00 14 	b	0x10002f02c <__ZN4core3fmt3num3imp52_$LT$impl$u20$core..fmt..Display$u20$for$u20$i32$GT$3fmt17h5aa82da1f9a2d91eE>

00000001000023e8 <__ZN44_$LT$$RF$T$u20$as$u20$core..fmt..Display$GT$3fmt17h663d8429ff61fd98E>:
1000023e8: 00 00 40 f9 	ldr	x0, [x0]
1000023ec: 60 a0 00 14 	b	0x10002a56c <__ZN70_$LT$core..panic..location..Location$u20$as$u20$core..fmt..Display$GT$3fmt17h4ae193f407c8ebebE>

00000001000023f0 <__ZN44_$LT$$RF$T$u20$as$u20$core..fmt..Display$GT$3fmt17h671428bd98c3310eE>:
1000023f0: e2 03 01 aa 	mov	x2, x1
1000023f4: 08 04 40 a9 	ldp	x8, x1, [x0]
1000023f8: e0 03 08 aa 	mov	x0, x8
1000023fc: 76 a8 00 14 	b	0x10002c5d4 <__ZN42_$LT$str$u20$as$u20$core..fmt..Display$GT$3fmt17haa2294d7267f7e90E>

0000000100002400 <__ZN4core3fmt3num50_$LT$impl$u20$core..fmt..Debug$u20$for$u20$i32$GT$3fmt17h1e06f941546a0558E>:
100002400: f4 4f be a9 	stp	x20, x19, [sp, #-32]!
100002404: fd 7b 01 a9 	stp	x29, x30, [sp, #16]
100002408: fd 43 00 91 	add	x29, sp, #16
10000240c: f3 03 01 aa 	mov	x19, x1
100002410: f4 03 00 aa 	mov	x20, x0
100002414: e0 03 01 aa 	mov	x0, x1
100002418: 60 a6 00 94 	bl	0x10002bd98 <__ZN4core3fmt9Formatter15debug_lower_hex17h048772b104e69e74E>
10000241c: c0 00 00 36 	tbz	w0, #0, 0x100002434 <__ZN4core3fmt3num50_$LT$impl$u20$core..fmt..Debug$u20$for$u20$i32$GT$3fmt17h1e06f941546a0558E+0x34>
100002420: e0 03 14 aa 	mov	x0, x20
100002424: e1 03 13 aa 	mov	x1, x19
100002428: fd 7b 41 a9 	ldp	x29, x30, [sp, #16]
10000242c: f4 4f c2 a8 	ldp	x20, x19, [sp], #32
100002430: a5 b1 00 14 	b	0x10002eac4 <__ZN4core3fmt3num53_$LT$impl$u20$core..fmt..LowerHex$u20$for$u20$i32$GT$3fmt17hd9de63ebcb3fc621E>
100002434: e0 03 13 aa 	mov	x0, x19
100002438: 5b a6 00 94 	bl	0x10002bda4 <__ZN4core3fmt9Formatter15debug_upper_hex17hca088ccaf9ff1030E>
10000243c: c0 00 00 36 	tbz	w0, #0, 0x100002454 <__ZN4core3fmt3num50_$LT$impl$u20$core..fmt..Debug$u20$for$u20$i32$GT$3fmt17h1e06f941546a0558E+0x54>
100002440: e0 03 14 aa 	mov	x0, x20
100002444: e1 03 13 aa 	mov	x1, x19
100002448: fd 7b 41 a9 	ldp	x29, x30, [sp, #16]
10000244c: f4 4f c2 a8 	ldp	x20, x19, [sp], #32
100002450: c5 b1 00 14 	b	0x10002eb64 <__ZN4core3fmt3num53_$LT$impl$u20$core..fmt..UpperHex$u20$for$u20$i32$GT$3fmt17hfd0c9e2a4819dce8E>
100002454: e0 03 14 aa 	mov	x0, x20
100002458: e1 03 13 aa 	mov	x1, x19
10000245c: fd 7b 41 a9 	ldp	x29, x30, [sp, #16]
100002460: f4 4f c2 a8 	ldp	x20, x19, [sp], #32
100002464: f2 b2 00 14 	b	0x10002f02c <__ZN4core3fmt3num3imp52_$LT$impl$u20$core..fmt..Display$u20$for$u20$i32$GT$3fmt17h5aa82da1f9a2d91eE>

0000000100002468 <__ZN4core3fmt5Write10write_char17h855b479caea4b42eE>:
100002468: ff 03 01 d1 	sub	sp, sp, #64
10000246c: f6 57 01 a9 	stp	x22, x21, [sp, #16]
100002470: f4 4f 02 a9 	stp	x20, x19, [sp, #32]
100002474: fd 7b 03 a9 	stp	x29, x30, [sp, #48]
100002478: fd c3 00 91 	add	x29, sp, #48
10000247c: ff 0f 00 b9 	str	wzr, [sp, #12]
100002480: 3f 00 02 71 	cmp	w1, #128
100002484: 82 00 00 54 	b.hs	0x100002494 <__ZN4core3fmt5Write10write_char17h855b479caea4b42eE+0x2c>
100002488: e1 33 00 39 	strb	w1, [sp, #12]
10000248c: 33 00 80 52 	mov	w19, #1
100002490: 25 00 00 14 	b	0x100002524 <__ZN4core3fmt5Write10write_char17h855b479caea4b42eE+0xbc>
100002494: 3f 00 20 71 	cmp	w1, #2048
100002498: 22 01 00 54 	b.hs	0x1000024bc <__ZN4core3fmt5Write10write_char17h855b479caea4b42eE+0x54>
10000249c: 28 7c 06 53 	lsr	w8, w1, #6
1000024a0: 08 05 1a 32 	orr	w8, w8, #0xc0
1000024a4: e8 33 00 39 	strb	w8, [sp, #12]
1000024a8: 08 10 80 52 	mov	w8, #128
1000024ac: 28 14 00 33 	bfxil	w8, w1, #0, #6
1000024b0: e8 37 00 39 	strb	w8, [sp, #13]
1000024b4: 53 00 80 52 	mov	w19, #2
1000024b8: 1b 00 00 14 	b	0x100002524 <__ZN4core3fmt5Write10write_char17h855b479caea4b42eE+0xbc>
1000024bc: 3f 40 40 71 	cmp	w1, #16, lsl #12        ; =65536
1000024c0: 82 01 00 54 	b.hs	0x1000024f0 <__ZN4core3fmt5Write10write_char17h855b479caea4b42eE+0x88>
1000024c4: 28 7c 0c 53 	lsr	w8, w1, #12
1000024c8: 08 09 1b 32 	orr	w8, w8, #0xe0
1000024cc: e8 33 00 39 	strb	w8, [sp, #12]
1000024d0: 08 10 80 52 	mov	w8, #128
1000024d4: 09 10 80 52 	mov	w9, #128
1000024d8: 29 2c 06 33 	bfxil	w9, w1, #6, #6
1000024dc: e9 37 00 39 	strb	w9, [sp, #13]
1000024e0: 28 14 00 33 	bfxil	w8, w1, #0, #6
1000024e4: e8 3b 00 39 	strb	w8, [sp, #14]
1000024e8: 73 00 80 52 	mov	w19, #3
1000024ec: 0e 00 00 14 	b	0x100002524 <__ZN4core3fmt5Write10write_char17h855b479caea4b42eE+0xbc>
1000024f0: 08 1e 80 52 	mov	w8, #240
1000024f4: 28 50 12 33 	bfxil	w8, w1, #18, #3
1000024f8: e8 33 00 39 	strb	w8, [sp, #12]
1000024fc: 08 10 80 52 	mov	w8, #128
100002500: 09 10 80 52 	mov	w9, #128
100002504: 29 44 0c 33 	bfxil	w9, w1, #12, #6
100002508: e9 37 00 39 	strb	w9, [sp, #13]
10000250c: 09 10 80 52 	mov	w9, #128
100002510: 29 2c 06 33 	bfxil	w9, w1, #6, #6
100002514: e9 3b 00 39 	strb	w9, [sp, #14]
100002518: 28 14 00 33 	bfxil	w8, w1, #0, #6
10000251c: e8 3f 00 39 	strb	w8, [sp, #15]
100002520: 93 00 80 52 	mov	w19, #4
100002524: 14 04 40 f9 	ldr	x20, [x0, #8]
100002528: 95 0a 40 f9 	ldr	x21, [x20, #16]
10000252c: 88 02 40 f9 	ldr	x8, [x20]
100002530: 08 01 15 cb 	sub	x8, x8, x21
100002534: 1f 01 13 eb 	cmp	x8, x19
100002538: c3 01 00 54 	b.lo	0x100002570 <__ZN4core3fmt5Write10write_char17h855b479caea4b42eE+0x108>
10000253c: 88 06 40 f9 	ldr	x8, [x20, #8]
100002540: 00 01 15 8b 	add	x0, x8, x21
100002544: e1 33 00 91 	add	x1, sp, #12
100002548: e2 03 13 aa 	mov	x2, x19
10000254c: 89 be 00 94 	bl	0x100031f70 <_writev+0x100031f70>
100002550: a8 02 13 8b 	add	x8, x21, x19
100002554: 88 0a 00 f9 	str	x8, [x20, #16]
100002558: 00 00 80 52 	mov	w0, #0
10000255c: fd 7b 43 a9 	ldp	x29, x30, [sp, #48]
100002560: f4 4f 42 a9 	ldp	x20, x19, [sp, #32]
100002564: f6 57 41 a9 	ldp	x22, x21, [sp, #16]
100002568: ff 03 01 91 	add	sp, sp, #64
10000256c: c0 03 5f d6 	ret
100002570: e0 03 14 aa 	mov	x0, x20
100002574: e1 03 15 aa 	mov	x1, x21
100002578: e2 03 13 aa 	mov	x2, x19
10000257c: 6a b9 00 94 	bl	0x100030b24 <__ZN5alloc7raw_vec19RawVec$LT$T$C$A$GT$7reserve21do_reserve_and_handle17hb07ee189e9de6e47E>
100002580: 95 0a 40 f9 	ldr	x21, [x20, #16]
100002584: ee ff ff 17 	b	0x10000253c <__ZN4core3fmt5Write10write_char17h855b479caea4b42eE+0xd4>

0000000100002588 <__ZN4core3fmt5Write10write_char17h86a87eacac04915fE>:
100002588: ff 83 00 d1 	sub	sp, sp, #32
10000258c: fd 7b 01 a9 	stp	x29, x30, [sp, #16]
100002590: fd 43 00 91 	add	x29, sp, #16
100002594: bf c3 1f b8 	stur	wzr, [x29, #-4]
100002598: 3f 00 02 71 	cmp	w1, #128
10000259c: 82 00 00 54 	b.hs	0x1000025ac <__ZN4core3fmt5Write10write_char17h86a87eacac04915fE+0x24>
1000025a0: a1 c3 1f 38 	sturb	w1, [x29, #-4]
1000025a4: 22 00 80 52 	mov	w2, #1
1000025a8: 25 00 00 14 	b	0x10000263c <__ZN4core3fmt5Write10write_char17h86a87eacac04915fE+0xb4>
1000025ac: 3f 00 20 71 	cmp	w1, #2048
1000025b0: 22 01 00 54 	b.hs	0x1000025d4 <__ZN4core3fmt5Write10write_char17h86a87eacac04915fE+0x4c>
1000025b4: 28 7c 06 53 	lsr	w8, w1, #6
1000025b8: 08 05 1a 32 	orr	w8, w8, #0xc0
1000025bc: a8 c3 1f 38 	sturb	w8, [x29, #-4]
1000025c0: 08 10 80 52 	mov	w8, #128
1000025c4: 28 14 00 33 	bfxil	w8, w1, #0, #6
1000025c8: a8 d3 1f 38 	sturb	w8, [x29, #-3]
1000025cc: 42 00 80 52 	mov	w2, #2
1000025d0: 1b 00 00 14 	b	0x10000263c <__ZN4core3fmt5Write10write_char17h86a87eacac04915fE+0xb4>
1000025d4: 3f 40 40 71 	cmp	w1, #16, lsl #12        ; =65536
1000025d8: 82 01 00 54 	b.hs	0x100002608 <__ZN4core3fmt5Write10write_char17h86a87eacac04915fE+0x80>
1000025dc: 28 7c 0c 53 	lsr	w8, w1, #12
1000025e0: 08 09 1b 32 	orr	w8, w8, #0xe0
1000025e4: a8 c3 1f 38 	sturb	w8, [x29, #-4]
1000025e8: 08 10 80 52 	mov	w8, #128
1000025ec: 09 10 80 52 	mov	w9, #128
1000025f0: 29 2c 06 33 	bfxil	w9, w1, #6, #6
1000025f4: a9 d3 1f 38 	sturb	w9, [x29, #-3]
1000025f8: 28 14 00 33 	bfxil	w8, w1, #0, #6
1000025fc: a8 e3 1f 38 	sturb	w8, [x29, #-2]
100002600: 62 00 80 52 	mov	w2, #3
100002604: 0e 00 00 14 	b	0x10000263c <__ZN4core3fmt5Write10write_char17h86a87eacac04915fE+0xb4>
100002608: 08 1e 80 52 	mov	w8, #240
10000260c: 28 50 12 33 	bfxil	w8, w1, #18, #3
100002610: a8 c3 1f 38 	sturb	w8, [x29, #-4]
100002614: 08 10 80 52 	mov	w8, #128
100002618: 09 10 80 52 	mov	w9, #128
10000261c: 29 44 0c 33 	bfxil	w9, w1, #12, #6
100002620: a9 d3 1f 38 	sturb	w9, [x29, #-3]
100002624: 09 10 80 52 	mov	w9, #128
100002628: 29 2c 06 33 	bfxil	w9, w1, #6, #6
10000262c: a9 e3 1f 38 	sturb	w9, [x29, #-2]
100002630: 28 14 00 33 	bfxil	w8, w1, #0, #6
100002634: a8 f3 1f 38 	sturb	w8, [x29, #-1]
100002638: 82 00 80 52 	mov	w2, #4
10000263c: a1 13 00 d1 	sub	x1, x29, #4
100002640: 0b 56 00 94 	bl	0x100017e6c <__ZN80_$LT$std..io..Write..write_fmt..Adapter$LT$T$GT$$u20$as$u20$core..fmt..Write$GT$9write_str17hd01c4300791cc948E>
100002644: fd 7b 41 a9 	ldp	x29, x30, [sp, #16]
100002648: ff 83 00 91 	add	sp, sp, #32
10000264c: c0 03 5f d6 	ret

0000000100002650 <__ZN4core3fmt5Write10write_char17hb20c3f2ffe0b1c0cE>:
100002650: ff 83 00 d1 	sub	sp, sp, #32
100002654: fd 7b 01 a9 	stp	x29, x30, [sp, #16]
100002658: fd 43 00 91 	add	x29, sp, #16
10000265c: bf c3 1f b8 	stur	wzr, [x29, #-4]
100002660: 3f 00 02 71 	cmp	w1, #128
100002664: 82 00 00 54 	b.hs	0x100002674 <__ZN4core3fmt5Write10write_char17hb20c3f2ffe0b1c0cE+0x24>
100002668: a1 c3 1f 38 	sturb	w1, [x29, #-4]
10000266c: 22 00 80 52 	mov	w2, #1
100002670: 25 00 00 14 	b	0x100002704 <__ZN4core3fmt5Write10write_char17hb20c3f2ffe0b1c0cE+0xb4>
100002674: 3f 00 20 71 	cmp	w1, #2048
100002678: 22 01 00 54 	b.hs	0x10000269c <__ZN4core3fmt5Write10write_char17hb20c3f2ffe0b1c0cE+0x4c>
10000267c: 28 7c 06 53 	lsr	w8, w1, #6
100002680: 08 05 1a 32 	orr	w8, w8, #0xc0
100002684: a8 c3 1f 38 	sturb	w8, [x29, #-4]
100002688: 08 10 80 52 	mov	w8, #128
10000268c: 28 14 00 33 	bfxil	w8, w1, #0, #6
100002690: a8 d3 1f 38 	sturb	w8, [x29, #-3]
100002694: 42 00 80 52 	mov	w2, #2
100002698: 1b 00 00 14 	b	0x100002704 <__ZN4core3fmt5Write10write_char17hb20c3f2ffe0b1c0cE+0xb4>
10000269c: 3f 40 40 71 	cmp	w1, #16, lsl #12        ; =65536
1000026a0: 82 01 00 54 	b.hs	0x1000026d0 <__ZN4core3fmt5Write10write_char17hb20c3f2ffe0b1c0cE+0x80>
1000026a4: 28 7c 0c 53 	lsr	w8, w1, #12
1000026a8: 08 09 1b 32 	orr	w8, w8, #0xe0
1000026ac: a8 c3 1f 38 	sturb	w8, [x29, #-4]
1000026b0: 08 10 80 52 	mov	w8, #128
1000026b4: 09 10 80 52 	mov	w9, #128
1000026b8: 29 2c 06 33 	bfxil	w9, w1, #6, #6
1000026bc: a9 d3 1f 38 	sturb	w9, [x29, #-3]
1000026c0: 28 14 00 33 	bfxil	w8, w1, #0, #6
1000026c4: a8 e3 1f 38 	sturb	w8, [x29, #-2]
1000026c8: 62 00 80 52 	mov	w2, #3
1000026cc: 0e 00 00 14 	b	0x100002704 <__ZN4core3fmt5Write10write_char17hb20c3f2ffe0b1c0cE+0xb4>
1000026d0: 08 1e 80 52 	mov	w8, #240
1000026d4: 28 50 12 33 	bfxil	w8, w1, #18, #3
1000026d8: a8 c3 1f 38 	sturb	w8, [x29, #-4]
1000026dc: 08 10 80 52 	mov	w8, #128
1000026e0: 09 10 80 52 	mov	w9, #128
1000026e4: 29 44 0c 33 	bfxil	w9, w1, #12, #6
1000026e8: a9 d3 1f 38 	sturb	w9, [x29, #-3]
1000026ec: 09 10 80 52 	mov	w9, #128
1000026f0: 29 2c 06 33 	bfxil	w9, w1, #6, #6
1000026f4: a9 e3 1f 38 	sturb	w9, [x29, #-2]
1000026f8: 28 14 00 33 	bfxil	w8, w1, #0, #6
1000026fc: a8 f3 1f 38 	sturb	w8, [x29, #-1]
100002700: 82 00 80 52 	mov	w2, #4
100002704: a1 13 00 d1 	sub	x1, x29, #4
100002708: aa 55 00 94 	bl	0x100017db0 <__ZN80_$LT$std..io..Write..write_fmt..Adapter$LT$T$GT$$u20$as$u20$core..fmt..Write$GT$9write_str17h86ae27ce2c3ce074E>
10000270c: fd 7b 41 a9 	ldp	x29, x30, [sp, #16]
100002710: ff 83 00 91 	add	sp, sp, #32
100002714: c0 03 5f d6 	ret

0000000100002718 <__ZN4core3fmt5Write9write_fmt17h3d52a050c044b917E>:
100002718: ff 43 01 d1 	sub	sp, sp, #80
10000271c: fd 7b 04 a9 	stp	x29, x30, [sp, #64]
100002720: fd 03 01 91 	add	x29, sp, #64
100002724: e0 07 00 f9 	str	x0, [sp, #8]
100002728: 20 04 40 ad 	ldp	q0, q1, [x1]
10000272c: e0 87 00 ad 	stp	q0, q1, [sp, #16]
100002730: 20 08 c0 3d 	ldr	q0, [x1, #32]
100002734: e0 0f 80 3d 	str	q0, [sp, #48]
100002738: 41 e0 1e 10 	adr	x1, #252936
10000273c: 1f 20 03 d5 	nop
100002740: e0 23 00 91 	add	x0, sp, #8
100002744: e2 43 00 91 	add	x2, sp, #16
100002748: a5 a2 00 94 	bl	0x10002b1dc <__ZN4core3fmt5write17hb60cc483d75d6594E>
10000274c: fd 7b 44 a9 	ldp	x29, x30, [sp, #64]
100002750: ff 43 01 91 	add	sp, sp, #80
100002754: c0 03 5f d6 	ret

0000000100002758 <__ZN4core3fmt5Write9write_fmt17h6470b7d681916d5fE>:
100002758: ff 43 01 d1 	sub	sp, sp, #80
10000275c: fd 7b 04 a9 	stp	x29, x30, [sp, #64]
100002760: fd 03 01 91 	add	x29, sp, #64
100002764: e0 07 00 f9 	str	x0, [sp, #8]
100002768: 20 04 40 ad 	ldp	q0, q1, [x1]
10000276c: e0 87 00 ad 	stp	q0, q1, [sp, #16]
100002770: 20 08 c0 3d 	ldr	q0, [x1, #32]
100002774: e0 0f 80 3d 	str	q0, [sp, #48]
100002778: c1 df 1e 10 	adr	x1, #252920
10000277c: 1f 20 03 d5 	nop
100002780: e0 23 00 91 	add	x0, sp, #8
100002784: e2 43 00 91 	add	x2, sp, #16
100002788: 95 a2 00 94 	bl	0x10002b1dc <__ZN4core3fmt5write17hb60cc483d75d6594E>
10000278c: fd 7b 44 a9 	ldp	x29, x30, [sp, #64]
100002790: ff 43 01 91 	add	sp, sp, #80
100002794: c0 03 5f d6 	ret

0000000100002798 <__ZN4core3fmt5Write9write_fmt17h78f64a3556c94471E>:
100002798: ff 43 01 d1 	sub	sp, sp, #80
10000279c: fd 7b 04 a9 	stp	x29, x30, [sp, #64]
1000027a0: fd 03 01 91 	add	x29, sp, #64
1000027a4: e0 07 00 f9 	str	x0, [sp, #8]
1000027a8: 20 04 40 ad 	ldp	q0, q1, [x1]
1000027ac: e0 87 00 ad 	stp	q0, q1, [sp, #16]
1000027b0: 20 08 c0 3d 	ldr	q0, [x1, #32]
1000027b4: e0 0f 80 3d 	str	q0, [sp, #48]
1000027b8: 41 df 1e 10 	adr	x1, #252904
1000027bc: 1f 20 03 d5 	nop
1000027c0: e0 23 00 91 	add	x0, sp, #8
1000027c4: e2 43 00 91 	add	x2, sp, #16
1000027c8: 85 a2 00 94 	bl	0x10002b1dc <__ZN4core3fmt5write17hb60cc483d75d6594E>
1000027cc: fd 7b 44 a9 	ldp	x29, x30, [sp, #64]
1000027d0: ff 43 01 91 	add	sp, sp, #80
1000027d4: c0 03 5f d6 	ret

00000001000027d8 <__ZN4core3ops8function6FnOnce40call_once$u7b$$u7b$vtable.shim$u7d$$u7d$17h00c5eef954ae8f63E>:
1000027d8: ff 03 01 d1 	sub	sp, sp, #64
1000027dc: f4 4f 02 a9 	stp	x20, x19, [sp, #32]
1000027e0: fd 7b 03 a9 	stp	x29, x30, [sp, #48]
1000027e4: fd c3 00 91 	add	x29, sp, #48
1000027e8: e8 03 01 aa 	mov	x8, x1
1000027ec: f3 03 00 aa 	mov	x19, x0
1000027f0: 40 00 c0 3d 	ldr	q0, [x2]
1000027f4: e0 03 80 3d 	str	q0, [sp]
1000027f8: 49 08 40 f9 	ldr	x9, [x2, #16]
1000027fc: e9 0b 00 f9 	str	x9, [sp, #16]
100002800: 09 04 40 f9 	ldr	x9, [x0, #8]
100002804: 3f 01 00 f1 	cmp	x9, #0
100002808: e3 03 80 9a 	csel	x3, xzr, x0, eq
10000280c: 02 60 40 39 	ldrb	w2, [x0, #24]
100002810: e1 03 00 91 	mov	x1, sp
100002814: e0 03 08 aa 	mov	x0, x8
100002818: d8 5d 00 94 	bl	0x100019f78 <__ZN3std10sys_common9backtrace15output_filename17h117eb3ebc33e4c30E>
10000281c: f4 03 00 aa 	mov	x20, x0
100002820: 60 06 40 f9 	ldr	x0, [x19, #8]
100002824: c0 00 00 b4 	cbz	x0, 0x10000283c <__ZN4core3ops8function6FnOnce40call_once$u7b$$u7b$vtable.shim$u7d$$u7d$17h00c5eef954ae8f63E+0x64>
100002828: 61 02 40 f9 	ldr	x1, [x19]
10000282c: 81 00 00 b4 	cbz	x1, 0x10000283c <__ZN4core3ops8function6FnOnce40call_once$u7b$$u7b$vtable.shim$u7d$$u7d$17h00c5eef954ae8f63E+0x64>
100002830: e8 03 21 aa 	mvn	x8, x1
100002834: 02 fd 7f d3 	lsr	x2, x8, #63
100002838: 8a fe ff 97 	bl	0x100002260 <___rust_dealloc>
10000283c: e0 03 14 aa 	mov	x0, x20
100002840: fd 7b 43 a9 	ldp	x29, x30, [sp, #48]
100002844: f4 4f 42 a9 	ldp	x20, x19, [sp, #32]
100002848: ff 03 01 91 	add	sp, sp, #64
10000284c: c0 03 5f d6 	ret
100002850: f4 03 00 aa 	mov	x20, x0
100002854: e0 03 13 aa 	mov	x0, x19
100002858: d6 04 00 94 	bl	0x100003bb0 <__ZN4core3ptr70drop_in_place$LT$std..panicking..begin_panic_handler..PanicPayload$GT$17h4b113c6d6ee868f1E>
10000285c: e0 03 14 aa 	mov	x0, x20
100002860: 7c bd 00 94 	bl	0x100031e50 <_writev+0x100031e50>

0000000100002864 <__ZN4core3ops8function6FnOnce40call_once$u7b$$u7b$vtable.shim$u7d$$u7d$17h0a441ce7f5e37da8E>:
100002864: f2 5c 00 14 	b	0x100019c2c <__ZN3std10sys_common9backtrace10_print_fmt28_$u7b$$u7b$closure$u7d$$u7d$17h16758f4101e8e09dE>

0000000100002868 <__ZN4core3ops8function6FnOnce40call_once$u7b$$u7b$vtable.shim$u7d$$u7d$17h0f0a8b0a19dc2c9cE>:
100002868: ff 83 00 d1 	sub	sp, sp, #32
10000286c: fd 7b 01 a9 	stp	x29, x30, [sp, #16]
100002870: fd 43 00 91 	add	x29, sp, #16
100002874: 08 00 40 f9 	ldr	x8, [x0]
100002878: e8 07 00 f9 	str	x8, [sp, #8]
10000287c: e0 23 00 91 	add	x0, sp, #8
100002880: 3e 5b 00 94 	bl	0x100019578 <__ZN3std4sync4once4Once9call_once28_$u7b$$u7b$closure$u7d$$u7d$17h5785afd0fe508279E>
100002884: fd 7b 41 a9 	ldp	x29, x30, [sp, #16]
100002888: ff 83 00 91 	add	sp, sp, #32
10000288c: c0 03 5f d6 	ret

0000000100002890 <__ZN4core3ops8function6FnOnce40call_once$u7b$$u7b$vtable.shim$u7d$$u7d$17h1a34837a3e3573e2E>:
100002890: f4 4f be a9 	stp	x20, x19, [sp, #-32]!
100002894: fd 7b 01 a9 	stp	x29, x30, [sp, #16]
100002898: fd 43 00 91 	add	x29, sp, #16
10000289c: 08 00 40 f9 	ldr	x8, [x0]
1000028a0: 13 01 40 f9 	ldr	x19, [x8]
1000028a4: 1f 01 00 f9 	str	xzr, [x8]
1000028a8: d3 01 00 b4 	cbz	x19, 0x1000028e0 <__ZN4core3ops8function6FnOnce40call_once$u7b$$u7b$vtable.shim$u7d$$u7d$17h1a34837a3e3573e2E+0x50>
1000028ac: 00 80 80 52 	mov	w0, #1024
1000028b0: 21 00 80 52 	mov	w1, #1
1000028b4: 6a fe ff 97 	bl	0x10000225c <___rust_alloc>
1000028b8: 00 02 00 b4 	cbz	x0, 0x1000028f8 <__ZN4core3ops8function6FnOnce40call_once$u7b$$u7b$vtable.shim$u7d$$u7d$17h1a34837a3e3573e2E+0x68>
1000028bc: 7f 7e 00 a9 	stp	xzr, xzr, [x19]
1000028c0: 08 80 80 52 	mov	w8, #1024
1000028c4: 7f 22 01 a9 	stp	xzr, x8, [x19, #16]
1000028c8: 60 7e 02 a9 	stp	x0, xzr, [x19, #32]
1000028cc: 7f c2 00 39 	strb	wzr, [x19, #48]
1000028d0: 7f 3a 00 b9 	str	wzr, [x19, #56]
1000028d4: fd 7b 41 a9 	ldp	x29, x30, [sp, #16]
1000028d8: f4 4f c2 a8 	ldp	x20, x19, [sp], #32
1000028dc: c0 03 5f d6 	ret
1000028e0: 20 76 18 30 	adr	x0, #200389
1000028e4: 1f 20 03 d5 	nop
1000028e8: 82 27 1f 10 	adr	x2, #255216
1000028ec: 1f 20 03 d5 	nop
1000028f0: 61 05 80 52 	mov	w1, #43
1000028f4: 86 bc 00 94 	bl	0x100031b0c <__ZN4core9panicking5panic17h38074b3ed47cd9d2E>
1000028f8: 00 80 80 52 	mov	w0, #1024
1000028fc: 21 00 80 52 	mov	w1, #1
100002900: 62 bc 00 94 	bl	0x100031a88 <__ZN5alloc5alloc18handle_alloc_error17h98ae248b28eb0c8fE>

0000000100002904 <__ZN4core3ops8function6FnOnce40call_once$u7b$$u7b$vtable.shim$u7d$$u7d$17h32e9d8dbe30eaa05E>:
100002904: 08 00 40 f9 	ldr	x8, [x0]
100002908: 00 01 40 f9 	ldr	x0, [x8]
10000290c: 3c bd 00 14 	b	0x100031dfc <_writev+0x100031dfc>

0000000100002910 <__ZN4core3ops8function6FnOnce40call_once$u7b$$u7b$vtable.shim$u7d$$u7d$17h6a88ee07ba99fe17E>:
100002910: 08 00 40 f9 	ldr	x8, [x0]
100002914: 00 01 40 f9 	ldr	x0, [x8]
100002918: 48 bd 00 14 	b	0x100031e38 <_writev+0x100031e38>

000000010000291c <__ZN4core3ops8function6FnOnce40call_once$u7b$$u7b$vtable.shim$u7d$$u7d$17h8c6ee7d018b498feE>:
10000291c: 11 5d 00 14 	b	0x100019d60 <__ZN3std10sys_common9backtrace10_print_fmt28_$u7b$$u7b$closure$u7d$$u7d$28_$u7b$$u7b$closure$u7d$$u7d$17ha4249512b2e2ab3dE>

0000000100002920 <__ZN4core3ops8function6FnOnce40call_once$u7b$$u7b$vtable.shim$u7d$$u7d$17hb6569cc10b7989f5E>:
100002920: fd 7b bf a9 	stp	x29, x30, [sp, #-16]!
100002924: fd 03 00 91 	mov	x29, sp
100002928: 0a 00 40 f9 	ldr	x10, [x0]
10000292c: 49 21 40 a9 	ldp	x9, x8, [x10]
100002930: 5f 01 00 f9 	str	xzr, [x10]
100002934: 49 01 00 b4 	cbz	x9, 0x10000295c <__ZN4core3ops8function6FnOnce40call_once$u7b$$u7b$vtable.shim$u7d$$u7d$17hb6569cc10b7989f5E+0x3c>
100002938: 2a 00 80 52 	mov	w10, #1
10000293c: 2a 01 00 39 	strb	w10, [x9]
100002940: 00 e4 00 6f 	movi.2d	v0, #0000000000000000
100002944: 00 01 00 ad 	stp	q0, q0, [x8]
100002948: 0a 7d 02 a9 	stp	x10, xzr, [x8, #32]
10000294c: 1f c1 00 39 	strb	wzr, [x8, #48]
100002950: 1f 39 00 b9 	str	wzr, [x8, #56]
100002954: fd 7b c1 a8 	ldp	x29, x30, [sp], #16
100002958: c0 03 5f d6 	ret
10000295c: 40 72 18 30 	adr	x0, #200265
100002960: 1f 20 03 d5 	nop
100002964: a2 23 1f 10 	adr	x2, #255092
100002968: 1f 20 03 d5 	nop
10000296c: 61 05 80 52 	mov	w1, #43
100002970: 67 bc 00 94 	bl	0x100031b0c <__ZN4core9panicking5panic17h38074b3ed47cd9d2E>

0000000100002974 <__ZN4core3ops8function6FnOnce9call_once17h891bbb930d00ea88E>:
100002974: fd 7b bf a9 	stp	x29, x30, [sp, #-16]!
100002978: fd 03 00 91 	mov	x29, sp
10000297c: 3a 4c 00 94 	bl	0x100015a64 <__ZN3std2rt19lang_start_internal28_$u7b$$u7b$closure$u7d$$u7d$17hfc42a4f52c0be3a7E>

0000000100002980 <__ZN4core3ptr100drop_in_place$LT$$RF$mut$u20$std..io..Write..write_fmt..Adapter$LT$alloc..vec..Vec$LT$u8$GT$$GT$$GT$17h58eb58a8efc8b7fbE>:
100002980: c0 03 5f d6 	ret

0000000100002984 <__ZN4core3ptr101drop_in_place$LT$alloc..sync..Arc$LT$std..sync..mutex..Mutex$LT$alloc..vec..Vec$LT$u8$GT$$GT$$GT$$GT$17ha2bc0a0f248530caE>:
100002984: 08 00 40 f9 	ldr	x8, [x0]
100002988: 09 00 80 92 	mov	x9, #-1
10000298c: 08 01 69 f8 	<unknown>
100002990: 1f 05 00 f1 	cmp	x8, #1
100002994: 81 00 00 54 	b.ne	0x1000029a4 <__ZN4core3ptr101drop_in_place$LT$alloc..sync..Arc$LT$std..sync..mutex..Mutex$LT$alloc..vec..Vec$LT$u8$GT$$GT$$GT$$GT$17ha2bc0a0f248530caE+0x20>
100002998: bf 39 03 d5 	dmb	ishld
10000299c: 00 00 40 f9 	ldr	x0, [x0]
1000029a0: dc 11 00 14 	b	0x100007110 <__ZN5alloc4sync12Arc$LT$T$GT$9drop_slow17h9a0ebd199faea9e7E>
1000029a4: c0 03 5f d6 	ret

00000001000029a8 <__ZN4core3ptr1021drop_in_place$LT$core..slice..sort..merge_sort..RunVec$LT$alloc..slice..stable_sort$LT$$LP$gimli..common..DebugInfoOffset$C$gimli..common..DebugArangesOffset$RP$$C$alloc..slice..$LT$impl$u20$$u5b$$LP$gimli..common..DebugInfoOffset$C$gimli..common..DebugArangesOffset$RP$$u5d$$GT$..sort_by_key$LT$gimli..common..DebugInfoOffset$C$addr2line..ResDwarf$LT$gimli..read..endian_slice..EndianSlice$LT$gimli..endianity..LittleEndian$GT$$GT$..parse..$u7b$$u7b$closure$u7d$$u7d$$GT$..$u7b$$u7b$closure$u7d$$u7d$$GT$..$u7b$$u7b$closure$u7d$$u7d$$C$alloc..slice..stable_sort$LT$$LP$gimli..common..DebugInfoOffset$C$gimli..common..DebugArangesOffset$RP$$C$alloc..slice..$LT$impl$u20$$u5b$$LP$gimli..common..DebugInfoOffset$C$gimli..common..DebugArangesOffset$RP$$u5d$$GT$..sort_by_key$LT$gimli..common..DebugInfoOffset$C$addr2line..ResDwarf$LT$gimli..read..endian_slice..EndianSlice$LT$gimli..endianity..LittleEndian$GT$$GT$..parse..$u7b$$u7b$closure$u7d$$u7d$$GT$..$u7b$$u7b$closure$u7d$$u7d$$GT$..$u7b$$u7b$closure$u7d$$u7d$$GT$$GT$17h9c7481488028fe79E>:
1000029a8: 21 ec 7c d3 	lsl	x1, x1, #4
1000029ac: 02 01 80 52 	mov	w2, #8
1000029b0: 2c fe ff 17 	b	0x100002260 <___rust_dealloc>

00000001000029b4 <__ZN4core3ptr104drop_in_place$LT$alloc..vec..Vec$LT$$LP$usize$C$std..backtrace_rs..symbolize..gimli..Mapping$RP$$GT$$GT$17h278070efacc12b9aE>:
1000029b4: f8 5f bc a9 	stp	x24, x23, [sp, #-64]!
1000029b8: f6 57 01 a9 	stp	x22, x21, [sp, #16]
1000029bc: f4 4f 02 a9 	stp	x20, x19, [sp, #32]
1000029c0: fd 7b 03 a9 	stp	x29, x30, [sp, #48]
1000029c4: fd c3 00 91 	add	x29, sp, #48
1000029c8: f3 03 00 aa 	mov	x19, x0
1000029cc: 08 a4 40 a9 	ldp	x8, x9, [x0, #8]
1000029d0: 29 15 09 8b 	add	x9, x9, x9, lsl #5
1000029d4: 35 f1 7d d3 	lsl	x21, x9, #3
1000029d8: 16 01 15 8b 	add	x22, x8, x21
1000029dc: f5 00 00 b4 	cbz	x21, 0x1000029f8 <__ZN4core3ptr104drop_in_place$LT$alloc..vec..Vec$LT$$LP$usize$C$std..backtrace_rs..symbolize..gimli..Mapping$RP$$GT$$GT$17h278070efacc12b9aE+0x44>
1000029e0: 14 21 04 91 	add	x20, x8, #264
1000029e4: 00 21 00 91 	add	x0, x8, #8
1000029e8: b5 22 04 d1 	sub	x21, x21, #264
1000029ec: e0 03 00 94 	bl	0x10000396c <__ZN4core3ptr65drop_in_place$LT$std..backtrace_rs..symbolize..gimli..Mapping$GT$17h801bb9d24b81c098E>
1000029f0: e8 03 14 aa 	mov	x8, x20
1000029f4: fa ff ff 17 	b	0x1000029dc <__ZN4core3ptr104drop_in_place$LT$alloc..vec..Vec$LT$$LP$usize$C$std..backtrace_rs..symbolize..gimli..Mapping$RP$$GT$$GT$17h278070efacc12b9aE+0x28>
1000029f8: 68 02 40 f9 	ldr	x8, [x19]
1000029fc: 48 01 00 b4 	cbz	x8, 0x100002a24 <__ZN4core3ptr104drop_in_place$LT$alloc..vec..Vec$LT$$LP$usize$C$std..backtrace_rs..symbolize..gimli..Mapping$RP$$GT$$GT$17h278070efacc12b9aE+0x70>
100002a00: 60 06 40 f9 	ldr	x0, [x19, #8]
100002a04: 08 15 08 8b 	add	x8, x8, x8, lsl #5
100002a08: 01 f1 7d d3 	lsl	x1, x8, #3
100002a0c: 02 01 80 52 	mov	w2, #8
100002a10: fd 7b 43 a9 	ldp	x29, x30, [sp, #48]
100002a14: f4 4f 42 a9 	ldp	x20, x19, [sp, #32]
100002a18: f6 57 41 a9 	ldp	x22, x21, [sp, #16]
100002a1c: f8 5f c4 a8 	ldp	x24, x23, [sp], #64
100002a20: 10 fe ff 17 	b	0x100002260 <___rust_dealloc>
100002a24: fd 7b 43 a9 	ldp	x29, x30, [sp, #48]
100002a28: f4 4f 42 a9 	ldp	x20, x19, [sp, #32]
100002a2c: f6 57 41 a9 	ldp	x22, x21, [sp, #16]
100002a30: f8 5f c4 a8 	ldp	x24, x23, [sp], #64
100002a34: c0 03 5f d6 	ret
100002a38: f5 03 00 aa 	mov	x21, x0
100002a3c: 9f 02 16 eb 	cmp	x20, x22
100002a40: c0 00 00 54 	b.eq	0x100002a58 <__ZN4core3ptr104drop_in_place$LT$alloc..vec..Vec$LT$$LP$usize$C$std..backtrace_rs..symbolize..gimli..Mapping$RP$$GT$$GT$17h278070efacc12b9aE+0xa4>
100002a44: 97 22 04 91 	add	x23, x20, #264
100002a48: e0 03 14 aa 	mov	x0, x20
100002a4c: 04 05 00 94 	bl	0x100003e5c <__ZN4core3ptr81drop_in_place$LT$$LP$usize$C$std..backtrace_rs..symbolize..gimli..Mapping$RP$$GT$17h56272506c2ed62fcE>
100002a50: f4 03 17 aa 	mov	x20, x23
100002a54: fa ff ff 17 	b	0x100002a3c <__ZN4core3ptr104drop_in_place$LT$alloc..vec..Vec$LT$$LP$usize$C$std..backtrace_rs..symbolize..gimli..Mapping$RP$$GT$$GT$17h278070efacc12b9aE+0x88>
100002a58: 60 06 40 a9 	ldp	x0, x1, [x19]
100002a5c: 1d 00 00 94 	bl	0x100002ad0 <__ZN4core3ptr111drop_in_place$LT$alloc..raw_vec..RawVec$LT$$LP$usize$C$std..backtrace_rs..symbolize..gimli..Mapping$RP$$GT$$GT$17h202516a9c412479bE>
100002a60: e0 03 15 aa 	mov	x0, x21
100002a64: fb bc 00 94 	bl	0x100031e50 <_writev+0x100031e50>
100002a68: 5a bc 00 94 	bl	0x100031bd0 <__ZN4core9panicking19panic_cannot_unwind17h7ea28f7e8ef3b392E>

0000000100002a6c <__ZN4core3ptr105drop_in_place$LT$core..result..Result$LT$alloc..ffi..c_str..CString$C$alloc..ffi..c_str..NulError$GT$$GT$17h85368095b041f1e5E>:
100002a6c: 08 08 40 f9 	ldr	x8, [x0, #16]
100002a70: e8 00 00 b4 	cbz	x8, 0x100002a8c <__ZN4core3ptr105drop_in_place$LT$core..result..Result$LT$alloc..ffi..c_str..CString$C$alloc..ffi..c_str..NulError$GT$$GT$17h85368095b041f1e5E+0x20>
100002a74: 01 04 40 f9 	ldr	x1, [x0, #8]
100002a78: 81 01 00 b4 	cbz	x1, 0x100002aa8 <__ZN4core3ptr105drop_in_place$LT$core..result..Result$LT$alloc..ffi..c_str..CString$C$alloc..ffi..c_str..NulError$GT$$GT$17h85368095b041f1e5E+0x3c>
100002a7c: e9 03 21 aa 	mvn	x9, x1
100002a80: 22 fd 7f d3 	lsr	x2, x9, #63
100002a84: e0 03 08 aa 	mov	x0, x8
100002a88: f6 fd ff 17 	b	0x100002260 <___rust_dealloc>
100002a8c: 08 00 40 f9 	ldr	x8, [x0]
100002a90: 1f 01 00 39 	strb	wzr, [x8]
100002a94: 01 04 40 f9 	ldr	x1, [x0, #8]
100002a98: 81 00 00 b4 	cbz	x1, 0x100002aa8 <__ZN4core3ptr105drop_in_place$LT$core..result..Result$LT$alloc..ffi..c_str..CString$C$alloc..ffi..c_str..NulError$GT$$GT$17h85368095b041f1e5E+0x3c>
100002a9c: 00 00 40 f9 	ldr	x0, [x0]
100002aa0: 22 00 80 52 	mov	w2, #1
100002aa4: ef fd ff 17 	b	0x100002260 <___rust_dealloc>
100002aa8: c0 03 5f d6 	ret

0000000100002aac <__ZN4core3ptr107drop_in_place$LT$alloc..sync..Arc$LT$core..mem..maybe_uninit..MaybeUninit$LT$std..thread..Inner$GT$$GT$$GT$17hbd0be1b968562c35E>:
100002aac: 08 00 40 f9 	ldr	x8, [x0]
100002ab0: 09 00 80 92 	mov	x9, #-1
100002ab4: 08 01 69 f8 	<unknown>
100002ab8: 1f 05 00 f1 	cmp	x8, #1
100002abc: 81 00 00 54 	b.ne	0x100002acc <__ZN4core3ptr107drop_in_place$LT$alloc..sync..Arc$LT$core..mem..maybe_uninit..MaybeUninit$LT$std..thread..Inner$GT$$GT$$GT$17hbd0be1b968562c35E+0x20>
100002ac0: bf 39 03 d5 	dmb	ishld
100002ac4: 00 00 40 f9 	ldr	x0, [x0]
100002ac8: bd 11 00 14 	b	0x1000071bc <__ZN5alloc4sync12Arc$LT$T$GT$9drop_slow17hbb5e13a52ef41baaE>
100002acc: c0 03 5f d6 	ret

0000000100002ad0 <__ZN4core3ptr111drop_in_place$LT$alloc..raw_vec..RawVec$LT$$LP$usize$C$std..backtrace_rs..symbolize..gimli..Mapping$RP$$GT$$GT$17h202516a9c412479bE>:
100002ad0: e0 00 00 b4 	cbz	x0, 0x100002aec <__ZN4core3ptr111drop_in_place$LT$alloc..raw_vec..RawVec$LT$$LP$usize$C$std..backtrace_rs..symbolize..gimli..Mapping$RP$$GT$$GT$17h202516a9c412479bE+0x1c>
100002ad4: 08 14 00 8b 	add	x8, x0, x0, lsl #5
100002ad8: 08 f1 7d d3 	lsl	x8, x8, #3
100002adc: e0 03 01 aa 	mov	x0, x1
100002ae0: e1 03 08 aa 	mov	x1, x8
100002ae4: 02 01 80 52 	mov	w2, #8
100002ae8: de fd ff 17 	b	0x100002260 <___rust_dealloc>
100002aec: c0 03 5f d6 	ret

0000000100002af0 <__ZN4core3ptr115drop_in_place$LT$core..cell..RefMut$LT$core..option..Option$LT$std..sys_common..thread_info..ThreadInfo$GT$$GT$$GT$17h69becf8c0c523aefE>:
100002af0: 08 00 40 f9 	ldr	x8, [x0]
100002af4: 08 05 00 91 	add	x8, x8, #1
100002af8: 08 00 00 f9 	str	x8, [x0]
100002afc: c0 03 5f d6 	ret

0000000100002b00 <__ZN4core3ptr118drop_in_place$LT$alloc..vec..Vec$LT$$LP$gimli..common..DebugInfoOffset$C$gimli..common..DebugArangesOffset$RP$$GT$$GT$17h7a6978c0ac347e43E>:
100002b00: c0 00 00 b4 	cbz	x0, 0x100002b18 <__ZN4core3ptr118drop_in_place$LT$alloc..vec..Vec$LT$$LP$gimli..common..DebugInfoOffset$C$gimli..common..DebugArangesOffset$RP$$GT$$GT$17h7a6978c0ac347e43E+0x18>
100002b04: 08 ec 7c d3 	lsl	x8, x0, #4
100002b08: e0 03 01 aa 	mov	x0, x1
100002b0c: e1 03 08 aa 	mov	x1, x8
100002b10: 02 01 80 52 	mov	w2, #8
100002b14: d3 fd ff 17 	b	0x100002260 <___rust_dealloc>
100002b18: c0 03 5f d6 	ret

0000000100002b1c <__ZN4core3ptr119drop_in_place$LT$addr2line..lazy..LazyCell$LT$core..result..Result$LT$addr2line..Lines$C$gimli..read..Error$GT$$GT$$GT$17h229c6904c7ce7e72E>:
100002b1c: 08 00 40 f9 	ldr	x8, [x0]
100002b20: 68 00 00 b4 	cbz	x8, 0x100002b2c <__ZN4core3ptr119drop_in_place$LT$addr2line..lazy..LazyCell$LT$core..result..Result$LT$addr2line..Lines$C$gimli..read..Error$GT$$GT$$GT$17h229c6904c7ce7e72E+0x10>
100002b24: 00 20 00 91 	add	x0, x0, #8
100002b28: 20 05 00 14 	b	0x100003fa8 <__ZN4core3ptr86drop_in_place$LT$core..result..Result$LT$addr2line..Lines$C$gimli..read..Error$GT$$GT$17heaefc384a2b1b00cE>
100002b2c: c0 03 5f d6 	ret

0000000100002b30 <__ZN4core3ptr121drop_in_place$LT$core..option..Option$LT$core..option..Option$LT$std..backtrace_rs..symbolize..gimli..Mapping$GT$$GT$$GT$17he6a3b1bc1df99055E>:
100002b30: 08 e0 41 39 	ldrb	w8, [x0, #120]
100002b34: 1f 09 00 71 	cmp	w8, #2
100002b38: 42 00 00 54 	b.hs	0x100002b40 <__ZN4core3ptr121drop_in_place$LT$core..option..Option$LT$core..option..Option$LT$std..backtrace_rs..symbolize..gimli..Mapping$GT$$GT$$GT$17he6a3b1bc1df99055E+0x10>
100002b3c: 8c 03 00 14 	b	0x10000396c <__ZN4core3ptr65drop_in_place$LT$std..backtrace_rs..symbolize..gimli..Mapping$GT$17h801bb9d24b81c098E>
100002b40: c0 03 5f d6 	ret

0000000100002b44 <__ZN4core3ptr123drop_in_place$LT$addr2line..ResUnit$LT$gimli..read..endian_slice..EndianSlice$LT$gimli..endianity..LittleEndian$GT$$GT$$GT$17h3f07d2313a5d38cdE>:
100002b44: f4 4f be a9 	stp	x20, x19, [sp, #-32]!
100002b48: fd 7b 01 a9 	stp	x29, x30, [sp, #16]
100002b4c: fd 43 00 91 	add	x29, sp, #16
100002b50: f3 03 00 aa 	mov	x19, x0
100002b54: 00 80 00 91 	add	x0, x0, #32
100002b58: 04 03 00 94 	bl	0x100003768 <__ZN4core3ptr55drop_in_place$LT$gimli..read..abbrev..Abbreviations$GT$17he434014350d490f3E>
100002b5c: 60 62 03 91 	add	x0, x19, #216
100002b60: 4e 01 00 94 	bl	0x100003098 <__ZN4core3ptr181drop_in_place$LT$core..option..Option$LT$gimli..read..line..IncompleteLineProgram$LT$gimli..read..endian_slice..EndianSlice$LT$gimli..endianity..LittleEndian$GT$$C$usize$GT$$GT$$GT$17h48ea6ccfffe3a6c8E>
100002b64: 68 ee 40 f9 	ldr	x8, [x19, #472]
100002b68: 68 00 00 b4 	cbz	x8, 0x100002b74 <__ZN4core3ptr123drop_in_place$LT$addr2line..ResUnit$LT$gimli..read..endian_slice..EndianSlice$LT$gimli..endianity..LittleEndian$GT$$GT$$GT$17h3f07d2313a5d38cdE+0x30>
100002b6c: 60 82 07 91 	add	x0, x19, #480
100002b70: 0e 05 00 94 	bl	0x100003fa8 <__ZN4core3ptr86drop_in_place$LT$core..result..Result$LT$addr2line..Lines$C$gimli..read..Error$GT$$GT$17heaefc384a2b1b00cE>
100002b74: 68 02 41 f9 	ldr	x8, [x19, #512]
100002b78: a8 00 00 b4 	cbz	x8, 0x100002b8c <__ZN4core3ptr123drop_in_place$LT$addr2line..ResUnit$LT$gimli..read..endian_slice..EndianSlice$LT$gimli..endianity..LittleEndian$GT$$GT$$GT$17h3f07d2313a5d38cdE+0x48>
100002b7c: 60 22 08 91 	add	x0, x19, #520
100002b80: fd 7b 41 a9 	ldp	x29, x30, [sp, #16]
100002b84: f4 4f c2 a8 	ldp	x20, x19, [sp], #32
100002b88: 69 01 00 14 	b	0x10000312c <__ZN4core3ptr184drop_in_place$LT$core..result..Result$LT$addr2line..function..Functions$LT$gimli..read..endian_slice..EndianSlice$LT$gimli..endianity..LittleEndian$GT$$GT$$C$gimli..read..Error$GT$$GT$17hf5271cb2c734dee0E>
100002b8c: fd 7b 41 a9 	ldp	x29, x30, [sp, #16]
100002b90: f4 4f c2 a8 	ldp	x20, x19, [sp], #32
100002b94: c0 03 5f d6 	ret
100002b98: f4 03 00 aa 	mov	x20, x0
100002b9c: 60 62 03 91 	add	x0, x19, #216
100002ba0: 3e 01 00 94 	bl	0x100003098 <__ZN4core3ptr181drop_in_place$LT$core..option..Option$LT$gimli..read..line..IncompleteLineProgram$LT$gimli..read..endian_slice..EndianSlice$LT$gimli..endianity..LittleEndian$GT$$C$usize$GT$$GT$$GT$17h48ea6ccfffe3a6c8E>
100002ba4: 60 62 07 91 	add	x0, x19, #472
100002ba8: dd ff ff 97 	bl	0x100002b1c <__ZN4core3ptr119drop_in_place$LT$addr2line..lazy..LazyCell$LT$core..result..Result$LT$addr2line..Lines$C$gimli..read..Error$GT$$GT$$GT$17h229c6904c7ce7e72E>
100002bac: 60 02 08 91 	add	x0, x19, #512
100002bb0: 9c 01 00 94 	bl	0x100003220 <__ZN4core3ptr217drop_in_place$LT$addr2line..lazy..LazyCell$LT$core..result..Result$LT$addr2line..function..Functions$LT$gimli..read..endian_slice..EndianSlice$LT$gimli..endianity..LittleEndian$GT$$GT$$C$gimli..read..Error$GT$$GT$$GT$17h0e99d73196c0a622E>
100002bb4: e0 03 14 aa 	mov	x0, x20
100002bb8: a6 bc 00 94 	bl	0x100031e50 <_writev+0x100031e50>

0000000100002bbc <__ZN4core3ptr124drop_in_place$LT$addr2line..ResDwarf$LT$gimli..read..endian_slice..EndianSlice$LT$gimli..endianity..LittleEndian$GT$$GT$$GT$17h50040a4bedf94081E>:
100002bbc: f8 5f bc a9 	stp	x24, x23, [sp, #-64]!
100002bc0: f6 57 01 a9 	stp	x22, x21, [sp, #16]
100002bc4: f4 4f 02 a9 	stp	x20, x19, [sp, #32]
100002bc8: fd 7b 03 a9 	stp	x29, x30, [sp, #48]
100002bcc: fd c3 00 91 	add	x29, sp, #48
100002bd0: f3 03 00 aa 	mov	x19, x0
100002bd4: 08 04 40 f9 	ldr	x8, [x0, #8]
100002bd8: a8 00 00 b4 	cbz	x8, 0x100002bec <__ZN4core3ptr124drop_in_place$LT$addr2line..ResDwarf$LT$gimli..read..endian_slice..EndianSlice$LT$gimli..endianity..LittleEndian$GT$$GT$$GT$17h50040a4bedf94081E+0x30>
100002bdc: 60 0a 40 f9 	ldr	x0, [x19, #16]
100002be0: 01 e9 7b d3 	lsl	x1, x8, #5
100002be4: 02 01 80 52 	mov	w2, #8
100002be8: 9e fd ff 97 	bl	0x100002260 <___rust_dealloc>
100002bec: 60 a2 42 a9 	ldp	x0, x8, [x19, #40]
100002bf0: 09 46 80 52 	mov	w9, #560
100002bf4: 14 7d 09 9b 	mul	x20, x8, x9
100002bf8: 16 00 14 8b 	add	x22, x0, x20
100002bfc: d4 00 00 b4 	cbz	x20, 0x100002c14 <__ZN4core3ptr124drop_in_place$LT$addr2line..ResDwarf$LT$gimli..read..endian_slice..EndianSlice$LT$gimli..endianity..LittleEndian$GT$$GT$$GT$17h50040a4bedf94081E+0x58>
100002c00: 15 c0 08 91 	add	x21, x0, #560
100002c04: 94 c2 08 d1 	sub	x20, x20, #560
100002c08: cf ff ff 97 	bl	0x100002b44 <__ZN4core3ptr123drop_in_place$LT$addr2line..ResUnit$LT$gimli..read..endian_slice..EndianSlice$LT$gimli..endianity..LittleEndian$GT$$GT$$GT$17h3f07d2313a5d38cdE>
100002c0c: e0 03 15 aa 	mov	x0, x21
100002c10: fb ff ff 17 	b	0x100002bfc <__ZN4core3ptr124drop_in_place$LT$addr2line..ResDwarf$LT$gimli..read..endian_slice..EndianSlice$LT$gimli..endianity..LittleEndian$GT$$GT$$GT$17h50040a4bedf94081E+0x40>
100002c14: 68 12 40 f9 	ldr	x8, [x19, #32]
100002c18: c8 00 00 b4 	cbz	x8, 0x100002c30 <__ZN4core3ptr124drop_in_place$LT$addr2line..ResDwarf$LT$gimli..read..endian_slice..EndianSlice$LT$gimli..endianity..LittleEndian$GT$$GT$$GT$17h50040a4bedf94081E+0x74>
100002c1c: 60 16 40 f9 	ldr	x0, [x19, #40]
100002c20: 09 46 80 52 	mov	w9, #560
100002c24: 01 7d 09 9b 	mul	x1, x8, x9
100002c28: 02 01 80 52 	mov	w2, #8
100002c2c: 8d fd ff 97 	bl	0x100002260 <___rust_dealloc>
100002c30: e0 03 13 aa 	mov	x0, x19
100002c34: 08 8c 43 f8 	ldr	x8, [x0, #56]!
100002c38: 09 00 80 92 	mov	x9, #-1
100002c3c: 08 01 69 f8 	<unknown>
100002c40: 1f 05 00 f1 	cmp	x8, #1
100002c44: 61 00 00 54 	b.ne	0x100002c50 <__ZN4core3ptr124drop_in_place$LT$addr2line..ResDwarf$LT$gimli..read..endian_slice..EndianSlice$LT$gimli..endianity..LittleEndian$GT$$GT$$GT$17h50040a4bedf94081E+0x94>
100002c48: bf 39 03 d5 	dmb	ishld
100002c4c: 68 11 00 94 	bl	0x1000071ec <__ZN5alloc4sync12Arc$LT$T$GT$9drop_slow17hd071309caeca8fecE>
100002c50: 60 02 40 f9 	ldr	x0, [x19]
100002c54: 40 01 00 b4 	cbz	x0, 0x100002c7c <__ZN4core3ptr124drop_in_place$LT$addr2line..ResDwarf$LT$gimli..read..endian_slice..EndianSlice$LT$gimli..endianity..LittleEndian$GT$$GT$$GT$17h50040a4bedf94081E+0xc0>
100002c58: d9 ff ff 97 	bl	0x100002bbc <__ZN4core3ptr124drop_in_place$LT$addr2line..ResDwarf$LT$gimli..read..endian_slice..EndianSlice$LT$gimli..endianity..LittleEndian$GT$$GT$$GT$17h50040a4bedf94081E>
100002c5c: 60 02 40 f9 	ldr	x0, [x19]
100002c60: 01 08 80 52 	mov	w1, #64
100002c64: 02 01 80 52 	mov	w2, #8
100002c68: fd 7b 43 a9 	ldp	x29, x30, [sp, #48]
100002c6c: f4 4f 42 a9 	ldp	x20, x19, [sp, #32]
100002c70: f6 57 41 a9 	ldp	x22, x21, [sp, #16]
100002c74: f8 5f c4 a8 	ldp	x24, x23, [sp], #64
100002c78: 7a fd ff 17 	b	0x100002260 <___rust_dealloc>
100002c7c: fd 7b 43 a9 	ldp	x29, x30, [sp, #48]
100002c80: f4 4f 42 a9 	ldp	x20, x19, [sp, #32]
100002c84: f6 57 41 a9 	ldp	x22, x21, [sp, #16]
100002c88: f8 5f c4 a8 	ldp	x24, x23, [sp], #64
100002c8c: c0 03 5f d6 	ret
100002c90: f4 03 00 aa 	mov	x20, x0
100002c94: 60 02 40 f9 	ldr	x0, [x19]
100002c98: 7b 11 00 94 	bl	0x100007284 <__ZN5alloc5alloc8box_free17h9541dd9cfd3eeff6E>
100002c9c: 0f 00 00 14 	b	0x100002cd8 <__ZN4core3ptr124drop_in_place$LT$addr2line..ResDwarf$LT$gimli..read..endian_slice..EndianSlice$LT$gimli..endianity..LittleEndian$GT$$GT$$GT$17h50040a4bedf94081E+0x11c>
100002ca0: f4 03 00 aa 	mov	x20, x0
100002ca4: bf 02 16 eb 	cmp	x21, x22
100002ca8: c0 00 00 54 	b.eq	0x100002cc0 <__ZN4core3ptr124drop_in_place$LT$addr2line..ResDwarf$LT$gimli..read..endian_slice..EndianSlice$LT$gimli..endianity..LittleEndian$GT$$GT$$GT$17h50040a4bedf94081E+0x104>
100002cac: b7 c2 08 91 	add	x23, x21, #560
100002cb0: e0 03 15 aa 	mov	x0, x21
100002cb4: a4 ff ff 97 	bl	0x100002b44 <__ZN4core3ptr123drop_in_place$LT$addr2line..ResUnit$LT$gimli..read..endian_slice..EndianSlice$LT$gimli..endianity..LittleEndian$GT$$GT$$GT$17h3f07d2313a5d38cdE>
100002cb8: f5 03 17 aa 	mov	x21, x23
100002cbc: fa ff ff 17 	b	0x100002ca4 <__ZN4core3ptr124drop_in_place$LT$addr2line..ResDwarf$LT$gimli..read..endian_slice..EndianSlice$LT$gimli..endianity..LittleEndian$GT$$GT$$GT$17h50040a4bedf94081E+0xe8>
100002cc0: 60 06 42 a9 	ldp	x0, x1, [x19, #32]
100002cc4: 92 00 00 94 	bl	0x100002f0c <__ZN4core3ptr153drop_in_place$LT$alloc..raw_vec..RawVec$LT$addr2line..ResUnit$LT$gimli..read..endian_slice..EndianSlice$LT$gimli..endianity..LittleEndian$GT$$GT$$GT$$GT$17hc1fcb1470d7f0f4dE>
100002cc8: 60 e2 00 91 	add	x0, x19, #56
100002ccc: 98 00 00 94 	bl	0x100002f2c <__ZN4core3ptr154drop_in_place$LT$alloc..sync..Arc$LT$gimli..read..dwarf..Dwarf$LT$gimli..read..endian_slice..EndianSlice$LT$gimli..endianity..LittleEndian$GT$$GT$$GT$$GT$17haee737d7fd015d58E>
100002cd0: e0 03 13 aa 	mov	x0, x19
100002cd4: dc 00 00 94 	bl	0x100003044 <__ZN4core3ptr177drop_in_place$LT$core..option..Option$LT$alloc..boxed..Box$LT$addr2line..ResDwarf$LT$gimli..read..endian_slice..EndianSlice$LT$gimli..endianity..LittleEndian$GT$$GT$$GT$$GT$$GT$17h34820d18af3bb1a7E>
100002cd8: e0 03 14 aa 	mov	x0, x20
100002cdc: 5d bc 00 94 	bl	0x100031e50 <_writev+0x100031e50>
100002ce0: bc bb 00 94 	bl	0x100031bd0 <__ZN4core9panicking19panic_cannot_unwind17h7ea28f7e8ef3b392E>
100002ce4: bb bb 00 94 	bl	0x100031bd0 <__ZN4core9panicking19panic_cannot_unwind17h7ea28f7e8ef3b392E>

0000000100002ce8 <__ZN4core3ptr125drop_in_place$LT$addr2line..FrameIter$LT$gimli..read..endian_slice..EndianSlice$LT$gimli..endianity..LittleEndian$GT$$GT$$GT$17h20c4724a5814fe04E>:
100002ce8: 08 30 40 b9 	ldr	w8, [x0, #48]
100002cec: 08 0d 00 51 	sub	w8, w8, #3
100002cf0: 1f 09 00 71 	cmp	w8, #2
100002cf4: e3 00 00 54 	b.lo	0x100002d10 <__ZN4core3ptr125drop_in_place$LT$addr2line..FrameIter$LT$gimli..read..endian_slice..EndianSlice$LT$gimli..endianity..LittleEndian$GT$$GT$$GT$17h20c4724a5814fe04E+0x28>
100002cf8: 08 00 40 f9 	ldr	x8, [x0]
100002cfc: a8 00 00 b4 	cbz	x8, 0x100002d10 <__ZN4core3ptr125drop_in_place$LT$addr2line..FrameIter$LT$gimli..read..endian_slice..EndianSlice$LT$gimli..endianity..LittleEndian$GT$$GT$$GT$17h20c4724a5814fe04E+0x28>
100002d00: 00 0c 40 f9 	ldr	x0, [x0, #24]
100002d04: 01 f1 7d d3 	lsl	x1, x8, #3
100002d08: 02 01 80 52 	mov	w2, #8
100002d0c: 55 fd ff 17 	b	0x100002260 <___rust_dealloc>
100002d10: c0 03 5f d6 	ret

0000000100002d14 <__ZN4core3ptr130drop_in_place$LT$gimli..read..dwarf..Dwarf$LT$gimli..read..endian_slice..EndianSlice$LT$gimli..endianity..LittleEndian$GT$$GT$$GT$17h30303eaf1638a38eE>:
100002d14: 08 0c 4d f8 	ldr	x8, [x0, #208]!
100002d18: e8 00 00 b4 	cbz	x8, 0x100002d34 <__ZN4core3ptr130drop_in_place$LT$gimli..read..dwarf..Dwarf$LT$gimli..read..endian_slice..EndianSlice$LT$gimli..endianity..LittleEndian$GT$$GT$$GT$17h30303eaf1638a38eE+0x20>
100002d1c: 09 00 80 92 	mov	x9, #-1
100002d20: 08 01 69 f8 	<unknown>
100002d24: 1f 05 00 f1 	cmp	x8, #1
100002d28: 61 00 00 54 	b.ne	0x100002d34 <__ZN4core3ptr130drop_in_place$LT$gimli..read..dwarf..Dwarf$LT$gimli..read..endian_slice..EndianSlice$LT$gimli..endianity..LittleEndian$GT$$GT$$GT$17h30303eaf1638a38eE+0x20>
100002d2c: bf 39 03 d5 	dmb	ishld
100002d30: 2f 11 00 14 	b	0x1000071ec <__ZN5alloc4sync12Arc$LT$T$GT$9drop_slow17hd071309caeca8fecE>
100002d34: c0 03 5f d6 	ret

0000000100002d38 <__ZN4core3ptr137drop_in_place$LT$gimli..read..dwarf..Unit$LT$gimli..read..endian_slice..EndianSlice$LT$gimli..endianity..LittleEndian$GT$$C$usize$GT$$GT$17hea8f6fbcf05500c0E>:
100002d38: f4 4f be a9 	stp	x20, x19, [sp, #-32]!
100002d3c: fd 7b 01 a9 	stp	x29, x30, [sp, #16]
100002d40: fd 43 00 91 	add	x29, sp, #16
100002d44: f3 03 00 aa 	mov	x19, x0
100002d48: 00 80 00 91 	add	x0, x0, #32
100002d4c: 87 02 00 94 	bl	0x100003768 <__ZN4core3ptr55drop_in_place$LT$gimli..read..abbrev..Abbreviations$GT$17he434014350d490f3E>
100002d50: 60 62 03 91 	add	x0, x19, #216
100002d54: fd 7b 41 a9 	ldp	x29, x30, [sp, #16]
100002d58: f4 4f c2 a8 	ldp	x20, x19, [sp], #32
100002d5c: cf 00 00 14 	b	0x100003098 <__ZN4core3ptr181drop_in_place$LT$core..option..Option$LT$gimli..read..line..IncompleteLineProgram$LT$gimli..read..endian_slice..EndianSlice$LT$gimli..endianity..LittleEndian$GT$$C$usize$GT$$GT$$GT$17h48ea6ccfffe3a6c8E>
100002d60: f4 03 00 aa 	mov	x20, x0
100002d64: 60 62 03 91 	add	x0, x19, #216
100002d68: cc 00 00 94 	bl	0x100003098 <__ZN4core3ptr181drop_in_place$LT$core..option..Option$LT$gimli..read..line..IncompleteLineProgram$LT$gimli..read..endian_slice..EndianSlice$LT$gimli..endianity..LittleEndian$GT$$C$usize$GT$$GT$$GT$17h48ea6ccfffe3a6c8E>
100002d6c: e0 03 14 aa 	mov	x0, x20
100002d70: 38 bc 00 94 	bl	0x100031e50 <_writev+0x100031e50>

0000000100002d74 <__ZN4core3ptr144drop_in_place$LT$alloc..vec..Vec$LT$core..option..Option$LT$core..option..Option$LT$std..backtrace_rs..symbolize..gimli..Mapping$GT$$GT$$GT$$GT$17hdb7b96a6dc6b4af4E>:
100002d74: f8 5f bc a9 	stp	x24, x23, [sp, #-64]!
100002d78: f6 57 01 a9 	stp	x22, x21, [sp, #16]
100002d7c: f4 4f 02 a9 	stp	x20, x19, [sp, #32]
100002d80: fd 7b 03 a9 	stp	x29, x30, [sp, #48]
100002d84: fd c3 00 91 	add	x29, sp, #48
100002d88: f3 03 00 aa 	mov	x19, x0
100002d8c: 08 08 40 f9 	ldr	x8, [x0, #16]
100002d90: c8 01 00 b4 	cbz	x8, 0x100002dc8 <__ZN4core3ptr144drop_in_place$LT$alloc..vec..Vec$LT$core..option..Option$LT$core..option..Option$LT$std..backtrace_rs..symbolize..gimli..Mapping$GT$$GT$$GT$$GT$17hdb7b96a6dc6b4af4E+0x54>
100002d94: 60 06 40 f9 	ldr	x0, [x19, #8]
100002d98: 16 20 08 8b 	add	x22, x0, x8, lsl #8
100002d9c: 15 dd 78 d3 	lsl	x21, x8, #8
100002da0: 04 00 00 14 	b	0x100002db0 <__ZN4core3ptr144drop_in_place$LT$alloc..vec..Vec$LT$core..option..Option$LT$core..option..Option$LT$std..backtrace_rs..symbolize..gimli..Mapping$GT$$GT$$GT$$GT$17hdb7b96a6dc6b4af4E+0x3c>
100002da4: e0 03 14 aa 	mov	x0, x20
100002da8: b5 02 04 f1 	subs	x21, x21, #256
100002dac: e0 00 00 54 	b.eq	0x100002dc8 <__ZN4core3ptr144drop_in_place$LT$alloc..vec..Vec$LT$core..option..Option$LT$core..option..Option$LT$std..backtrace_rs..symbolize..gimli..Mapping$GT$$GT$$GT$$GT$17hdb7b96a6dc6b4af4E+0x54>
100002db0: 14 00 04 91 	add	x20, x0, #256
100002db4: 08 e0 41 39 	ldrb	w8, [x0, #120]
100002db8: 1f 05 00 71 	cmp	w8, #1
100002dbc: 48 ff ff 54 	b.hi	0x100002da4 <__ZN4core3ptr144drop_in_place$LT$alloc..vec..Vec$LT$core..option..Option$LT$core..option..Option$LT$std..backtrace_rs..symbolize..gimli..Mapping$GT$$GT$$GT$$GT$17hdb7b96a6dc6b4af4E+0x30>
100002dc0: eb 02 00 94 	bl	0x10000396c <__ZN4core3ptr65drop_in_place$LT$std..backtrace_rs..symbolize..gimli..Mapping$GT$17h801bb9d24b81c098E>
100002dc4: f8 ff ff 17 	b	0x100002da4 <__ZN4core3ptr144drop_in_place$LT$alloc..vec..Vec$LT$core..option..Option$LT$core..option..Option$LT$std..backtrace_rs..symbolize..gimli..Mapping$GT$$GT$$GT$$GT$17hdb7b96a6dc6b4af4E+0x30>
100002dc8: 68 02 40 f9 	ldr	x8, [x19]
100002dcc: 28 01 00 b4 	cbz	x8, 0x100002df0 <__ZN4core3ptr144drop_in_place$LT$alloc..vec..Vec$LT$core..option..Option$LT$core..option..Option$LT$std..backtrace_rs..symbolize..gimli..Mapping$GT$$GT$$GT$$GT$17hdb7b96a6dc6b4af4E+0x7c>
100002dd0: 60 06 40 f9 	ldr	x0, [x19, #8]
100002dd4: 01 dd 78 d3 	lsl	x1, x8, #8
100002dd8: 02 01 80 52 	mov	w2, #8
100002ddc: fd 7b 43 a9 	ldp	x29, x30, [sp, #48]
100002de0: f4 4f 42 a9 	ldp	x20, x19, [sp, #32]
100002de4: f6 57 41 a9 	ldp	x22, x21, [sp, #16]
100002de8: f8 5f c4 a8 	ldp	x24, x23, [sp], #64
100002dec: 1d fd ff 17 	b	0x100002260 <___rust_dealloc>
100002df0: fd 7b 43 a9 	ldp	x29, x30, [sp, #48]
100002df4: f4 4f 42 a9 	ldp	x20, x19, [sp, #32]
100002df8: f6 57 41 a9 	ldp	x22, x21, [sp, #16]
100002dfc: f8 5f c4 a8 	ldp	x24, x23, [sp], #64
100002e00: c0 03 5f d6 	ret
100002e04: f5 03 00 aa 	mov	x21, x0
100002e08: 9f 02 16 eb 	cmp	x20, x22
100002e0c: c0 00 00 54 	b.eq	0x100002e24 <__ZN4core3ptr144drop_in_place$LT$alloc..vec..Vec$LT$core..option..Option$LT$core..option..Option$LT$std..backtrace_rs..symbolize..gimli..Mapping$GT$$GT$$GT$$GT$17hdb7b96a6dc6b4af4E+0xb0>
100002e10: 97 02 04 91 	add	x23, x20, #256
100002e14: e0 03 14 aa 	mov	x0, x20
100002e18: 46 ff ff 97 	bl	0x100002b30 <__ZN4core3ptr121drop_in_place$LT$core..option..Option$LT$core..option..Option$LT$std..backtrace_rs..symbolize..gimli..Mapping$GT$$GT$$GT$17he6a3b1bc1df99055E>
100002e1c: f4 03 17 aa 	mov	x20, x23
100002e20: fa ff ff 17 	b	0x100002e08 <__ZN4core3ptr144drop_in_place$LT$alloc..vec..Vec$LT$core..option..Option$LT$core..option..Option$LT$std..backtrace_rs..symbolize..gimli..Mapping$GT$$GT$$GT$$GT$17hdb7b96a6dc6b4af4E+0x94>
100002e24: 60 06 40 a9 	ldp	x0, x1, [x19]
100002e28: 32 00 00 94 	bl	0x100002ef0 <__ZN4core3ptr151drop_in_place$LT$alloc..raw_vec..RawVec$LT$core..option..Option$LT$core..option..Option$LT$std..backtrace_rs..symbolize..gimli..Mapping$GT$$GT$$GT$$GT$17h41d77bb66143d5c1E>
100002e2c: e0 03 15 aa 	mov	x0, x21
100002e30: 08 bc 00 94 	bl	0x100031e50 <_writev+0x100031e50>
100002e34: 67 bb 00 94 	bl	0x100031bd0 <__ZN4core9panicking19panic_cannot_unwind17h7ea28f7e8ef3b392E>

0000000100002e38 <__ZN4core3ptr146drop_in_place$LT$alloc..vec..Vec$LT$addr2line..ResUnit$LT$gimli..read..endian_slice..EndianSlice$LT$gimli..endianity..LittleEndian$GT$$GT$$GT$$GT$17hf24e36b28695973eE>:
100002e38: f8 5f bc a9 	stp	x24, x23, [sp, #-64]!
100002e3c: f6 57 01 a9 	stp	x22, x21, [sp, #16]
100002e40: f4 4f 02 a9 	stp	x20, x19, [sp, #32]
100002e44: fd 7b 03 a9 	stp	x29, x30, [sp, #48]
100002e48: fd c3 00 91 	add	x29, sp, #48
100002e4c: f3 03 00 aa 	mov	x19, x0
100002e50: 00 04 40 f9 	ldr	x0, [x0, #8]
100002e54: 68 0a 40 f9 	ldr	x8, [x19, #16]
100002e58: 09 46 80 52 	mov	w9, #560
100002e5c: 15 7d 09 9b 	mul	x21, x8, x9
100002e60: 16 00 15 8b 	add	x22, x0, x21
100002e64: d5 00 00 b4 	cbz	x21, 0x100002e7c <__ZN4core3ptr146drop_in_place$LT$alloc..vec..Vec$LT$addr2line..ResUnit$LT$gimli..read..endian_slice..EndianSlice$LT$gimli..endianity..LittleEndian$GT$$GT$$GT$$GT$17hf24e36b28695973eE+0x44>
100002e68: 14 c0 08 91 	add	x20, x0, #560
100002e6c: b5 c2 08 d1 	sub	x21, x21, #560
100002e70: 35 ff ff 97 	bl	0x100002b44 <__ZN4core3ptr123drop_in_place$LT$addr2line..ResUnit$LT$gimli..read..endian_slice..EndianSlice$LT$gimli..endianity..LittleEndian$GT$$GT$$GT$17h3f07d2313a5d38cdE>
100002e74: e0 03 14 aa 	mov	x0, x20
100002e78: fb ff ff 17 	b	0x100002e64 <__ZN4core3ptr146drop_in_place$LT$alloc..vec..Vec$LT$addr2line..ResUnit$LT$gimli..read..endian_slice..EndianSlice$LT$gimli..endianity..LittleEndian$GT$$GT$$GT$$GT$17hf24e36b28695973eE+0x2c>
100002e7c: 68 02 40 f9 	ldr	x8, [x19]
100002e80: 48 01 00 b4 	cbz	x8, 0x100002ea8 <__ZN4core3ptr146drop_in_place$LT$alloc..vec..Vec$LT$addr2line..ResUnit$LT$gimli..read..endian_slice..EndianSlice$LT$gimli..endianity..LittleEndian$GT$$GT$$GT$$GT$17hf24e36b28695973eE+0x70>
100002e84: 60 06 40 f9 	ldr	x0, [x19, #8]
100002e88: 09 46 80 52 	mov	w9, #560
100002e8c: 01 7d 09 9b 	mul	x1, x8, x9
100002e90: 02 01 80 52 	mov	w2, #8
100002e94: fd 7b 43 a9 	ldp	x29, x30, [sp, #48]
100002e98: f4 4f 42 a9 	ldp	x20, x19, [sp, #32]
100002e9c: f6 57 41 a9 	ldp	x22, x21, [sp, #16]
100002ea0: f8 5f c4 a8 	ldp	x24, x23, [sp], #64
100002ea4: ef fc ff 17 	b	0x100002260 <___rust_dealloc>
100002ea8: fd 7b 43 a9 	ldp	x29, x30, [sp, #48]
100002eac: f4 4f 42 a9 	ldp	x20, x19, [sp, #32]
100002eb0: f6 57 41 a9 	ldp	x22, x21, [sp, #16]
100002eb4: f8 5f c4 a8 	ldp	x24, x23, [sp], #64
100002eb8: c0 03 5f d6 	ret
100002ebc: f5 03 00 aa 	mov	x21, x0
100002ec0: 9f 02 16 eb 	cmp	x20, x22
100002ec4: c0 00 00 54 	b.eq	0x100002edc <__ZN4core3ptr146drop_in_place$LT$alloc..vec..Vec$LT$addr2line..ResUnit$LT$gimli..read..endian_slice..EndianSlice$LT$gimli..endianity..LittleEndian$GT$$GT$$GT$$GT$17hf24e36b28695973eE+0xa4>
100002ec8: 97 c2 08 91 	add	x23, x20, #560
100002ecc: e0 03 14 aa 	mov	x0, x20
100002ed0: 1d ff ff 97 	bl	0x100002b44 <__ZN4core3ptr123drop_in_place$LT$addr2line..ResUnit$LT$gimli..read..endian_slice..EndianSlice$LT$gimli..endianity..LittleEndian$GT$$GT$$GT$17h3f07d2313a5d38cdE>
100002ed4: f4 03 17 aa 	mov	x20, x23
100002ed8: fa ff ff 17 	b	0x100002ec0 <__ZN4core3ptr146drop_in_place$LT$alloc..vec..Vec$LT$addr2line..ResUnit$LT$gimli..read..endian_slice..EndianSlice$LT$gimli..endianity..LittleEndian$GT$$GT$$GT$$GT$17hf24e36b28695973eE+0x88>
100002edc: 60 06 40 a9 	ldp	x0, x1, [x19]
100002ee0: 0b 00 00 94 	bl	0x100002f0c <__ZN4core3ptr153drop_in_place$LT$alloc..raw_vec..RawVec$LT$addr2line..ResUnit$LT$gimli..read..endian_slice..EndianSlice$LT$gimli..endianity..LittleEndian$GT$$GT$$GT$$GT$17hc1fcb1470d7f0f4dE>
100002ee4: e0 03 15 aa 	mov	x0, x21
100002ee8: da bb 00 94 	bl	0x100031e50 <_writev+0x100031e50>
100002eec: 39 bb 00 94 	bl	0x100031bd0 <__ZN4core9panicking19panic_cannot_unwind17h7ea28f7e8ef3b392E>

0000000100002ef0 <__ZN4core3ptr151drop_in_place$LT$alloc..raw_vec..RawVec$LT$core..option..Option$LT$core..option..Option$LT$std..backtrace_rs..symbolize..gimli..Mapping$GT$$GT$$GT$$GT$17h41d77bb66143d5c1E>:
100002ef0: c0 00 00 b4 	cbz	x0, 0x100002f08 <__ZN4core3ptr151drop_in_place$LT$alloc..raw_vec..RawVec$LT$core..option..Option$LT$core..option..Option$LT$std..backtrace_rs..symbolize..gimli..Mapping$GT$$GT$$GT$$GT$17h41d77bb66143d5c1E+0x18>
100002ef4: 08 dc 78 d3 	lsl	x8, x0, #8
100002ef8: e0 03 01 aa 	mov	x0, x1
100002efc: e1 03 08 aa 	mov	x1, x8
100002f00: 02 01 80 52 	mov	w2, #8
100002f04: d7 fc ff 17 	b	0x100002260 <___rust_dealloc>
100002f08: c0 03 5f d6 	ret

0000000100002f0c <__ZN4core3ptr153drop_in_place$LT$alloc..raw_vec..RawVec$LT$addr2line..ResUnit$LT$gimli..read..endian_slice..EndianSlice$LT$gimli..endianity..LittleEndian$GT$$GT$$GT$$GT$17hc1fcb1470d7f0f4dE>:
100002f0c: e0 00 00 b4 	cbz	x0, 0x100002f28 <__ZN4core3ptr153drop_in_place$LT$alloc..raw_vec..RawVec$LT$addr2line..ResUnit$LT$gimli..read..endian_slice..EndianSlice$LT$gimli..endianity..LittleEndian$GT$$GT$$GT$$GT$17hc1fcb1470d7f0f4dE+0x1c>
100002f10: 08 46 80 52 	mov	w8, #560
100002f14: 08 7c 08 9b 	mul	x8, x0, x8
100002f18: e0 03 01 aa 	mov	x0, x1
100002f1c: e1 03 08 aa 	mov	x1, x8
100002f20: 02 01 80 52 	mov	w2, #8
100002f24: cf fc ff 17 	b	0x100002260 <___rust_dealloc>
100002f28: c0 03 5f d6 	ret

0000000100002f2c <__ZN4core3ptr154drop_in_place$LT$alloc..sync..Arc$LT$gimli..read..dwarf..Dwarf$LT$gimli..read..endian_slice..EndianSlice$LT$gimli..endianity..LittleEndian$GT$$GT$$GT$$GT$17haee737d7fd015d58E>:
100002f2c: 08 00 40 f9 	ldr	x8, [x0]
100002f30: 09 00 80 92 	mov	x9, #-1
100002f34: 08 01 69 f8 	<unknown>
100002f38: 1f 05 00 f1 	cmp	x8, #1
100002f3c: 61 00 00 54 	b.ne	0x100002f48 <__ZN4core3ptr154drop_in_place$LT$alloc..sync..Arc$LT$gimli..read..dwarf..Dwarf$LT$gimli..read..endian_slice..EndianSlice$LT$gimli..endianity..LittleEndian$GT$$GT$$GT$$GT$17haee737d7fd015d58E+0x1c>
100002f40: bf 39 03 d5 	dmb	ishld
100002f44: aa 10 00 14 	b	0x1000071ec <__ZN5alloc4sync12Arc$LT$T$GT$9drop_slow17hd071309caeca8fecE>
100002f48: c0 03 5f d6 	ret

0000000100002f4c <__ZN4core3ptr159drop_in_place$LT$alloc..sync..ArcInner$LT$gimli..read..dwarf..Dwarf$LT$gimli..read..endian_slice..EndianSlice$LT$gimli..endianity..LittleEndian$GT$$GT$$GT$$GT$17hef2590646f399870E>:
100002f4c: 08 0c 4e f8 	ldr	x8, [x0, #224]!
100002f50: e8 00 00 b4 	cbz	x8, 0x100002f6c <__ZN4core3ptr159drop_in_place$LT$alloc..sync..ArcInner$LT$gimli..read..dwarf..Dwarf$LT$gimli..read..endian_slice..EndianSlice$LT$gimli..endianity..LittleEndian$GT$$GT$$GT$$GT$17hef2590646f399870E+0x20>
100002f54: 09 00 80 92 	mov	x9, #-1
100002f58: 08 01 69 f8 	<unknown>
100002f5c: 1f 05 00 f1 	cmp	x8, #1
100002f60: 61 00 00 54 	b.ne	0x100002f6c <__ZN4core3ptr159drop_in_place$LT$alloc..sync..ArcInner$LT$gimli..read..dwarf..Dwarf$LT$gimli..read..endian_slice..EndianSlice$LT$gimli..endianity..LittleEndian$GT$$GT$$GT$$GT$17hef2590646f399870E+0x20>
100002f64: bf 39 03 d5 	dmb	ishld
100002f68: a1 10 00 14 	b	0x1000071ec <__ZN5alloc4sync12Arc$LT$T$GT$9drop_slow17hd071309caeca8fecE>
100002f6c: c0 03 5f d6 	ret

0000000100002f70 <__ZN4core3ptr164drop_in_place$LT$alloc..vec..Vec$LT$addr2line..function..InlinedFunction$LT$gimli..read..endian_slice..EndianSlice$LT$gimli..endianity..LittleEndian$GT$$GT$$GT$$GT$17ha85d223fef41bdf5E>:
100002f70: 08 00 40 f9 	ldr	x8, [x0]
100002f74: c8 00 00 b4 	cbz	x8, 0x100002f8c <__ZN4core3ptr164drop_in_place$LT$alloc..vec..Vec$LT$addr2line..function..InlinedFunction$LT$gimli..read..endian_slice..EndianSlice$LT$gimli..endianity..LittleEndian$GT$$GT$$GT$$GT$17ha85d223fef41bdf5E+0x1c>
100002f78: 00 04 40 f9 	ldr	x0, [x0, #8]
100002f7c: 08 09 08 8b 	add	x8, x8, x8, lsl #2
100002f80: 01 f1 7d d3 	lsl	x1, x8, #3
100002f84: 02 01 80 52 	mov	w2, #8
100002f88: b6 fc ff 17 	b	0x100002260 <___rust_dealloc>
100002f8c: c0 03 5f d6 	ret

0000000100002f90 <__ZN4core3ptr164drop_in_place$LT$alloc..vec..Vec$LT$gimli..read..line..FileEntry$LT$gimli..read..endian_slice..EndianSlice$LT$gimli..endianity..LittleEndian$GT$$C$usize$GT$$GT$$GT$17had21b60e8cc8de9aE>:
100002f90: 08 00 40 f9 	ldr	x8, [x0]
100002f94: a8 00 00 b4 	cbz	x8, 0x100002fa8 <__ZN4core3ptr164drop_in_place$LT$alloc..vec..Vec$LT$gimli..read..line..FileEntry$LT$gimli..read..endian_slice..EndianSlice$LT$gimli..endianity..LittleEndian$GT$$C$usize$GT$$GT$$GT$17had21b60e8cc8de9aE+0x18>
100002f98: 00 04 40 f9 	ldr	x0, [x0, #8]
100002f9c: 01 e5 7a d3 	lsl	x1, x8, #6
100002fa0: 02 01 80 52 	mov	w2, #8
100002fa4: af fc ff 17 	b	0x100002260 <___rust_dealloc>
100002fa8: c0 03 5f d6 	ret

0000000100002fac <__ZN4core3ptr168drop_in_place$LT$alloc..vec..Vec$LT$$RF$addr2line..function..InlinedFunction$LT$gimli..read..endian_slice..EndianSlice$LT$gimli..endianity..LittleEndian$GT$$GT$$GT$$GT$17he9a85385b9f1351aE>:
100002fac: c0 00 00 b4 	cbz	x0, 0x100002fc4 <__ZN4core3ptr168drop_in_place$LT$alloc..vec..Vec$LT$$RF$addr2line..function..InlinedFunction$LT$gimli..read..endian_slice..EndianSlice$LT$gimli..endianity..LittleEndian$GT$$GT$$GT$$GT$17he9a85385b9f1351aE+0x18>
100002fb0: 08 f0 7d d3 	lsl	x8, x0, #3
100002fb4: e0 03 01 aa 	mov	x0, x1
100002fb8: e1 03 08 aa 	mov	x1, x8
100002fbc: 02 01 80 52 	mov	w2, #8
100002fc0: a8 fc ff 17 	b	0x100002260 <___rust_dealloc>
100002fc4: c0 03 5f d6 	ret

0000000100002fc8 <__ZN4core3ptr169drop_in_place$LT$alloc..vec..Vec$LT$gimli..read..unit..AttributeValue$LT$gimli..read..endian_slice..EndianSlice$LT$gimli..endianity..LittleEndian$GT$$C$usize$GT$$GT$$GT$17hab38e93f79f34a39E>:
100002fc8: 08 00 40 f9 	ldr	x8, [x0]
100002fcc: c8 00 00 b4 	cbz	x8, 0x100002fe4 <__ZN4core3ptr169drop_in_place$LT$alloc..vec..Vec$LT$gimli..read..unit..AttributeValue$LT$gimli..read..endian_slice..EndianSlice$LT$gimli..endianity..LittleEndian$GT$$C$usize$GT$$GT$$GT$17hab38e93f79f34a39E+0x1c>
100002fd0: 00 04 40 f9 	ldr	x0, [x0, #8]
100002fd4: 08 05 08 8b 	add	x8, x8, x8, lsl #1
100002fd8: 01 f1 7d d3 	lsl	x1, x8, #3
100002fdc: 02 01 80 52 	mov	w2, #8
100002fe0: a0 fc ff 17 	b	0x100002260 <___rust_dealloc>
100002fe4: c0 03 5f d6 	ret

0000000100002fe8 <__ZN4core3ptr169drop_in_place$LT$std..sync..remutex..ReentrantMutexGuard$LT$core..cell..RefCell$LT$std..io..buffered..linewriter..LineWriter$LT$std..io..stdio..StdoutRaw$GT$$GT$$GT$$GT$17h29b355bba3b4462fE>:
100002fe8: fd 7b bf a9 	stp	x29, x30, [sp, #-16]!
100002fec: fd 03 00 91 	mov	x29, sp
100002ff0: 08 38 40 b9 	ldr	w8, [x0, #56]
100002ff4: 08 05 00 71 	subs	w8, w8, #1
100002ff8: 08 38 00 b9 	str	w8, [x0, #56]
100002ffc: 60 00 00 54 	b.eq	0x100003008 <__ZN4core3ptr169drop_in_place$LT$std..sync..remutex..ReentrantMutexGuard$LT$core..cell..RefCell$LT$std..io..buffered..linewriter..LineWriter$LT$std..io..stdio..StdoutRaw$GT$$GT$$GT$$GT$17h29b355bba3b4462fE+0x20>
100003000: fd 7b c1 a8 	ldp	x29, x30, [sp], #16
100003004: c0 03 5f d6 	ret
100003008: 1f 04 00 f9 	str	xzr, [x0, #8]
10000300c: 08 fc df c8 	ldar	x8, [x0]
100003010: 88 00 00 b4 	cbz	x8, 0x100003020 <__ZN4core3ptr169drop_in_place$LT$std..sync..remutex..ReentrantMutexGuard$LT$core..cell..RefCell$LT$std..io..buffered..linewriter..LineWriter$LT$std..io..stdio..StdoutRaw$GT$$GT$$GT$$GT$17h29b355bba3b4462fE+0x38>
100003014: e0 03 08 aa 	mov	x0, x8
100003018: fd 7b c1 a8 	ldp	x29, x30, [sp], #16
10000301c: ff bb 00 14 	b	0x100032018 <_writev+0x100032018>
100003020: 8b b8 00 94 	bl	0x10003124c <__ZN3std10sys_common8lazy_box16LazyBox$LT$T$GT$10initialize17hf28dc92e2aff4a75E>
100003024: e8 03 00 aa 	mov	x8, x0
100003028: fb ff ff 17 	b	0x100003014 <__ZN4core3ptr169drop_in_place$LT$std..sync..remutex..ReentrantMutexGuard$LT$core..cell..RefCell$LT$std..io..buffered..linewriter..LineWriter$LT$std..io..stdio..StdoutRaw$GT$$GT$$GT$$GT$17h29b355bba3b4462fE+0x2c>

000000010000302c <__ZN4core3ptr176drop_in_place$LT$alloc..boxed..Box$LT$$u5b$addr2line..function..InlinedFunction$LT$gimli..read..endian_slice..EndianSlice$LT$gimli..endianity..LittleEndian$GT$$GT$$u5d$$GT$$GT$17h282db78eb7c7ff86E>:
10000302c: a1 00 00 b4 	cbz	x1, 0x100003040 <__ZN4core3ptr176drop_in_place$LT$alloc..boxed..Box$LT$$u5b$addr2line..function..InlinedFunction$LT$gimli..read..endian_slice..EndianSlice$LT$gimli..endianity..LittleEndian$GT$$GT$$u5d$$GT$$GT$17h282db78eb7c7ff86E+0x14>
100003030: 28 08 01 8b 	add	x8, x1, x1, lsl #2
100003034: 01 f1 7d d3 	lsl	x1, x8, #3
100003038: 02 01 80 52 	mov	w2, #8
10000303c: 89 fc ff 17 	b	0x100002260 <___rust_dealloc>
100003040: c0 03 5f d6 	ret

0000000100003044 <__ZN4core3ptr177drop_in_place$LT$core..option..Option$LT$alloc..boxed..Box$LT$addr2line..ResDwarf$LT$gimli..read..endian_slice..EndianSlice$LT$gimli..endianity..LittleEndian$GT$$GT$$GT$$GT$$GT$17h34820d18af3bb1a7E>:
100003044: f4 4f be a9 	stp	x20, x19, [sp, #-32]!
100003048: fd 7b 01 a9 	stp	x29, x30, [sp, #16]
10000304c: fd 43 00 91 	add	x29, sp, #16
100003050: f3 03 00 aa 	mov	x19, x0
100003054: 00 00 40 f9 	ldr	x0, [x0]
100003058: 00 01 00 b4 	cbz	x0, 0x100003078 <__ZN4core3ptr177drop_in_place$LT$core..option..Option$LT$alloc..boxed..Box$LT$addr2line..ResDwarf$LT$gimli..read..endian_slice..EndianSlice$LT$gimli..endianity..LittleEndian$GT$$GT$$GT$$GT$$GT$17h34820d18af3bb1a7E+0x34>
10000305c: d8 fe ff 97 	bl	0x100002bbc <__ZN4core3ptr124drop_in_place$LT$addr2line..ResDwarf$LT$gimli..read..endian_slice..EndianSlice$LT$gimli..endianity..LittleEndian$GT$$GT$$GT$17h50040a4bedf94081E>
100003060: 60 02 40 f9 	ldr	x0, [x19]
100003064: 01 08 80 52 	mov	w1, #64
100003068: 02 01 80 52 	mov	w2, #8
10000306c: fd 7b 41 a9 	ldp	x29, x30, [sp, #16]
100003070: f4 4f c2 a8 	ldp	x20, x19, [sp], #32
100003074: 7b fc ff 17 	b	0x100002260 <___rust_dealloc>
100003078: fd 7b 41 a9 	ldp	x29, x30, [sp, #16]
10000307c: f4 4f c2 a8 	ldp	x20, x19, [sp], #32
100003080: c0 03 5f d6 	ret
100003084: f4 03 00 aa 	mov	x20, x0
100003088: 60 02 40 f9 	ldr	x0, [x19]
10000308c: 7e 10 00 94 	bl	0x100007284 <__ZN5alloc5alloc8box_free17h9541dd9cfd3eeff6E>
100003090: e0 03 14 aa 	mov	x0, x20
100003094: 6f bb 00 94 	bl	0x100031e50 <_writev+0x100031e50>

0000000100003098 <__ZN4core3ptr181drop_in_place$LT$core..option..Option$LT$gimli..read..line..IncompleteLineProgram$LT$gimli..read..endian_slice..EndianSlice$LT$gimli..endianity..LittleEndian$GT$$C$usize$GT$$GT$$GT$17h48ea6ccfffe3a6c8E>:
100003098: f4 4f be a9 	stp	x20, x19, [sp, #-32]!
10000309c: fd 7b 01 a9 	stp	x29, x30, [sp, #16]
1000030a0: fd 43 00 91 	add	x29, sp, #16
1000030a4: 08 14 40 f9 	ldr	x8, [x0, #40]
1000030a8: 1f bd 00 f1 	cmp	x8, #47
1000030ac: a0 03 00 54 	b.eq	0x100003120 <__ZN4core3ptr181drop_in_place$LT$core..option..Option$LT$gimli..read..line..IncompleteLineProgram$LT$gimli..read..endian_slice..EndianSlice$LT$gimli..endianity..LittleEndian$GT$$C$usize$GT$$GT$$GT$17h48ea6ccfffe3a6c8E+0x88>
1000030b0: f3 03 00 aa 	mov	x19, x0
1000030b4: 08 44 40 f9 	ldr	x8, [x0, #136]
1000030b8: a8 00 00 b4 	cbz	x8, 0x1000030cc <__ZN4core3ptr181drop_in_place$LT$core..option..Option$LT$gimli..read..line..IncompleteLineProgram$LT$gimli..read..endian_slice..EndianSlice$LT$gimli..endianity..LittleEndian$GT$$C$usize$GT$$GT$$GT$17h48ea6ccfffe3a6c8E+0x34>
1000030bc: 60 4a 40 f9 	ldr	x0, [x19, #144]
1000030c0: 01 f5 7e d3 	lsl	x1, x8, #2
1000030c4: 42 00 80 52 	mov	w2, #2
1000030c8: 66 fc ff 97 	bl	0x100002260 <___rust_dealloc>
1000030cc: 68 52 40 f9 	ldr	x8, [x19, #160]
1000030d0: c8 00 00 b4 	cbz	x8, 0x1000030e8 <__ZN4core3ptr181drop_in_place$LT$core..option..Option$LT$gimli..read..line..IncompleteLineProgram$LT$gimli..read..endian_slice..EndianSlice$LT$gimli..endianity..LittleEndian$GT$$C$usize$GT$$GT$$GT$17h48ea6ccfffe3a6c8E+0x50>
1000030d4: 60 56 40 f9 	ldr	x0, [x19, #168]
1000030d8: 08 05 08 8b 	add	x8, x8, x8, lsl #1
1000030dc: 01 f1 7d d3 	lsl	x1, x8, #3
1000030e0: 02 01 80 52 	mov	w2, #8
1000030e4: 5f fc ff 97 	bl	0x100002260 <___rust_dealloc>
1000030e8: 68 5e 40 f9 	ldr	x8, [x19, #184]
1000030ec: a8 00 00 b4 	cbz	x8, 0x100003100 <__ZN4core3ptr181drop_in_place$LT$core..option..Option$LT$gimli..read..line..IncompleteLineProgram$LT$gimli..read..endian_slice..EndianSlice$LT$gimli..endianity..LittleEndian$GT$$C$usize$GT$$GT$$GT$17h48ea6ccfffe3a6c8E+0x68>
1000030f0: 60 62 40 f9 	ldr	x0, [x19, #192]
1000030f4: 01 f5 7e d3 	lsl	x1, x8, #2
1000030f8: 42 00 80 52 	mov	w2, #2
1000030fc: 59 fc ff 97 	bl	0x100002260 <___rust_dealloc>
100003100: 68 6a 40 f9 	ldr	x8, [x19, #208]
100003104: e8 00 00 b4 	cbz	x8, 0x100003120 <__ZN4core3ptr181drop_in_place$LT$core..option..Option$LT$gimli..read..line..IncompleteLineProgram$LT$gimli..read..endian_slice..EndianSlice$LT$gimli..endianity..LittleEndian$GT$$C$usize$GT$$GT$$GT$17h48ea6ccfffe3a6c8E+0x88>
100003108: 60 6e 40 f9 	ldr	x0, [x19, #216]
10000310c: 01 e5 7a d3 	lsl	x1, x8, #6
100003110: 02 01 80 52 	mov	w2, #8
100003114: fd 7b 41 a9 	ldp	x29, x30, [sp, #16]
100003118: f4 4f c2 a8 	ldp	x20, x19, [sp], #32
10000311c: 51 fc ff 17 	b	0x100002260 <___rust_dealloc>
100003120: fd 7b 41 a9 	ldp	x29, x30, [sp, #16]
100003124: f4 4f c2 a8 	ldp	x20, x19, [sp], #32
100003128: c0 03 5f d6 	ret

000000010000312c <__ZN4core3ptr184drop_in_place$LT$core..result..Result$LT$addr2line..function..Functions$LT$gimli..read..endian_slice..EndianSlice$LT$gimli..endianity..LittleEndian$GT$$GT$$C$gimli..read..Error$GT$$GT$17hf5271cb2c734dee0E>:
10000312c: f6 57 bd a9 	stp	x22, x21, [sp, #-48]!
100003130: f4 4f 01 a9 	stp	x20, x19, [sp, #16]
100003134: fd 7b 02 a9 	stp	x29, x30, [sp, #32]
100003138: fd 83 00 91 	add	x29, sp, #32
10000313c: 08 00 40 f9 	ldr	x8, [x0]
100003140: a8 05 00 b4 	cbz	x8, 0x1000031f4 <__ZN4core3ptr184drop_in_place$LT$core..result..Result$LT$addr2line..function..Functions$LT$gimli..read..endian_slice..EndianSlice$LT$gimli..endianity..LittleEndian$GT$$GT$$C$gimli..read..Error$GT$$GT$17hf5271cb2c734dee0E+0xc8>
100003144: f3 03 00 aa 	mov	x19, x0
100003148: 09 04 40 f9 	ldr	x9, [x0, #8]
10000314c: 09 04 00 b4 	cbz	x9, 0x1000031cc <__ZN4core3ptr184drop_in_place$LT$core..result..Result$LT$addr2line..function..Functions$LT$gimli..read..endian_slice..EndianSlice$LT$gimli..endianity..LittleEndian$GT$$GT$$C$gimli..read..Error$GT$$GT$17hf5271cb2c734dee0E+0xa0>
100003150: 14 e1 00 91 	add	x20, x8, #56
100003154: 28 0d 09 8b 	add	x8, x9, x9, lsl #3
100003158: 15 f1 7d d3 	lsl	x21, x8, #3
10000315c: 04 00 00 14 	b	0x10000316c <__ZN4core3ptr184drop_in_place$LT$core..result..Result$LT$addr2line..function..Functions$LT$gimli..read..endian_slice..EndianSlice$LT$gimli..endianity..LittleEndian$GT$$GT$$C$gimli..read..Error$GT$$GT$17hf5271cb2c734dee0E+0x40>
100003160: 94 22 01 91 	add	x20, x20, #72
100003164: b5 22 01 f1 	subs	x21, x21, #72
100003168: 40 02 00 54 	b.eq	0x1000031b0 <__ZN4core3ptr184drop_in_place$LT$core..result..Result$LT$addr2line..function..Functions$LT$gimli..read..endian_slice..EndianSlice$LT$gimli..endianity..LittleEndian$GT$$GT$$C$gimli..read..Error$GT$$GT$17hf5271cb2c734dee0E+0x84>
10000316c: 88 02 5d f8 	ldur	x8, [x20, #-48]
100003170: 88 ff ff b4 	cbz	x8, 0x100003160 <__ZN4core3ptr184drop_in_place$LT$core..result..Result$LT$addr2line..function..Functions$LT$gimli..read..endian_slice..EndianSlice$LT$gimli..endianity..LittleEndian$GT$$GT$$C$gimli..read..Error$GT$$GT$17hf5271cb2c734dee0E+0x34>
100003174: 80 82 5e f8 	ldur	x0, [x20, #-24]
100003178: 40 ff ff b4 	cbz	x0, 0x100003160 <__ZN4core3ptr184drop_in_place$LT$core..result..Result$LT$addr2line..function..Functions$LT$gimli..read..endian_slice..EndianSlice$LT$gimli..endianity..LittleEndian$GT$$GT$$C$gimli..read..Error$GT$$GT$17hf5271cb2c734dee0E+0x34>
10000317c: 88 02 5f f8 	ldur	x8, [x20, #-16]
100003180: a8 00 00 b4 	cbz	x8, 0x100003194 <__ZN4core3ptr184drop_in_place$LT$core..result..Result$LT$addr2line..function..Functions$LT$gimli..read..endian_slice..EndianSlice$LT$gimli..endianity..LittleEndian$GT$$GT$$C$gimli..read..Error$GT$$GT$17hf5271cb2c734dee0E+0x68>
100003184: 08 09 08 8b 	add	x8, x8, x8, lsl #2
100003188: 01 f1 7d d3 	lsl	x1, x8, #3
10000318c: 02 01 80 52 	mov	w2, #8
100003190: 34 fc ff 97 	bl	0x100002260 <___rust_dealloc>
100003194: 88 02 40 f9 	ldr	x8, [x20]
100003198: 48 fe ff b4 	cbz	x8, 0x100003160 <__ZN4core3ptr184drop_in_place$LT$core..result..Result$LT$addr2line..function..Functions$LT$gimli..read..endian_slice..EndianSlice$LT$gimli..endianity..LittleEndian$GT$$GT$$C$gimli..read..Error$GT$$GT$17hf5271cb2c734dee0E+0x34>
10000319c: 80 82 5f f8 	ldur	x0, [x20, #-8]
1000031a0: 01 e9 7b d3 	lsl	x1, x8, #5
1000031a4: 02 01 80 52 	mov	w2, #8
1000031a8: 2e fc ff 97 	bl	0x100002260 <___rust_dealloc>
1000031ac: ed ff ff 17 	b	0x100003160 <__ZN4core3ptr184drop_in_place$LT$core..result..Result$LT$addr2line..function..Functions$LT$gimli..read..endian_slice..EndianSlice$LT$gimli..endianity..LittleEndian$GT$$GT$$C$gimli..read..Error$GT$$GT$17hf5271cb2c734dee0E+0x34>
1000031b0: 68 06 40 f9 	ldr	x8, [x19, #8]
1000031b4: c8 00 00 b4 	cbz	x8, 0x1000031cc <__ZN4core3ptr184drop_in_place$LT$core..result..Result$LT$addr2line..function..Functions$LT$gimli..read..endian_slice..EndianSlice$LT$gimli..endianity..LittleEndian$GT$$GT$$C$gimli..read..Error$GT$$GT$17hf5271cb2c734dee0E+0xa0>
1000031b8: 60 02 40 f9 	ldr	x0, [x19]
1000031bc: 08 0d 08 8b 	add	x8, x8, x8, lsl #3
1000031c0: 01 f1 7d d3 	lsl	x1, x8, #3
1000031c4: 02 01 80 52 	mov	w2, #8
1000031c8: 26 fc ff 97 	bl	0x100002260 <___rust_dealloc>
1000031cc: 68 0e 40 f9 	ldr	x8, [x19, #24]
1000031d0: 28 01 00 b4 	cbz	x8, 0x1000031f4 <__ZN4core3ptr184drop_in_place$LT$core..result..Result$LT$addr2line..function..Functions$LT$gimli..read..endian_slice..EndianSlice$LT$gimli..endianity..LittleEndian$GT$$GT$$C$gimli..read..Error$GT$$GT$17hf5271cb2c734dee0E+0xc8>
1000031d4: 60 0a 40 f9 	ldr	x0, [x19, #16]
1000031d8: 08 05 08 8b 	add	x8, x8, x8, lsl #1
1000031dc: 01 f1 7d d3 	lsl	x1, x8, #3
1000031e0: 02 01 80 52 	mov	w2, #8
1000031e4: fd 7b 42 a9 	ldp	x29, x30, [sp, #32]
1000031e8: f4 4f 41 a9 	ldp	x20, x19, [sp, #16]
1000031ec: f6 57 c3 a8 	ldp	x22, x21, [sp], #48
1000031f0: 1c fc ff 17 	b	0x100002260 <___rust_dealloc>
1000031f4: fd 7b 42 a9 	ldp	x29, x30, [sp, #32]
1000031f8: f4 4f 41 a9 	ldp	x20, x19, [sp, #16]
1000031fc: f6 57 c3 a8 	ldp	x22, x21, [sp], #48
100003200: c0 03 5f d6 	ret

0000000100003204 <__ZN4core3ptr205drop_in_place$LT$$LT$alloc..boxed..Box$LT$dyn$u20$core..error..Error$u2b$core..marker..Sync$u2b$core..marker..Send$GT$$u20$as$u20$core..convert..From$LT$alloc..string..String$GT$$GT$..from..StringError$GT$17hebbabeed7594fdacE>:
100003204: 01 00 40 f9 	ldr	x1, [x0]
100003208: a1 00 00 b4 	cbz	x1, 0x10000321c <__ZN4core3ptr205drop_in_place$LT$$LT$alloc..boxed..Box$LT$dyn$u20$core..error..Error$u2b$core..marker..Sync$u2b$core..marker..Send$GT$$u20$as$u20$core..convert..From$LT$alloc..string..String$GT$$GT$..from..StringError$GT$17hebbabeed7594fdacE+0x18>
10000320c: 00 04 40 f9 	ldr	x0, [x0, #8]
100003210: e8 03 21 aa 	mvn	x8, x1
100003214: 02 fd 7f d3 	lsr	x2, x8, #63
100003218: 12 fc ff 17 	b	0x100002260 <___rust_dealloc>
10000321c: c0 03 5f d6 	ret

0000000100003220 <__ZN4core3ptr217drop_in_place$LT$addr2line..lazy..LazyCell$LT$core..result..Result$LT$addr2line..function..Functions$LT$gimli..read..endian_slice..EndianSlice$LT$gimli..endianity..LittleEndian$GT$$GT$$C$gimli..read..Error$GT$$GT$$GT$17h0e99d73196c0a622E>:
100003220: 08 00 40 f9 	ldr	x8, [x0]
100003224: 68 00 00 b4 	cbz	x8, 0x100003230 <__ZN4core3ptr217drop_in_place$LT$addr2line..lazy..LazyCell$LT$core..result..Result$LT$addr2line..function..Functions$LT$gimli..read..endian_slice..EndianSlice$LT$gimli..endianity..LittleEndian$GT$$GT$$C$gimli..read..Error$GT$$GT$$GT$17h0e99d73196c0a622E+0x10>
100003228: 00 20 00 91 	add	x0, x0, #8
10000322c: c0 ff ff 17 	b	0x10000312c <__ZN4core3ptr184drop_in_place$LT$core..result..Result$LT$addr2line..function..Functions$LT$gimli..read..endian_slice..EndianSlice$LT$gimli..endianity..LittleEndian$GT$$GT$$C$gimli..read..Error$GT$$GT$17hf5271cb2c734dee0E>
100003230: c0 03 5f d6 	ret

0000000100003234 <__ZN4core3ptr250drop_in_place$LT$$LP$gimli..read..UnitOffset$C$addr2line..lazy..LazyCell$LT$core..result..Result$LT$addr2line..function..Function$LT$gimli..read..endian_slice..EndianSlice$LT$gimli..endianity..LittleEndian$GT$$GT$$C$gimli..read..Error$GT$$GT$$RP$$GT$17h9d7566ea48ce1b97E>:
100003234: f4 4f be a9 	stp	x20, x19, [sp, #-32]!
100003238: fd 7b 01 a9 	stp	x29, x30, [sp, #16]
10000323c: fd 43 00 91 	add	x29, sp, #16
100003240: 08 04 40 f9 	ldr	x8, [x0, #8]
100003244: 48 02 00 b4 	cbz	x8, 0x10000328c <__ZN4core3ptr250drop_in_place$LT$$LP$gimli..read..UnitOffset$C$addr2line..lazy..LazyCell$LT$core..result..Result$LT$addr2line..function..Function$LT$gimli..read..endian_slice..EndianSlice$LT$gimli..endianity..LittleEndian$GT$$GT$$C$gimli..read..Error$GT$$GT$$RP$$GT$17h9d7566ea48ce1b97E+0x58>
100003248: f3 03 00 aa 	mov	x19, x0
10000324c: 00 10 40 f9 	ldr	x0, [x0, #32]
100003250: e0 01 00 b4 	cbz	x0, 0x10000328c <__ZN4core3ptr250drop_in_place$LT$$LP$gimli..read..UnitOffset$C$addr2line..lazy..LazyCell$LT$core..result..Result$LT$addr2line..function..Function$LT$gimli..read..endian_slice..EndianSlice$LT$gimli..endianity..LittleEndian$GT$$GT$$C$gimli..read..Error$GT$$GT$$RP$$GT$17h9d7566ea48ce1b97E+0x58>
100003254: 68 16 40 f9 	ldr	x8, [x19, #40]
100003258: a8 00 00 b4 	cbz	x8, 0x10000326c <__ZN4core3ptr250drop_in_place$LT$$LP$gimli..read..UnitOffset$C$addr2line..lazy..LazyCell$LT$core..result..Result$LT$addr2line..function..Function$LT$gimli..read..endian_slice..EndianSlice$LT$gimli..endianity..LittleEndian$GT$$GT$$C$gimli..read..Error$GT$$GT$$RP$$GT$17h9d7566ea48ce1b97E+0x38>
10000325c: 08 09 08 8b 	add	x8, x8, x8, lsl #2
100003260: 01 f1 7d d3 	lsl	x1, x8, #3
100003264: 02 01 80 52 	mov	w2, #8
100003268: fe fb ff 97 	bl	0x100002260 <___rust_dealloc>
10000326c: 68 1e 40 f9 	ldr	x8, [x19, #56]
100003270: e8 00 00 b4 	cbz	x8, 0x10000328c <__ZN4core3ptr250drop_in_place$LT$$LP$gimli..read..UnitOffset$C$addr2line..lazy..LazyCell$LT$core..result..Result$LT$addr2line..function..Function$LT$gimli..read..endian_slice..EndianSlice$LT$gimli..endianity..LittleEndian$GT$$GT$$C$gimli..read..Error$GT$$GT$$RP$$GT$17h9d7566ea48ce1b97E+0x58>
100003274: 60 1a 40 f9 	ldr	x0, [x19, #48]
100003278: 01 e9 7b d3 	lsl	x1, x8, #5
10000327c: 02 01 80 52 	mov	w2, #8
100003280: fd 7b 41 a9 	ldp	x29, x30, [sp, #16]
100003284: f4 4f c2 a8 	ldp	x20, x19, [sp], #32
100003288: f6 fb ff 17 	b	0x100002260 <___rust_dealloc>
10000328c: fd 7b 41 a9 	ldp	x29, x30, [sp, #16]
100003290: f4 4f c2 a8 	ldp	x20, x19, [sp], #32
100003294: c0 03 5f d6 	ret

0000000100003298 <__ZN4core3ptr273drop_in_place$LT$alloc..vec..Vec$LT$$LP$gimli..read..UnitOffset$C$addr2line..lazy..LazyCell$LT$core..result..Result$LT$addr2line..function..Function$LT$gimli..read..endian_slice..EndianSlice$LT$gimli..endianity..LittleEndian$GT$$GT$$C$gimli..read..Error$GT$$GT$$RP$$GT$$GT$17he1e20cbba71d7bd1E>:
100003298: f6 57 bd a9 	stp	x22, x21, [sp, #-48]!
10000329c: f4 4f 01 a9 	stp	x20, x19, [sp, #16]
1000032a0: fd 7b 02 a9 	stp	x29, x30, [sp, #32]
1000032a4: fd 83 00 91 	add	x29, sp, #32
1000032a8: f3 03 00 aa 	mov	x19, x0
1000032ac: 08 08 40 f9 	ldr	x8, [x0, #16]
1000032b0: 48 03 00 b4 	cbz	x8, 0x100003318 <__ZN4core3ptr273drop_in_place$LT$alloc..vec..Vec$LT$$LP$gimli..read..UnitOffset$C$addr2line..lazy..LazyCell$LT$core..result..Result$LT$addr2line..function..Function$LT$gimli..read..endian_slice..EndianSlice$LT$gimli..endianity..LittleEndian$GT$$GT$$C$gimli..read..Error$GT$$GT$$RP$$GT$$GT$17he1e20cbba71d7bd1E+0x80>
1000032b4: 69 06 40 f9 	ldr	x9, [x19, #8]
1000032b8: 34 e1 00 91 	add	x20, x9, #56
1000032bc: 08 0d 08 8b 	add	x8, x8, x8, lsl #3
1000032c0: 15 f1 7d d3 	lsl	x21, x8, #3
1000032c4: 04 00 00 14 	b	0x1000032d4 <__ZN4core3ptr273drop_in_place$LT$alloc..vec..Vec$LT$$LP$gimli..read..UnitOffset$C$addr2line..lazy..LazyCell$LT$core..result..Result$LT$addr2line..function..Function$LT$gimli..read..endian_slice..EndianSlice$LT$gimli..endianity..LittleEndian$GT$$GT$$C$gimli..read..Error$GT$$GT$$RP$$GT$$GT$17he1e20cbba71d7bd1E+0x3c>
1000032c8: 94 22 01 91 	add	x20, x20, #72
1000032cc: b5 22 01 f1 	subs	x21, x21, #72
1000032d0: 40 02 00 54 	b.eq	0x100003318 <__ZN4core3ptr273drop_in_place$LT$alloc..vec..Vec$LT$$LP$gimli..read..UnitOffset$C$addr2line..lazy..LazyCell$LT$core..result..Result$LT$addr2line..function..Function$LT$gimli..read..endian_slice..EndianSlice$LT$gimli..endianity..LittleEndian$GT$$GT$$C$gimli..read..Error$GT$$GT$$RP$$GT$$GT$17he1e20cbba71d7bd1E+0x80>
1000032d4: 88 02 5d f8 	ldur	x8, [x20, #-48]
1000032d8: 88 ff ff b4 	cbz	x8, 0x1000032c8 <__ZN4core3ptr273drop_in_place$LT$alloc..vec..Vec$LT$$LP$gimli..read..UnitOffset$C$addr2line..lazy..LazyCell$LT$core..result..Result$LT$addr2line..function..Function$LT$gimli..read..endian_slice..EndianSlice$LT$gimli..endianity..LittleEndian$GT$$GT$$C$gimli..read..Error$GT$$GT$$RP$$GT$$GT$17he1e20cbba71d7bd1E+0x30>
1000032dc: 80 82 5e f8 	ldur	x0, [x20, #-24]
1000032e0: 40 ff ff b4 	cbz	x0, 0x1000032c8 <__ZN4core3ptr273drop_in_place$LT$alloc..vec..Vec$LT$$LP$gimli..read..UnitOffset$C$addr2line..lazy..LazyCell$LT$core..result..Result$LT$addr2line..function..Function$LT$gimli..read..endian_slice..EndianSlice$LT$gimli..endianity..LittleEndian$GT$$GT$$C$gimli..read..Error$GT$$GT$$RP$$GT$$GT$17he1e20cbba71d7bd1E+0x30>
1000032e4: 88 02 5f f8 	ldur	x8, [x20, #-16]
1000032e8: a8 00 00 b4 	cbz	x8, 0x1000032fc <__ZN4core3ptr273drop_in_place$LT$alloc..vec..Vec$LT$$LP$gimli..read..UnitOffset$C$addr2line..lazy..LazyCell$LT$core..result..Result$LT$addr2line..function..Function$LT$gimli..read..endian_slice..EndianSlice$LT$gimli..endianity..LittleEndian$GT$$GT$$C$gimli..read..Error$GT$$GT$$RP$$GT$$GT$17he1e20cbba71d7bd1E+0x64>
1000032ec: 08 09 08 8b 	add	x8, x8, x8, lsl #2
1000032f0: 01 f1 7d d3 	lsl	x1, x8, #3
1000032f4: 02 01 80 52 	mov	w2, #8
1000032f8: da fb ff 97 	bl	0x100002260 <___rust_dealloc>
1000032fc: 88 02 40 f9 	ldr	x8, [x20]
100003300: 48 fe ff b4 	cbz	x8, 0x1000032c8 <__ZN4core3ptr273drop_in_place$LT$alloc..vec..Vec$LT$$LP$gimli..read..UnitOffset$C$addr2line..lazy..LazyCell$LT$core..result..Result$LT$addr2line..function..Function$LT$gimli..read..endian_slice..EndianSlice$LT$gimli..endianity..LittleEndian$GT$$GT$$C$gimli..read..Error$GT$$GT$$RP$$GT$$GT$17he1e20cbba71d7bd1E+0x30>
100003304: 80 82 5f f8 	ldur	x0, [x20, #-8]
100003308: 01 e9 7b d3 	lsl	x1, x8, #5
10000330c: 02 01 80 52 	mov	w2, #8
100003310: d4 fb ff 97 	bl	0x100002260 <___rust_dealloc>
100003314: ed ff ff 17 	b	0x1000032c8 <__ZN4core3ptr273drop_in_place$LT$alloc..vec..Vec$LT$$LP$gimli..read..UnitOffset$C$addr2line..lazy..LazyCell$LT$core..result..Result$LT$addr2line..function..Function$LT$gimli..read..endian_slice..EndianSlice$LT$gimli..endianity..LittleEndian$GT$$GT$$C$gimli..read..Error$GT$$GT$$RP$$GT$$GT$17he1e20cbba71d7bd1E+0x30>
100003318: 68 02 40 f9 	ldr	x8, [x19]
10000331c: 28 01 00 b4 	cbz	x8, 0x100003340 <__ZN4core3ptr273drop_in_place$LT$alloc..vec..Vec$LT$$LP$gimli..read..UnitOffset$C$addr2line..lazy..LazyCell$LT$core..result..Result$LT$addr2line..function..Function$LT$gimli..read..endian_slice..EndianSlice$LT$gimli..endianity..LittleEndian$GT$$GT$$C$gimli..read..Error$GT$$GT$$RP$$GT$$GT$17he1e20cbba71d7bd1E+0xa8>
100003320: 60 06 40 f9 	ldr	x0, [x19, #8]
100003324: 08 0d 08 8b 	add	x8, x8, x8, lsl #3
100003328: 01 f1 7d d3 	lsl	x1, x8, #3
10000332c: 02 01 80 52 	mov	w2, #8
100003330: fd 7b 42 a9 	ldp	x29, x30, [sp, #32]
100003334: f4 4f 41 a9 	ldp	x20, x19, [sp, #16]
100003338: f6 57 c3 a8 	ldp	x22, x21, [sp], #48
10000333c: c9 fb ff 17 	b	0x100002260 <___rust_dealloc>
100003340: fd 7b 42 a9 	ldp	x29, x30, [sp, #32]
100003344: f4 4f 41 a9 	ldp	x20, x19, [sp, #16]
100003348: f6 57 c3 a8 	ldp	x22, x21, [sp], #48
10000334c: c0 03 5f d6 	ret

0000000100003350 <__ZN4core3ptr275drop_in_place$LT$gimli..read..line..LineRows$LT$gimli..read..endian_slice..EndianSlice$LT$gimli..endianity..LittleEndian$GT$$C$gimli..read..line..IncompleteLineProgram$LT$gimli..read..endian_slice..EndianSlice$LT$gimli..endianity..LittleEndian$GT$$C$usize$GT$$C$usize$GT$$GT$17hd8daeb0eb3c03c6eE>:
100003350: f4 4f be a9 	stp	x20, x19, [sp, #-32]!
100003354: fd 7b 01 a9 	stp	x29, x30, [sp, #16]
100003358: fd 43 00 91 	add	x29, sp, #16
10000335c: f3 03 00 aa 	mov	x19, x0
100003360: 08 6c 40 f9 	ldr	x8, [x0, #216]
100003364: a8 00 00 b4 	cbz	x8, 0x100003378 <__ZN4core3ptr275drop_in_place$LT$gimli..read..line..LineRows$LT$gimli..read..endian_slice..EndianSlice$LT$gimli..endianity..LittleEndian$GT$$C$gimli..read..line..IncompleteLineProgram$LT$gimli..read..endian_slice..EndianSlice$LT$gimli..endianity..LittleEndian$GT$$C$usize$GT$$C$usize$GT$$GT$17hd8daeb0eb3c03c6eE+0x28>
100003368: 60 72 40 f9 	ldr	x0, [x19, #224]
10000336c: 01 f5 7e d3 	lsl	x1, x8, #2
100003370: 42 00 80 52 	mov	w2, #2
100003374: bb fb ff 97 	bl	0x100002260 <___rust_dealloc>
100003378: 68 7a 40 f9 	ldr	x8, [x19, #240]
10000337c: c8 00 00 b4 	cbz	x8, 0x100003394 <__ZN4core3ptr275drop_in_place$LT$gimli..read..line..LineRows$LT$gimli..read..endian_slice..EndianSlice$LT$gimli..endianity..LittleEndian$GT$$C$gimli..read..line..IncompleteLineProgram$LT$gimli..read..endian_slice..EndianSlice$LT$gimli..endianity..LittleEndian$GT$$C$usize$GT$$C$usize$GT$$GT$17hd8daeb0eb3c03c6eE+0x44>
100003380: 60 7e 40 f9 	ldr	x0, [x19, #248]
100003384: 08 05 08 8b 	add	x8, x8, x8, lsl #1
100003388: 01 f1 7d d3 	lsl	x1, x8, #3
10000338c: 02 01 80 52 	mov	w2, #8
100003390: b4 fb ff 97 	bl	0x100002260 <___rust_dealloc>
100003394: 68 86 40 f9 	ldr	x8, [x19, #264]
100003398: a8 00 00 b4 	cbz	x8, 0x1000033ac <__ZN4core3ptr275drop_in_place$LT$gimli..read..line..LineRows$LT$gimli..read..endian_slice..EndianSlice$LT$gimli..endianity..LittleEndian$GT$$C$gimli..read..line..IncompleteLineProgram$LT$gimli..read..endian_slice..EndianSlice$LT$gimli..endianity..LittleEndian$GT$$C$usize$GT$$C$usize$GT$$GT$17hd8daeb0eb3c03c6eE+0x5c>
10000339c: 60 8a 40 f9 	ldr	x0, [x19, #272]
1000033a0: 01 f5 7e d3 	lsl	x1, x8, #2
1000033a4: 42 00 80 52 	mov	w2, #2
1000033a8: ae fb ff 97 	bl	0x100002260 <___rust_dealloc>
1000033ac: 68 92 40 f9 	ldr	x8, [x19, #288]
1000033b0: e8 00 00 b4 	cbz	x8, 0x1000033cc <__ZN4core3ptr275drop_in_place$LT$gimli..read..line..LineRows$LT$gimli..read..endian_slice..EndianSlice$LT$gimli..endianity..LittleEndian$GT$$C$gimli..read..line..IncompleteLineProgram$LT$gimli..read..endian_slice..EndianSlice$LT$gimli..endianity..LittleEndian$GT$$C$usize$GT$$C$usize$GT$$GT$17hd8daeb0eb3c03c6eE+0x7c>
1000033b4: 60 96 40 f9 	ldr	x0, [x19, #296]
1000033b8: 01 e5 7a d3 	lsl	x1, x8, #6
1000033bc: 02 01 80 52 	mov	w2, #8
1000033c0: fd 7b 41 a9 	ldp	x29, x30, [sp, #16]
1000033c4: f4 4f c2 a8 	ldp	x20, x19, [sp], #32
1000033c8: a6 fb ff 17 	b	0x100002260 <___rust_dealloc>
1000033cc: fd 7b 41 a9 	ldp	x29, x30, [sp, #16]
1000033d0: f4 4f c2 a8 	ldp	x20, x19, [sp], #32
1000033d4: c0 03 5f d6 	ret

00000001000033d8 <__ZN4core3ptr285drop_in_place$LT$alloc..boxed..Box$LT$$u5b$$LP$gimli..read..UnitOffset$C$addr2line..lazy..LazyCell$LT$core..result..Result$LT$addr2line..function..Function$LT$gimli..read..endian_slice..EndianSlice$LT$gimli..endianity..LittleEndian$GT$$GT$$C$gimli..read..Error$GT$$GT$$RP$$u5d$$GT$$GT$17h811618589946cfafE>:
1000033d8: f6 57 bd a9 	stp	x22, x21, [sp, #-48]!
1000033dc: f4 4f 01 a9 	stp	x20, x19, [sp, #16]
1000033e0: fd 7b 02 a9 	stp	x29, x30, [sp, #32]
1000033e4: fd 83 00 91 	add	x29, sp, #32
1000033e8: 08 04 40 f9 	ldr	x8, [x0, #8]
1000033ec: a8 04 00 b4 	cbz	x8, 0x100003480 <__ZN4core3ptr285drop_in_place$LT$alloc..boxed..Box$LT$$u5b$$LP$gimli..read..UnitOffset$C$addr2line..lazy..LazyCell$LT$core..result..Result$LT$addr2line..function..Function$LT$gimli..read..endian_slice..EndianSlice$LT$gimli..endianity..LittleEndian$GT$$GT$$C$gimli..read..Error$GT$$GT$$RP$$u5d$$GT$$GT$17h811618589946cfafE+0xa8>
1000033f0: f3 03 00 aa 	mov	x19, x0
1000033f4: 09 00 40 f9 	ldr	x9, [x0]
1000033f8: 34 e1 00 91 	add	x20, x9, #56
1000033fc: 08 0d 08 8b 	add	x8, x8, x8, lsl #3
100003400: 15 f1 7d d3 	lsl	x21, x8, #3
100003404: 04 00 00 14 	b	0x100003414 <__ZN4core3ptr285drop_in_place$LT$alloc..boxed..Box$LT$$u5b$$LP$gimli..read..UnitOffset$C$addr2line..lazy..LazyCell$LT$core..result..Result$LT$addr2line..function..Function$LT$gimli..read..endian_slice..EndianSlice$LT$gimli..endianity..LittleEndian$GT$$GT$$C$gimli..read..Error$GT$$GT$$RP$$u5d$$GT$$GT$17h811618589946cfafE+0x3c>
100003408: 94 22 01 91 	add	x20, x20, #72
10000340c: b5 22 01 f1 	subs	x21, x21, #72
100003410: 40 02 00 54 	b.eq	0x100003458 <__ZN4core3ptr285drop_in_place$LT$alloc..boxed..Box$LT$$u5b$$LP$gimli..read..UnitOffset$C$addr2line..lazy..LazyCell$LT$core..result..Result$LT$addr2line..function..Function$LT$gimli..read..endian_slice..EndianSlice$LT$gimli..endianity..LittleEndian$GT$$GT$$C$gimli..read..Error$GT$$GT$$RP$$u5d$$GT$$GT$17h811618589946cfafE+0x80>
100003414: 88 02 5d f8 	ldur	x8, [x20, #-48]
100003418: 88 ff ff b4 	cbz	x8, 0x100003408 <__ZN4core3ptr285drop_in_place$LT$alloc..boxed..Box$LT$$u5b$$LP$gimli..read..UnitOffset$C$addr2line..lazy..LazyCell$LT$core..result..Result$LT$addr2line..function..Function$LT$gimli..read..endian_slice..EndianSlice$LT$gimli..endianity..LittleEndian$GT$$GT$$C$gimli..read..Error$GT$$GT$$RP$$u5d$$GT$$GT$17h811618589946cfafE+0x30>
10000341c: 80 82 5e f8 	ldur	x0, [x20, #-24]
100003420: 40 ff ff b4 	cbz	x0, 0x100003408 <__ZN4core3ptr285drop_in_place$LT$alloc..boxed..Box$LT$$u5b$$LP$gimli..read..UnitOffset$C$addr2line..lazy..LazyCell$LT$core..result..Result$LT$addr2line..function..Function$LT$gimli..read..endian_slice..EndianSlice$LT$gimli..endianity..LittleEndian$GT$$GT$$C$gimli..read..Error$GT$$GT$$RP$$u5d$$GT$$GT$17h811618589946cfafE+0x30>
100003424: 88 02 5f f8 	ldur	x8, [x20, #-16]
100003428: a8 00 00 b4 	cbz	x8, 0x10000343c <__ZN4core3ptr285drop_in_place$LT$alloc..boxed..Box$LT$$u5b$$LP$gimli..read..UnitOffset$C$addr2line..lazy..LazyCell$LT$core..result..Result$LT$addr2line..function..Function$LT$gimli..read..endian_slice..EndianSlice$LT$gimli..endianity..LittleEndian$GT$$GT$$C$gimli..read..Error$GT$$GT$$RP$$u5d$$GT$$GT$17h811618589946cfafE+0x64>
10000342c: 08 09 08 8b 	add	x8, x8, x8, lsl #2
100003430: 01 f1 7d d3 	lsl	x1, x8, #3
100003434: 02 01 80 52 	mov	w2, #8
100003438: 8a fb ff 97 	bl	0x100002260 <___rust_dealloc>
10000343c: 88 02 40 f9 	ldr	x8, [x20]
100003440: 48 fe ff b4 	cbz	x8, 0x100003408 <__ZN4core3ptr285drop_in_place$LT$alloc..boxed..Box$LT$$u5b$$LP$gimli..read..UnitOffset$C$addr2line..lazy..LazyCell$LT$core..result..Result$LT$addr2line..function..Function$LT$gimli..read..endian_slice..EndianSlice$LT$gimli..endianity..LittleEndian$GT$$GT$$C$gimli..read..Error$GT$$GT$$RP$$u5d$$GT$$GT$17h811618589946cfafE+0x30>
100003444: 80 82 5f f8 	ldur	x0, [x20, #-8]
100003448: 01 e9 7b d3 	lsl	x1, x8, #5
10000344c: 02 01 80 52 	mov	w2, #8
100003450: 84 fb ff 97 	bl	0x100002260 <___rust_dealloc>
100003454: ed ff ff 17 	b	0x100003408 <__ZN4core3ptr285drop_in_place$LT$alloc..boxed..Box$LT$$u5b$$LP$gimli..read..UnitOffset$C$addr2line..lazy..LazyCell$LT$core..result..Result$LT$addr2line..function..Function$LT$gimli..read..endian_slice..EndianSlice$LT$gimli..endianity..LittleEndian$GT$$GT$$C$gimli..read..Error$GT$$GT$$RP$$u5d$$GT$$GT$17h811618589946cfafE+0x30>
100003458: 68 06 40 f9 	ldr	x8, [x19, #8]
10000345c: 28 01 00 b4 	cbz	x8, 0x100003480 <__ZN4core3ptr285drop_in_place$LT$alloc..boxed..Box$LT$$u5b$$LP$gimli..read..UnitOffset$C$addr2line..lazy..LazyCell$LT$core..result..Result$LT$addr2line..function..Function$LT$gimli..read..endian_slice..EndianSlice$LT$gimli..endianity..LittleEndian$GT$$GT$$C$gimli..read..Error$GT$$GT$$RP$$u5d$$GT$$GT$17h811618589946cfafE+0xa8>
100003460: 60 02 40 f9 	ldr	x0, [x19]
100003464: 08 0d 08 8b 	add	x8, x8, x8, lsl #3
100003468: 01 f1 7d d3 	lsl	x1, x8, #3
10000346c: 02 01 80 52 	mov	w2, #8
100003470: fd 7b 42 a9 	ldp	x29, x30, [sp, #32]
100003474: f4 4f 41 a9 	ldp	x20, x19, [sp, #16]
100003478: f6 57 c3 a8 	ldp	x22, x21, [sp], #48
10000347c: 79 fb ff 17 	b	0x100002260 <___rust_dealloc>
100003480: fd 7b 42 a9 	ldp	x29, x30, [sp, #32]
100003484: f4 4f 41 a9 	ldp	x20, x19, [sp, #16]
100003488: f6 57 c3 a8 	ldp	x22, x21, [sp], #48
10000348c: c0 03 5f d6 	ret

0000000100003490 <__ZN4core3ptr37drop_in_place$LT$std..fs..ReadDir$GT$17h300430d14097794aE>:
100003490: 08 00 40 f9 	ldr	x8, [x0]
100003494: 09 00 80 92 	mov	x9, #-1
100003498: 08 01 69 f8 	<unknown>
10000349c: 1f 05 00 f1 	cmp	x8, #1
1000034a0: 81 00 00 54 	b.ne	0x1000034b0 <__ZN4core3ptr37drop_in_place$LT$std..fs..ReadDir$GT$17h300430d14097794aE+0x20>
1000034a4: bf 39 03 d5 	dmb	ishld
1000034a8: 00 00 40 f9 	ldr	x0, [x0]
1000034ac: d8 0e 00 14 	b	0x10000700c <__ZN5alloc4sync12Arc$LT$T$GT$9drop_slow17h2f45d96fe8874f36E>
1000034b0: c0 03 5f d6 	ret

00000001000034b4 <__ZN4core3ptr38drop_in_place$LT$std..fs..DirEntry$GT$17hdc3102bd6a9e7b7fE>:
1000034b4: 08 0c 42 f9 	ldr	x8, [x0, #1048]
1000034b8: 09 00 80 92 	mov	x9, #-1
1000034bc: 08 01 69 f8 	<unknown>
1000034c0: 1f 05 00 f1 	cmp	x8, #1
1000034c4: 81 00 00 54 	b.ne	0x1000034d4 <__ZN4core3ptr38drop_in_place$LT$std..fs..DirEntry$GT$17hdc3102bd6a9e7b7fE+0x20>
1000034c8: bf 39 03 d5 	dmb	ishld
1000034cc: 00 0c 42 f9 	ldr	x0, [x0, #1048]
1000034d0: cf 0e 00 14 	b	0x10000700c <__ZN5alloc4sync12Arc$LT$T$GT$9drop_slow17h2f45d96fe8874f36E>
1000034d4: c0 03 5f d6 	ret

00000001000034d8 <__ZN4core3ptr40drop_in_place$LT$std..thread..Thread$GT$17h10caa94dcf3e22cfE>:
1000034d8: 08 00 40 f9 	ldr	x8, [x0]
1000034dc: 09 00 80 92 	mov	x9, #-1
1000034e0: 08 01 69 f8 	<unknown>
1000034e4: 1f 05 00 f1 	cmp	x8, #1
1000034e8: 81 00 00 54 	b.ne	0x1000034f8 <__ZN4core3ptr40drop_in_place$LT$std..thread..Thread$GT$17h10caa94dcf3e22cfE+0x20>
1000034ec: bf 39 03 d5 	dmb	ishld
1000034f0: 00 00 40 f9 	ldr	x0, [x0]
1000034f4: e8 0e 00 14 	b	0x100007094 <__ZN5alloc4sync12Arc$LT$T$GT$9drop_slow17h535f0dc62d8af681E>
1000034f8: c0 03 5f d6 	ret

00000001000034fc <__ZN4core3ptr42drop_in_place$LT$std..io..error..Error$GT$17h7be32bfc5df21898E>:
1000034fc: f4 4f be a9 	stp	x20, x19, [sp, #-32]!
100003500: fd 7b 01 a9 	stp	x29, x30, [sp, #16]
100003504: fd 43 00 91 	add	x29, sp, #16
100003508: 14 00 40 f9 	ldr	x20, [x0]
10000350c: 88 06 40 92 	and	x8, x20, #0x3
100003510: 1f 05 00 f1 	cmp	x8, #1
100003514: 41 02 00 54 	b.ne	0x10000355c <__ZN4core3ptr42drop_in_place$LT$std..io..error..Error$GT$17h7be32bfc5df21898E+0x60>
100003518: f3 03 14 aa 	mov	x19, x20
10000351c: 60 fe 5f f8 	ldr	x0, [x19, #-1]!
100003520: 68 06 40 f9 	ldr	x8, [x19, #8]
100003524: 08 01 40 f9 	ldr	x8, [x8]
100003528: 00 01 3f d6 	blr	x8
10000352c: 88 72 40 f8 	ldur	x8, [x20, #7]
100003530: 01 05 40 f9 	ldr	x1, [x8, #8]
100003534: 81 00 00 b4 	cbz	x1, 0x100003544 <__ZN4core3ptr42drop_in_place$LT$std..io..error..Error$GT$17h7be32bfc5df21898E+0x48>
100003538: 02 09 40 f9 	ldr	x2, [x8, #16]
10000353c: 60 02 40 f9 	ldr	x0, [x19]
100003540: 48 fb ff 97 	bl	0x100002260 <___rust_dealloc>
100003544: e0 03 13 aa 	mov	x0, x19
100003548: 01 03 80 52 	mov	w1, #24
10000354c: 02 01 80 52 	mov	w2, #8
100003550: fd 7b 41 a9 	ldp	x29, x30, [sp, #16]
100003554: f4 4f c2 a8 	ldp	x20, x19, [sp], #32
100003558: 42 fb ff 17 	b	0x100002260 <___rust_dealloc>
10000355c: fd 7b 41 a9 	ldp	x29, x30, [sp, #16]
100003560: f4 4f c2 a8 	ldp	x20, x19, [sp], #32
100003564: c0 03 5f d6 	ret
100003568: e8 03 14 aa 	mov	x8, x20
10000356c: f4 03 00 aa 	mov	x20, x0
100003570: 00 f1 5f f8 	ldur	x0, [x8, #-1]
100003574: 08 71 40 f8 	ldur	x8, [x8, #7]
100003578: 01 89 40 a9 	ldp	x1, x2, [x8, #8]
10000357c: 3a 0f 00 94 	bl	0x100007264 <__ZN5alloc5alloc8box_free17h451b979ec62a4309E>
100003580: e0 03 13 aa 	mov	x0, x19
100003584: 43 0f 00 94 	bl	0x100007290 <__ZN5alloc5alloc8box_free17hc8cb259e0594c028E>
100003588: e0 03 14 aa 	mov	x0, x20
10000358c: 31 ba 00 94 	bl	0x100031e50 <_writev+0x100031e50>

0000000100003590 <__ZN4core3ptr432drop_in_place$LT$core..slice..sort..merge_sort..BufGuard$LT$addr2line..UnitRange$C$alloc..slice..stable_sort$LT$addr2line..UnitRange$C$alloc..slice..$LT$impl$u20$$u5b$addr2line..UnitRange$u5d$$GT$..sort_by_key$LT$u64$C$addr2line..ResDwarf$LT$gimli..read..endian_slice..EndianSlice$LT$gimli..endianity..LittleEndian$GT$$GT$..parse..$u7b$$u7b$closure$u7d$$u7d$$GT$..$u7b$$u7b$closure$u7d$$u7d$$GT$..$u7b$$u7b$closure$u7d$$u7d$$GT$$GT$17h666b63ae04b4723dE>:
100003590: 21 e8 7b d3 	lsl	x1, x1, #5
100003594: 02 01 80 52 	mov	w2, #8
100003598: 32 fb ff 17 	b	0x100002260 <___rust_dealloc>

000000010000359c <__ZN4core3ptr44drop_in_place$LT$addr2line..LineSequence$GT$17h42219533fa134776E>:
10000359c: a1 00 00 b4 	cbz	x1, 0x1000035b0 <__ZN4core3ptr44drop_in_place$LT$addr2line..LineSequence$GT$17h42219533fa134776E+0x14>
1000035a0: 28 04 01 8b 	add	x8, x1, x1, lsl #1
1000035a4: 01 f1 7d d3 	lsl	x1, x8, #3
1000035a8: 02 01 80 52 	mov	w2, #8
1000035ac: 2d fb ff 17 	b	0x100002260 <___rust_dealloc>
1000035b0: c0 03 5f d6 	ret

00000001000035b4 <__ZN4core3ptr44drop_in_place$LT$object..read..ObjectMap$GT$17h1b98f95b198bf2d1E>:
1000035b4: f4 4f be a9 	stp	x20, x19, [sp, #-32]!
1000035b8: fd 7b 01 a9 	stp	x29, x30, [sp, #16]
1000035bc: fd 43 00 91 	add	x29, sp, #16
1000035c0: f3 03 00 aa 	mov	x19, x0
1000035c4: 08 00 40 f9 	ldr	x8, [x0]
1000035c8: c8 00 00 b4 	cbz	x8, 0x1000035e0 <__ZN4core3ptr44drop_in_place$LT$object..read..ObjectMap$GT$17h1b98f95b198bf2d1E+0x2c>
1000035cc: 60 06 40 f9 	ldr	x0, [x19, #8]
1000035d0: 08 09 08 8b 	add	x8, x8, x8, lsl #2
1000035d4: 01 f1 7d d3 	lsl	x1, x8, #3
1000035d8: 02 01 80 52 	mov	w2, #8
1000035dc: 21 fb ff 97 	bl	0x100002260 <___rust_dealloc>
1000035e0: 68 0e 40 f9 	ldr	x8, [x19, #24]
1000035e4: e8 00 00 b4 	cbz	x8, 0x100003600 <__ZN4core3ptr44drop_in_place$LT$object..read..ObjectMap$GT$17h1b98f95b198bf2d1E+0x4c>
1000035e8: 60 12 40 f9 	ldr	x0, [x19, #32]
1000035ec: 01 ed 7c d3 	lsl	x1, x8, #4
1000035f0: 02 01 80 52 	mov	w2, #8
1000035f4: fd 7b 41 a9 	ldp	x29, x30, [sp, #16]
1000035f8: f4 4f c2 a8 	ldp	x20, x19, [sp], #32
1000035fc: 19 fb ff 17 	b	0x100002260 <___rust_dealloc>
100003600: fd 7b 41 a9 	ldp	x29, x30, [sp, #16]
100003604: f4 4f c2 a8 	ldp	x20, x19, [sp], #32
100003608: c0 03 5f d6 	ret

000000010000360c <__ZN4core3ptr44drop_in_place$LT$std..thread..PanicGuard$GT$17h0f6bc34806869df6E>:
10000360c: ff 43 02 d1 	sub	sp, sp, #144
100003610: fd 7b 08 a9 	stp	x29, x30, [sp, #128]
100003614: fd 03 02 91 	add	x29, sp, #128
100003618: 48 98 1e 10 	adr	x8, #250632
10000361c: 1f 20 03 d5 	nop
100003620: 29 00 80 52 	mov	w9, #1
100003624: 6a 02 18 10 	adr	x10, #196684
100003628: 1f 20 03 d5 	nop
10000362c: a8 a7 3d a9 	stp	x8, x9, [x29, #-40]
100003630: bf 83 1c f8 	stur	xzr, [x29, #-56]
100003634: aa ff 3e a9 	stp	x10, xzr, [x29, #-24]
100003638: 68 db 13 10 	adr	x8, #162668
10000363c: 1f 20 03 d5 	nop
100003640: aa e3 00 d1 	sub	x10, x29, #56
100003644: ea a3 03 a9 	stp	x10, x8, [sp, #56]
100003648: 08 92 1e 10 	adr	x8, #250432
10000364c: 1f 20 03 d5 	nop
100003650: 4a 00 80 52 	mov	w10, #2
100003654: e8 ab 01 a9 	stp	x8, x10, [sp, #24]
100003658: ff 07 00 f9 	str	xzr, [sp, #8]
10000365c: e8 e3 00 91 	add	x8, sp, #56
100003660: e8 a7 02 a9 	stp	x8, x9, [sp, #40]
100003664: a0 23 00 d1 	sub	x0, x29, #8
100003668: e1 23 00 91 	add	x1, sp, #8
10000366c: 75 51 00 94 	bl	0x100017c40 <__ZN3std2io5Write9write_fmt17h6c907fc10bdb865bE>
100003670: fd 01 00 94 	bl	0x100003e64 <__ZN4core3ptr81drop_in_place$LT$core..result..Result$LT$$LP$$RP$$C$std..io..error..Error$GT$$GT$17h421bfcd47a54d841E>
100003674: 7d 65 00 94 	bl	0x10001cc68 <__ZN3std3sys4unix14abort_internal17h3188f2fbc80a5f52E>

0000000100003678 <__ZN4core3ptr46drop_in_place$LT$alloc..vec..Vec$LT$u8$GT$$GT$17h8a41575d9a8507fcE>:
100003678: 01 00 40 f9 	ldr	x1, [x0]
10000367c: a1 00 00 b4 	cbz	x1, 0x100003690 <__ZN4core3ptr46drop_in_place$LT$alloc..vec..Vec$LT$u8$GT$$GT$17h8a41575d9a8507fcE+0x18>
100003680: 00 04 40 f9 	ldr	x0, [x0, #8]
100003684: e8 03 21 aa 	mvn	x8, x1
100003688: 02 fd 7f d3 	lsr	x2, x8, #63
10000368c: f5 fa ff 17 	b	0x100002260 <___rust_dealloc>
100003690: c0 03 5f d6 	ret

0000000100003694 <__ZN4core3ptr46drop_in_place$LT$std..io..stdio..StdinLock$GT$17he15254528e8124acE>:
100003694: f4 4f be a9 	stp	x20, x19, [sp, #-32]!
100003698: fd 7b 01 a9 	stp	x29, x30, [sp, #16]
10000369c: fd 43 00 91 	add	x29, sp, #16
1000036a0: f3 03 00 aa 	mov	x19, x0
1000036a4: 3f 1c 00 72 	tst	w1, #0xff
1000036a8: a1 00 00 54 	b.ne	0x1000036bc <__ZN4core3ptr46drop_in_place$LT$std..io..stdio..StdinLock$GT$17he15254528e8124acE+0x28>
1000036ac: 1f 20 03 d5 	nop
1000036b0: 48 5b 20 58 	ldr	x8, 0x100044218 <__ZN3std9panicking11panic_count18GLOBAL_PANIC_COUNT17h0ce8dbce44152d69E>
1000036b4: 1f f9 40 f2 	tst	x8, #0x7fffffffffffffff
1000036b8: 21 01 00 54 	b.ne	0x1000036dc <__ZN4core3ptr46drop_in_place$LT$std..io..stdio..StdinLock$GT$17he15254528e8124acE+0x48>
1000036bc: 60 fe df c8 	ldar	x0, [x19]
1000036c0: 80 00 00 b4 	cbz	x0, 0x1000036d0 <__ZN4core3ptr46drop_in_place$LT$std..io..stdio..StdinLock$GT$17he15254528e8124acE+0x3c>
1000036c4: fd 7b 41 a9 	ldp	x29, x30, [sp, #16]
1000036c8: f4 4f c2 a8 	ldp	x20, x19, [sp], #32
1000036cc: 53 ba 00 14 	b	0x100032018 <_writev+0x100032018>
1000036d0: e0 03 13 aa 	mov	x0, x19
1000036d4: de b6 00 94 	bl	0x10003124c <__ZN3std10sys_common8lazy_box16LazyBox$LT$T$GT$10initialize17hf28dc92e2aff4a75E>
1000036d8: fb ff ff 17 	b	0x1000036c4 <__ZN4core3ptr46drop_in_place$LT$std..io..stdio..StdinLock$GT$17he15254528e8124acE+0x30>
1000036dc: f3 b6 00 94 	bl	0x1000312a8 <__ZN3std9panicking11panic_count17is_zero_slow_path17h3a19aa98bc580176E>
1000036e0: e0 fe 07 37 	tbnz	w0, #0, 0x1000036bc <__ZN4core3ptr46drop_in_place$LT$std..io..stdio..StdinLock$GT$17he15254528e8124acE+0x28>
1000036e4: 28 00 80 52 	mov	w8, #1
1000036e8: 68 22 00 39 	strb	w8, [x19, #8]
1000036ec: f4 ff ff 17 	b	0x1000036bc <__ZN4core3ptr46drop_in_place$LT$std..io..stdio..StdinLock$GT$17he15254528e8124acE+0x28>

00000001000036f0 <__ZN4core3ptr47drop_in_place$LT$alloc..ffi..c_str..CString$GT$17h00673c9070c1738eE>:
1000036f0: 08 00 40 f9 	ldr	x8, [x0]
1000036f4: 1f 01 00 39 	strb	wzr, [x8]
1000036f8: 01 04 40 f9 	ldr	x1, [x0, #8]
1000036fc: 81 00 00 b4 	cbz	x1, 0x10000370c <__ZN4core3ptr47drop_in_place$LT$alloc..ffi..c_str..CString$GT$17h00673c9070c1738eE+0x1c>
100003700: 00 00 40 f9 	ldr	x0, [x0]
100003704: 22 00 80 52 	mov	w2, #1
100003708: d6 fa ff 17 	b	0x100002260 <___rust_dealloc>
10000370c: c0 03 5f d6 	ret

0000000100003710 <__ZN4core3ptr491drop_in_place$LT$core..slice..sort..merge_sort..BufGuard$LT$addr2line..function..FunctionAddress$C$alloc..slice..stable_sort$LT$addr2line..function..FunctionAddress$C$alloc..slice..$LT$impl$u20$$u5b$addr2line..function..FunctionAddress$u5d$$GT$..sort_by_key$LT$u64$C$addr2line..function..Functions$LT$gimli..read..endian_slice..EndianSlice$LT$gimli..endianity..LittleEndian$GT$$GT$..parse..$u7b$$u7b$closure$u7d$$u7d$$GT$..$u7b$$u7b$closure$u7d$$u7d$$GT$..$u7b$$u7b$closure$u7d$$u7d$$GT$$GT$17hb28256d492629c2eE>:
100003710: 28 04 01 8b 	add	x8, x1, x1, lsl #1
100003714: 01 f1 7d d3 	lsl	x1, x8, #3
100003718: 02 01 80 52 	mov	w2, #8
10000371c: d1 fa ff 17 	b	0x100002260 <___rust_dealloc>

0000000100003720 <__ZN4core3ptr50drop_in_place$LT$alloc..borrow..Cow$LT$str$GT$$GT$17h0b90612ed5152687E>:
100003720: 08 00 40 f9 	ldr	x8, [x0]
100003724: e8 00 00 b4 	cbz	x8, 0x100003740 <__ZN4core3ptr50drop_in_place$LT$alloc..borrow..Cow$LT$str$GT$$GT$17h0b90612ed5152687E+0x20>
100003728: 01 04 40 f9 	ldr	x1, [x0, #8]
10000372c: a1 00 00 b4 	cbz	x1, 0x100003740 <__ZN4core3ptr50drop_in_place$LT$alloc..borrow..Cow$LT$str$GT$$GT$17h0b90612ed5152687E+0x20>
100003730: 00 08 40 f9 	ldr	x0, [x0, #16]
100003734: e8 03 21 aa 	mvn	x8, x1
100003738: 02 fd 7f d3 	lsr	x2, x8, #63
10000373c: c9 fa ff 17 	b	0x100002260 <___rust_dealloc>
100003740: c0 03 5f d6 	ret

0000000100003744 <__ZN4core3ptr52drop_in_place$LT$gimli..read..abbrev..Attributes$GT$17hcd91fb007927aeefE>:
100003744: 08 00 40 f9 	ldr	x8, [x0]
100003748: e8 00 00 b4 	cbz	x8, 0x100003764 <__ZN4core3ptr52drop_in_place$LT$gimli..read..abbrev..Attributes$GT$17hcd91fb007927aeefE+0x20>
10000374c: 08 04 40 f9 	ldr	x8, [x0, #8]
100003750: a8 00 00 b4 	cbz	x8, 0x100003764 <__ZN4core3ptr52drop_in_place$LT$gimli..read..abbrev..Attributes$GT$17hcd91fb007927aeefE+0x20>
100003754: 00 08 40 f9 	ldr	x0, [x0, #16]
100003758: 01 ed 7c d3 	lsl	x1, x8, #4
10000375c: 02 01 80 52 	mov	w2, #8
100003760: c0 fa ff 17 	b	0x100002260 <___rust_dealloc>
100003764: c0 03 5f d6 	ret

0000000100003768 <__ZN4core3ptr55drop_in_place$LT$gimli..read..abbrev..Abbreviations$GT$17he434014350d490f3E>:
100003768: ff 43 02 d1 	sub	sp, sp, #144
10000376c: f6 57 06 a9 	stp	x22, x21, [sp, #96]
100003770: f4 4f 07 a9 	stp	x20, x19, [sp, #112]
100003774: fd 7b 08 a9 	stp	x29, x30, [sp, #128]
100003778: fd 03 02 91 	add	x29, sp, #128
10000377c: f3 03 00 aa 	mov	x19, x0
100003780: 08 14 40 f9 	ldr	x8, [x0, #40]
100003784: 48 02 00 b4 	cbz	x8, 0x1000037cc <__ZN4core3ptr55drop_in_place$LT$gimli..read..abbrev..Abbreviations$GT$17he434014350d490f3E+0x64>
100003788: 69 12 40 f9 	ldr	x9, [x19, #32]
10000378c: 34 41 00 91 	add	x20, x9, #16
100003790: 09 0e 80 52 	mov	w9, #112
100003794: 15 7d 09 9b 	mul	x21, x8, x9
100003798: 04 00 00 14 	b	0x1000037a8 <__ZN4core3ptr55drop_in_place$LT$gimli..read..abbrev..Abbreviations$GT$17he434014350d490f3E+0x40>
10000379c: 94 c2 01 91 	add	x20, x20, #112
1000037a0: b5 c2 01 f1 	subs	x21, x21, #112
1000037a4: 40 01 00 54 	b.eq	0x1000037cc <__ZN4core3ptr55drop_in_place$LT$gimli..read..abbrev..Abbreviations$GT$17he434014350d490f3E+0x64>
1000037a8: 88 02 5f f8 	ldur	x8, [x20, #-16]
1000037ac: 88 ff ff b4 	cbz	x8, 0x10000379c <__ZN4core3ptr55drop_in_place$LT$gimli..read..abbrev..Abbreviations$GT$17he434014350d490f3E+0x34>
1000037b0: 88 82 5f f8 	ldur	x8, [x20, #-8]
1000037b4: 48 ff ff b4 	cbz	x8, 0x10000379c <__ZN4core3ptr55drop_in_place$LT$gimli..read..abbrev..Abbreviations$GT$17he434014350d490f3E+0x34>
1000037b8: 80 02 40 f9 	ldr	x0, [x20]
1000037bc: 01 ed 7c d3 	lsl	x1, x8, #4
1000037c0: 02 01 80 52 	mov	w2, #8
1000037c4: a7 fa ff 97 	bl	0x100002260 <___rust_dealloc>
1000037c8: f5 ff ff 17 	b	0x10000379c <__ZN4core3ptr55drop_in_place$LT$gimli..read..abbrev..Abbreviations$GT$17he434014350d490f3E+0x34>
1000037cc: 68 0e 40 f9 	ldr	x8, [x19, #24]
1000037d0: c8 00 00 b4 	cbz	x8, 0x1000037e8 <__ZN4core3ptr55drop_in_place$LT$gimli..read..abbrev..Abbreviations$GT$17he434014350d490f3E+0x80>
1000037d4: 60 12 40 f9 	ldr	x0, [x19, #32]
1000037d8: 09 0e 80 52 	mov	w9, #112
1000037dc: 01 7d 09 9b 	mul	x1, x8, x9
1000037e0: 02 01 80 52 	mov	w2, #8
1000037e4: 9f fa ff 97 	bl	0x100002260 <___rust_dealloc>
1000037e8: 6a 06 40 f9 	ldr	x10, [x19, #8]
1000037ec: 0a 01 00 b4 	cbz	x10, 0x10000380c <__ZN4core3ptr55drop_in_place$LT$gimli..read..abbrev..Abbreviations$GT$17he434014350d490f3E+0xa4>
1000037f0: 08 00 80 d2 	mov	x8, #0
1000037f4: 69 0a 40 f9 	ldr	x9, [x19, #16]
1000037f8: 6b 02 40 f9 	ldr	x11, [x19]
1000037fc: ff 2f 00 a9 	stp	xzr, x11, [sp]
100003800: ea 0b 00 f9 	str	x10, [sp, #16]
100003804: eb ab 02 a9 	stp	x11, x10, [sp, #40]
100003808: 04 00 00 14 	b	0x100003818 <__ZN4core3ptr55drop_in_place$LT$gimli..read..abbrev..Abbreviations$GT$17he434014350d490f3E+0xb0>
10000380c: 09 00 80 d2 	mov	x9, #0
100003810: 48 00 80 52 	mov	w8, #2
100003814: e8 03 00 f9 	str	x8, [sp]
100003818: e8 13 00 f9 	str	x8, [sp, #32]
10000381c: e9 23 00 f9 	str	x9, [sp, #64]
100003820: a0 e3 00 d1 	sub	x0, x29, #56
100003824: e1 03 00 91 	mov	x1, sp
100003828: 7a 0d 00 94 	bl	0x100006e10 <__ZN5alloc11collections5btree3map25IntoIter$LT$K$C$V$C$A$GT$10dying_next17h30368679ac90142fE>
10000382c: a8 03 5d f8 	ldur	x8, [x29, #-48]
100003830: 68 02 00 b4 	cbz	x8, 0x10000387c <__ZN4core3ptr55drop_in_place$LT$gimli..read..abbrev..Abbreviations$GT$17he434014350d490f3E+0x114>
100003834: 13 0e 80 52 	mov	w19, #112
100003838: 06 00 00 14 	b	0x100003850 <__ZN4core3ptr55drop_in_place$LT$gimli..read..abbrev..Abbreviations$GT$17he434014350d490f3E+0xe8>
10000383c: a0 e3 00 d1 	sub	x0, x29, #56
100003840: e1 03 00 91 	mov	x1, sp
100003844: 73 0d 00 94 	bl	0x100006e10 <__ZN5alloc11collections5btree3map25IntoIter$LT$K$C$V$C$A$GT$10dying_next17h30368679ac90142fE>
100003848: a8 03 5d f8 	ldur	x8, [x29, #-48]
10000384c: 88 01 00 b4 	cbz	x8, 0x10000387c <__ZN4core3ptr55drop_in_place$LT$gimli..read..abbrev..Abbreviations$GT$17he434014350d490f3E+0x114>
100003850: a9 83 5d f8 	ldur	x9, [x29, #-40]
100003854: 28 21 13 9b 	madd	x8, x9, x19, x8
100003858: 09 01 40 f9 	ldr	x9, [x8]
10000385c: 09 ff ff b4 	cbz	x9, 0x10000383c <__ZN4core3ptr55drop_in_place$LT$gimli..read..abbrev..Abbreviations$GT$17he434014350d490f3E+0xd4>
100003860: 09 05 40 f9 	ldr	x9, [x8, #8]
100003864: c9 fe ff b4 	cbz	x9, 0x10000383c <__ZN4core3ptr55drop_in_place$LT$gimli..read..abbrev..Abbreviations$GT$17he434014350d490f3E+0xd4>
100003868: 00 09 40 f9 	ldr	x0, [x8, #16]
10000386c: 21 ed 7c d3 	lsl	x1, x9, #4
100003870: 02 01 80 52 	mov	w2, #8
100003874: 7b fa ff 97 	bl	0x100002260 <___rust_dealloc>
100003878: f1 ff ff 17 	b	0x10000383c <__ZN4core3ptr55drop_in_place$LT$gimli..read..abbrev..Abbreviations$GT$17he434014350d490f3E+0xd4>
10000387c: fd 7b 48 a9 	ldp	x29, x30, [sp, #128]
100003880: f4 4f 47 a9 	ldp	x20, x19, [sp, #112]
100003884: f6 57 46 a9 	ldp	x22, x21, [sp, #96]
100003888: ff 43 02 91 	add	sp, sp, #144
10000388c: c0 03 5f d6 	ret

0000000100003890 <__ZN4core3ptr60drop_in_place$LT$alloc..vec..Vec$LT$$RF$$u5b$u8$u5d$$GT$$GT$17hd9ff47b97b14affbE>:
100003890: 08 00 40 f9 	ldr	x8, [x0]
100003894: a8 00 00 b4 	cbz	x8, 0x1000038a8 <__ZN4core3ptr60drop_in_place$LT$alloc..vec..Vec$LT$$RF$$u5b$u8$u5d$$GT$$GT$17hd9ff47b97b14affbE+0x18>
100003898: 00 04 40 f9 	ldr	x0, [x0, #8]
10000389c: 01 ed 7c d3 	lsl	x1, x8, #4
1000038a0: 02 01 80 52 	mov	w2, #8
1000038a4: 6f fa ff 17 	b	0x100002260 <___rust_dealloc>
1000038a8: c0 03 5f d6 	ret

00000001000038ac <__ZN4core3ptr62drop_in_place$LT$std..sys_common..once..queue..WaiterQueue$GT$17h56d189fdb1defca2E>:
1000038ac: a7 65 00 14 	b	0x10001cf48 <__ZN83_$LT$std..sys_common..once..queue..WaiterQueue$u20$as$u20$core..ops..drop..Drop$GT$4drop17ha74a30f8f838325aE>

00000001000038b0 <__ZN4core3ptr64drop_in_place$LT$alloc..vec..Vec$LT$addr2line..UnitRange$GT$$GT$17hbdd5d27f6c8d281eE>:
1000038b0: 08 00 40 f9 	ldr	x8, [x0]
1000038b4: a8 00 00 b4 	cbz	x8, 0x1000038c8 <__ZN4core3ptr64drop_in_place$LT$alloc..vec..Vec$LT$addr2line..UnitRange$GT$$GT$17hbdd5d27f6c8d281eE+0x18>
1000038b8: 00 04 40 f9 	ldr	x0, [x0, #8]
1000038bc: 01 e9 7b d3 	lsl	x1, x8, #5
1000038c0: 02 01 80 52 	mov	w2, #8
1000038c4: 67 fa ff 17 	b	0x100002260 <___rust_dealloc>
1000038c8: c0 03 5f d6 	ret

00000001000038cc <__ZN4core3ptr64drop_in_place$LT$std..backtrace_rs..print..BacktraceFrameFmt$GT$17habd517aef985049aE>:
1000038cc: 08 08 40 f9 	ldr	x8, [x0, #16]
1000038d0: 08 05 00 91 	add	x8, x8, #1
1000038d4: 08 08 00 f9 	str	x8, [x0, #16]
1000038d8: c0 03 5f d6 	ret

00000001000038dc <__ZN4core3ptr65drop_in_place$LT$alloc..vec..Vec$LT$alloc..string..String$GT$$GT$17h766bc07f62bf376dE>:
1000038dc: f6 57 bd a9 	stp	x22, x21, [sp, #-48]!
1000038e0: f4 4f 01 a9 	stp	x20, x19, [sp, #16]
1000038e4: fd 7b 02 a9 	stp	x29, x30, [sp, #32]
1000038e8: fd 83 00 91 	add	x29, sp, #32
1000038ec: f3 03 00 aa 	mov	x19, x0
1000038f0: 08 08 40 f9 	ldr	x8, [x0, #16]
1000038f4: 08 02 00 b4 	cbz	x8, 0x100003934 <__ZN4core3ptr65drop_in_place$LT$alloc..vec..Vec$LT$alloc..string..String$GT$$GT$17h766bc07f62bf376dE+0x58>
1000038f8: 69 06 40 f9 	ldr	x9, [x19, #8]
1000038fc: 34 21 00 91 	add	x20, x9, #8
100003900: 08 05 08 8b 	add	x8, x8, x8, lsl #1
100003904: 15 f1 7d d3 	lsl	x21, x8, #3
100003908: 04 00 00 14 	b	0x100003918 <__ZN4core3ptr65drop_in_place$LT$alloc..vec..Vec$LT$alloc..string..String$GT$$GT$17h766bc07f62bf376dE+0x3c>
10000390c: 94 62 00 91 	add	x20, x20, #24
100003910: b5 62 00 f1 	subs	x21, x21, #24
100003914: 00 01 00 54 	b.eq	0x100003934 <__ZN4core3ptr65drop_in_place$LT$alloc..vec..Vec$LT$alloc..string..String$GT$$GT$17h766bc07f62bf376dE+0x58>
100003918: 81 82 5f f8 	ldur	x1, [x20, #-8]
10000391c: 81 ff ff b4 	cbz	x1, 0x10000390c <__ZN4core3ptr65drop_in_place$LT$alloc..vec..Vec$LT$alloc..string..String$GT$$GT$17h766bc07f62bf376dE+0x30>
100003920: 80 02 40 f9 	ldr	x0, [x20]
100003924: e8 03 21 aa 	mvn	x8, x1
100003928: 02 fd 7f d3 	lsr	x2, x8, #63
10000392c: 4d fa ff 97 	bl	0x100002260 <___rust_dealloc>
100003930: f7 ff ff 17 	b	0x10000390c <__ZN4core3ptr65drop_in_place$LT$alloc..vec..Vec$LT$alloc..string..String$GT$$GT$17h766bc07f62bf376dE+0x30>
100003934: 68 02 40 f9 	ldr	x8, [x19]
100003938: 28 01 00 b4 	cbz	x8, 0x10000395c <__ZN4core3ptr65drop_in_place$LT$alloc..vec..Vec$LT$alloc..string..String$GT$$GT$17h766bc07f62bf376dE+0x80>
10000393c: 60 06 40 f9 	ldr	x0, [x19, #8]
100003940: 08 05 08 8b 	add	x8, x8, x8, lsl #1
100003944: 01 f1 7d d3 	lsl	x1, x8, #3
100003948: 02 01 80 52 	mov	w2, #8
10000394c: fd 7b 42 a9 	ldp	x29, x30, [sp, #32]
100003950: f4 4f 41 a9 	ldp	x20, x19, [sp, #16]
100003954: f6 57 c3 a8 	ldp	x22, x21, [sp], #48
100003958: 42 fa ff 17 	b	0x100002260 <___rust_dealloc>
10000395c: fd 7b 42 a9 	ldp	x29, x30, [sp, #32]
100003960: f4 4f 41 a9 	ldp	x20, x19, [sp, #16]
100003964: f6 57 c3 a8 	ldp	x22, x21, [sp], #48
100003968: c0 03 5f d6 	ret

000000010000396c <__ZN4core3ptr65drop_in_place$LT$std..backtrace_rs..symbolize..gimli..Mapping$GT$17h801bb9d24b81c098E>:
10000396c: f6 57 bd a9 	stp	x22, x21, [sp, #-48]!
100003970: f4 4f 01 a9 	stp	x20, x19, [sp, #16]
100003974: fd 7b 02 a9 	stp	x29, x30, [sp, #32]
100003978: fd 83 00 91 	add	x29, sp, #32
10000397c: f3 03 00 aa 	mov	x19, x0
100003980: 00 00 02 91 	add	x0, x0, #128
100003984: 8e fc ff 97 	bl	0x100002bbc <__ZN4core3ptr124drop_in_place$LT$addr2line..ResDwarf$LT$gimli..read..endian_slice..EndianSlice$LT$gimli..endianity..LittleEndian$GT$$GT$$GT$17h50040a4bedf94081E>
100003988: e0 03 13 aa 	mov	x0, x19
10000398c: 92 00 00 94 	bl	0x100003bd4 <__ZN4core3ptr71drop_in_place$LT$std..backtrace_rs..symbolize..gimli..macho..Object$GT$17hee8ebede9ce8202eE>
100003990: 60 06 4c a9 	ldp	x0, x1, [x19, #192]
100003994: 83 b9 00 94 	bl	0x100031fa0 <_writev+0x100031fa0>
100003998: 68 72 40 f9 	ldr	x8, [x19, #224]
10000399c: 08 02 00 b4 	cbz	x8, 0x1000039dc <__ZN4core3ptr65drop_in_place$LT$std..backtrace_rs..symbolize..gimli..Mapping$GT$17h801bb9d24b81c098E+0x70>
1000039a0: 69 6e 40 f9 	ldr	x9, [x19, #216]
1000039a4: 34 21 00 91 	add	x20, x9, #8
1000039a8: 08 05 08 8b 	add	x8, x8, x8, lsl #1
1000039ac: 15 f1 7d d3 	lsl	x21, x8, #3
1000039b0: 04 00 00 14 	b	0x1000039c0 <__ZN4core3ptr65drop_in_place$LT$std..backtrace_rs..symbolize..gimli..Mapping$GT$17h801bb9d24b81c098E+0x54>
1000039b4: 94 62 00 91 	add	x20, x20, #24
1000039b8: b5 62 00 f1 	subs	x21, x21, #24
1000039bc: 00 01 00 54 	b.eq	0x1000039dc <__ZN4core3ptr65drop_in_place$LT$std..backtrace_rs..symbolize..gimli..Mapping$GT$17h801bb9d24b81c098E+0x70>
1000039c0: 81 82 5f f8 	ldur	x1, [x20, #-8]
1000039c4: 81 ff ff b4 	cbz	x1, 0x1000039b4 <__ZN4core3ptr65drop_in_place$LT$std..backtrace_rs..symbolize..gimli..Mapping$GT$17h801bb9d24b81c098E+0x48>
1000039c8: 80 02 40 f9 	ldr	x0, [x20]
1000039cc: e8 03 21 aa 	mvn	x8, x1
1000039d0: 02 fd 7f d3 	lsr	x2, x8, #63
1000039d4: 23 fa ff 97 	bl	0x100002260 <___rust_dealloc>
1000039d8: f7 ff ff 17 	b	0x1000039b4 <__ZN4core3ptr65drop_in_place$LT$std..backtrace_rs..symbolize..gimli..Mapping$GT$17h801bb9d24b81c098E+0x48>
1000039dc: 68 6a 40 f9 	ldr	x8, [x19, #208]
1000039e0: c8 00 00 b4 	cbz	x8, 0x1000039f8 <__ZN4core3ptr65drop_in_place$LT$std..backtrace_rs..symbolize..gimli..Mapping$GT$17h801bb9d24b81c098E+0x8c>
1000039e4: 60 6e 40 f9 	ldr	x0, [x19, #216]
1000039e8: 08 05 08 8b 	add	x8, x8, x8, lsl #1
1000039ec: 01 f1 7d d3 	lsl	x1, x8, #3
1000039f0: 02 01 80 52 	mov	w2, #8
1000039f4: 1b fa ff 97 	bl	0x100002260 <___rust_dealloc>
1000039f8: 68 76 40 f9 	ldr	x8, [x19, #232]
1000039fc: c8 00 00 b4 	cbz	x8, 0x100003a14 <__ZN4core3ptr65drop_in_place$LT$std..backtrace_rs..symbolize..gimli..Mapping$GT$17h801bb9d24b81c098E+0xa8>
100003a00: 60 06 4f a9 	ldp	x0, x1, [x19, #240]
100003a04: fd 7b 42 a9 	ldp	x29, x30, [sp, #32]
100003a08: f4 4f 41 a9 	ldp	x20, x19, [sp, #16]
100003a0c: f6 57 c3 a8 	ldp	x22, x21, [sp], #48
100003a10: 64 b9 00 14 	b	0x100031fa0 <_writev+0x100031fa0>
100003a14: fd 7b 42 a9 	ldp	x29, x30, [sp, #32]
100003a18: f4 4f 41 a9 	ldp	x20, x19, [sp, #16]
100003a1c: f6 57 c3 a8 	ldp	x22, x21, [sp], #48
100003a20: c0 03 5f d6 	ret
100003a24: f4 03 00 aa 	mov	x20, x0
100003a28: 04 00 00 14 	b	0x100003a38 <__ZN4core3ptr65drop_in_place$LT$std..backtrace_rs..symbolize..gimli..Mapping$GT$17h801bb9d24b81c098E+0xcc>
100003a2c: f4 03 00 aa 	mov	x20, x0
100003a30: e0 03 13 aa 	mov	x0, x19
100003a34: 68 00 00 94 	bl	0x100003bd4 <__ZN4core3ptr71drop_in_place$LT$std..backtrace_rs..symbolize..gimli..macho..Object$GT$17hee8ebede9ce8202eE>
100003a38: 60 06 4c a9 	ldp	x0, x1, [x19, #192]
100003a3c: 34 00 00 94 	bl	0x100003b0c <__ZN4core3ptr68drop_in_place$LT$std..backtrace_rs..symbolize..gimli..mmap..Mmap$GT$17h6452af2122414299E>
100003a40: 60 42 03 91 	add	x0, x19, #208
100003a44: 33 00 00 94 	bl	0x100003b10 <__ZN4core3ptr70drop_in_place$LT$std..backtrace_rs..symbolize..gimli..stash..Stash$GT$17h1505579c96037d32E>
100003a48: e0 03 14 aa 	mov	x0, x20
100003a4c: 01 b9 00 94 	bl	0x100031e50 <_writev+0x100031e50>
100003a50: 60 b8 00 94 	bl	0x100031bd0 <__ZN4core9panicking19panic_cannot_unwind17h7ea28f7e8ef3b392E>
100003a54: 5f b8 00 94 	bl	0x100031bd0 <__ZN4core9panicking19panic_cannot_unwind17h7ea28f7e8ef3b392E>

0000000100003a58 <__ZN4core3ptr67drop_in_place$LT$alloc..vec..Vec$LT$addr2line..LineSequence$GT$$GT$17h95e055c2fca97620E>:
100003a58: f6 57 bd a9 	stp	x22, x21, [sp, #-48]!
100003a5c: f4 4f 01 a9 	stp	x20, x19, [sp, #16]
100003a60: fd 7b 02 a9 	stp	x29, x30, [sp, #32]
100003a64: fd 83 00 91 	add	x29, sp, #32
100003a68: f3 03 00 aa 	mov	x19, x0
100003a6c: 08 08 40 f9 	ldr	x8, [x0, #16]
100003a70: 08 02 00 b4 	cbz	x8, 0x100003ab0 <__ZN4core3ptr67drop_in_place$LT$alloc..vec..Vec$LT$addr2line..LineSequence$GT$$GT$17h95e055c2fca97620E+0x58>
100003a74: 69 06 40 f9 	ldr	x9, [x19, #8]
100003a78: 34 21 00 91 	add	x20, x9, #8
100003a7c: 15 e9 7b d3 	lsl	x21, x8, #5
100003a80: 04 00 00 14 	b	0x100003a90 <__ZN4core3ptr67drop_in_place$LT$alloc..vec..Vec$LT$addr2line..LineSequence$GT$$GT$17h95e055c2fca97620E+0x38>
100003a84: 94 82 00 91 	add	x20, x20, #32
100003a88: b5 82 00 f1 	subs	x21, x21, #32
100003a8c: 20 01 00 54 	b.eq	0x100003ab0 <__ZN4core3ptr67drop_in_place$LT$alloc..vec..Vec$LT$addr2line..LineSequence$GT$$GT$17h95e055c2fca97620E+0x58>
100003a90: 88 02 40 f9 	ldr	x8, [x20]
100003a94: 88 ff ff b4 	cbz	x8, 0x100003a84 <__ZN4core3ptr67drop_in_place$LT$alloc..vec..Vec$LT$addr2line..LineSequence$GT$$GT$17h95e055c2fca97620E+0x2c>
100003a98: 80 82 5f f8 	ldur	x0, [x20, #-8]
100003a9c: 08 05 08 8b 	add	x8, x8, x8, lsl #1
100003aa0: 01 f1 7d d3 	lsl	x1, x8, #3
100003aa4: 02 01 80 52 	mov	w2, #8
100003aa8: ee f9 ff 97 	bl	0x100002260 <___rust_dealloc>
100003aac: f6 ff ff 17 	b	0x100003a84 <__ZN4core3ptr67drop_in_place$LT$alloc..vec..Vec$LT$addr2line..LineSequence$GT$$GT$17h95e055c2fca97620E+0x2c>
100003ab0: 68 02 40 f9 	ldr	x8, [x19]
100003ab4: 08 01 00 b4 	cbz	x8, 0x100003ad4 <__ZN4core3ptr67drop_in_place$LT$alloc..vec..Vec$LT$addr2line..LineSequence$GT$$GT$17h95e055c2fca97620E+0x7c>
100003ab8: 60 06 40 f9 	ldr	x0, [x19, #8]
100003abc: 01 e9 7b d3 	lsl	x1, x8, #5
100003ac0: 02 01 80 52 	mov	w2, #8
100003ac4: fd 7b 42 a9 	ldp	x29, x30, [sp, #32]
100003ac8: f4 4f 41 a9 	ldp	x20, x19, [sp, #16]
100003acc: f6 57 c3 a8 	ldp	x22, x21, [sp], #48
100003ad0: e4 f9 ff 17 	b	0x100002260 <___rust_dealloc>
100003ad4: fd 7b 42 a9 	ldp	x29, x30, [sp, #32]
100003ad8: f4 4f 41 a9 	ldp	x20, x19, [sp, #16]
100003adc: f6 57 c3 a8 	ldp	x22, x21, [sp], #48
100003ae0: c0 03 5f d6 	ret

0000000100003ae4 <__ZN4core3ptr68drop_in_place$LT$core..option..Option$LT$std..thread..Thread$GT$$GT$17h5658207a02d52b14E>:
100003ae4: 08 00 40 f9 	ldr	x8, [x0]
100003ae8: 08 01 00 b4 	cbz	x8, 0x100003b08 <__ZN4core3ptr68drop_in_place$LT$core..option..Option$LT$std..thread..Thread$GT$$GT$17h5658207a02d52b14E+0x24>
100003aec: 09 00 80 92 	mov	x9, #-1
100003af0: 08 01 69 f8 	<unknown>
100003af4: 1f 05 00 f1 	cmp	x8, #1
100003af8: 81 00 00 54 	b.ne	0x100003b08 <__ZN4core3ptr68drop_in_place$LT$core..option..Option$LT$std..thread..Thread$GT$$GT$17h5658207a02d52b14E+0x24>
100003afc: bf 39 03 d5 	dmb	ishld
100003b00: 00 00 40 f9 	ldr	x0, [x0]
100003b04: 64 0d 00 14 	b	0x100007094 <__ZN5alloc4sync12Arc$LT$T$GT$9drop_slow17h535f0dc62d8af681E>
100003b08: c0 03 5f d6 	ret

0000000100003b0c <__ZN4core3ptr68drop_in_place$LT$std..backtrace_rs..symbolize..gimli..mmap..Mmap$GT$17h6452af2122414299E>:
100003b0c: 25 b9 00 14 	b	0x100031fa0 <_writev+0x100031fa0>

0000000100003b10 <__ZN4core3ptr70drop_in_place$LT$std..backtrace_rs..symbolize..gimli..stash..Stash$GT$17h1505579c96037d32E>:
100003b10: f6 57 bd a9 	stp	x22, x21, [sp, #-48]!
100003b14: f4 4f 01 a9 	stp	x20, x19, [sp, #16]
100003b18: fd 7b 02 a9 	stp	x29, x30, [sp, #32]
100003b1c: fd 83 00 91 	add	x29, sp, #32
100003b20: f3 03 00 aa 	mov	x19, x0
100003b24: 08 08 40 f9 	ldr	x8, [x0, #16]
100003b28: 08 02 00 b4 	cbz	x8, 0x100003b68 <__ZN4core3ptr70drop_in_place$LT$std..backtrace_rs..symbolize..gimli..stash..Stash$GT$17h1505579c96037d32E+0x58>
100003b2c: 69 06 40 f9 	ldr	x9, [x19, #8]
100003b30: 34 21 00 91 	add	x20, x9, #8
100003b34: 08 05 08 8b 	add	x8, x8, x8, lsl #1
100003b38: 15 f1 7d d3 	lsl	x21, x8, #3
100003b3c: 04 00 00 14 	b	0x100003b4c <__ZN4core3ptr70drop_in_place$LT$std..backtrace_rs..symbolize..gimli..stash..Stash$GT$17h1505579c96037d32E+0x3c>
100003b40: 94 62 00 91 	add	x20, x20, #24
100003b44: b5 62 00 f1 	subs	x21, x21, #24
100003b48: 00 01 00 54 	b.eq	0x100003b68 <__ZN4core3ptr70drop_in_place$LT$std..backtrace_rs..symbolize..gimli..stash..Stash$GT$17h1505579c96037d32E+0x58>
100003b4c: 81 82 5f f8 	ldur	x1, [x20, #-8]
100003b50: 81 ff ff b4 	cbz	x1, 0x100003b40 <__ZN4core3ptr70drop_in_place$LT$std..backtrace_rs..symbolize..gimli..stash..Stash$GT$17h1505579c96037d32E+0x30>
100003b54: 80 02 40 f9 	ldr	x0, [x20]
100003b58: e8 03 21 aa 	mvn	x8, x1
100003b5c: 02 fd 7f d3 	lsr	x2, x8, #63
100003b60: c0 f9 ff 97 	bl	0x100002260 <___rust_dealloc>
100003b64: f7 ff ff 17 	b	0x100003b40 <__ZN4core3ptr70drop_in_place$LT$std..backtrace_rs..symbolize..gimli..stash..Stash$GT$17h1505579c96037d32E+0x30>
100003b68: 68 02 40 f9 	ldr	x8, [x19]
100003b6c: c8 00 00 b4 	cbz	x8, 0x100003b84 <__ZN4core3ptr70drop_in_place$LT$std..backtrace_rs..symbolize..gimli..stash..Stash$GT$17h1505579c96037d32E+0x74>
100003b70: 60 06 40 f9 	ldr	x0, [x19, #8]
100003b74: 08 05 08 8b 	add	x8, x8, x8, lsl #1
100003b78: 01 f1 7d d3 	lsl	x1, x8, #3
100003b7c: 02 01 80 52 	mov	w2, #8
100003b80: b8 f9 ff 97 	bl	0x100002260 <___rust_dealloc>
100003b84: 68 0e 40 f9 	ldr	x8, [x19, #24]
100003b88: c8 00 00 b4 	cbz	x8, 0x100003ba0 <__ZN4core3ptr70drop_in_place$LT$std..backtrace_rs..symbolize..gimli..stash..Stash$GT$17h1505579c96037d32E+0x90>
100003b8c: 60 06 42 a9 	ldp	x0, x1, [x19, #32]
100003b90: fd 7b 42 a9 	ldp	x29, x30, [sp, #32]
100003b94: f4 4f 41 a9 	ldp	x20, x19, [sp, #16]
100003b98: f6 57 c3 a8 	ldp	x22, x21, [sp], #48
100003b9c: 01 b9 00 14 	b	0x100031fa0 <_writev+0x100031fa0>
100003ba0: fd 7b 42 a9 	ldp	x29, x30, [sp, #32]
100003ba4: f4 4f 41 a9 	ldp	x20, x19, [sp, #16]
100003ba8: f6 57 c3 a8 	ldp	x22, x21, [sp], #48
100003bac: c0 03 5f d6 	ret

0000000100003bb0 <__ZN4core3ptr70drop_in_place$LT$std..panicking..begin_panic_handler..PanicPayload$GT$17h4b113c6d6ee868f1E>:
100003bb0: e8 03 00 aa 	mov	x8, x0
100003bb4: 00 04 40 f9 	ldr	x0, [x0, #8]
100003bb8: c0 00 00 b4 	cbz	x0, 0x100003bd0 <__ZN4core3ptr70drop_in_place$LT$std..panicking..begin_panic_handler..PanicPayload$GT$17h4b113c6d6ee868f1E+0x20>
100003bbc: 01 01 40 f9 	ldr	x1, [x8]
100003bc0: 81 00 00 b4 	cbz	x1, 0x100003bd0 <__ZN4core3ptr70drop_in_place$LT$std..panicking..begin_panic_handler..PanicPayload$GT$17h4b113c6d6ee868f1E+0x20>
100003bc4: e8 03 21 aa 	mvn	x8, x1
100003bc8: 02 fd 7f d3 	lsr	x2, x8, #63
100003bcc: a5 f9 ff 17 	b	0x100002260 <___rust_dealloc>
100003bd0: c0 03 5f d6 	ret

0000000100003bd4 <__ZN4core3ptr71drop_in_place$LT$std..backtrace_rs..symbolize..gimli..macho..Object$GT$17hee8ebede9ce8202eE>:
100003bd4: f8 5f bc a9 	stp	x24, x23, [sp, #-64]!
100003bd8: f6 57 01 a9 	stp	x22, x21, [sp, #16]
100003bdc: f4 4f 02 a9 	stp	x20, x19, [sp, #32]
100003be0: fd 7b 03 a9 	stp	x29, x30, [sp, #48]
100003be4: fd c3 00 91 	add	x29, sp, #48
100003be8: f3 03 00 aa 	mov	x19, x0
100003bec: 08 30 40 f9 	ldr	x8, [x0, #96]
100003bf0: c8 00 00 b4 	cbz	x8, 0x100003c08 <__ZN4core3ptr71drop_in_place$LT$std..backtrace_rs..symbolize..gimli..macho..Object$GT$17hee8ebede9ce8202eE+0x34>
100003bf4: 60 36 40 f9 	ldr	x0, [x19, #104]
100003bf8: 08 05 08 8b 	add	x8, x8, x8, lsl #1
100003bfc: 01 f1 7d d3 	lsl	x1, x8, #3
100003c00: 02 01 80 52 	mov	w2, #8
100003c04: 97 f9 ff 97 	bl	0x100002260 <___rust_dealloc>
100003c08: 60 0e 40 f9 	ldr	x0, [x19, #24]
100003c0c: a0 01 00 b4 	cbz	x0, 0x100003c40 <__ZN4core3ptr71drop_in_place$LT$std..backtrace_rs..symbolize..gimli..macho..Object$GT$17hee8ebede9ce8202eE+0x6c>
100003c10: 68 0a 40 f9 	ldr	x8, [x19, #16]
100003c14: a8 00 00 b4 	cbz	x8, 0x100003c28 <__ZN4core3ptr71drop_in_place$LT$std..backtrace_rs..symbolize..gimli..macho..Object$GT$17hee8ebede9ce8202eE+0x54>
100003c18: 08 09 08 8b 	add	x8, x8, x8, lsl #2
100003c1c: 01 f1 7d d3 	lsl	x1, x8, #3
100003c20: 02 01 80 52 	mov	w2, #8
100003c24: 8f f9 ff 97 	bl	0x100002260 <___rust_dealloc>
100003c28: 68 16 40 f9 	ldr	x8, [x19, #40]
100003c2c: a8 00 00 b4 	cbz	x8, 0x100003c40 <__ZN4core3ptr71drop_in_place$LT$std..backtrace_rs..symbolize..gimli..macho..Object$GT$17hee8ebede9ce8202eE+0x6c>
100003c30: 60 1a 40 f9 	ldr	x0, [x19, #48]
100003c34: 01 ed 7c d3 	lsl	x1, x8, #4
100003c38: 02 01 80 52 	mov	w2, #8
100003c3c: 89 f9 ff 97 	bl	0x100002260 <___rust_dealloc>
100003c40: 68 2e 40 f9 	ldr	x8, [x19, #88]
100003c44: 08 03 00 b4 	cbz	x8, 0x100003ca4 <__ZN4core3ptr71drop_in_place$LT$std..backtrace_rs..symbolize..gimli..macho..Object$GT$17hee8ebede9ce8202eE+0xd0>
100003c48: 60 2a 40 f9 	ldr	x0, [x19, #80]
100003c4c: 16 20 08 8b 	add	x22, x0, x8, lsl #8
100003c50: 15 dd 78 d3 	lsl	x21, x8, #8
100003c54: 04 00 00 14 	b	0x100003c64 <__ZN4core3ptr71drop_in_place$LT$std..backtrace_rs..symbolize..gimli..macho..Object$GT$17hee8ebede9ce8202eE+0x90>
100003c58: e0 03 14 aa 	mov	x0, x20
100003c5c: b5 02 04 f1 	subs	x21, x21, #256
100003c60: e0 00 00 54 	b.eq	0x100003c7c <__ZN4core3ptr71drop_in_place$LT$std..backtrace_rs..symbolize..gimli..macho..Object$GT$17hee8ebede9ce8202eE+0xa8>
100003c64: 14 00 04 91 	add	x20, x0, #256
100003c68: 08 e0 41 39 	ldrb	w8, [x0, #120]
100003c6c: 1f 05 00 71 	cmp	w8, #1
100003c70: 48 ff ff 54 	b.hi	0x100003c58 <__ZN4core3ptr71drop_in_place$LT$std..backtrace_rs..symbolize..gimli..macho..Object$GT$17hee8ebede9ce8202eE+0x84>
100003c74: 3e ff ff 97 	bl	0x10000396c <__ZN4core3ptr65drop_in_place$LT$std..backtrace_rs..symbolize..gimli..Mapping$GT$17h801bb9d24b81c098E>
100003c78: f8 ff ff 17 	b	0x100003c58 <__ZN4core3ptr71drop_in_place$LT$std..backtrace_rs..symbolize..gimli..macho..Object$GT$17hee8ebede9ce8202eE+0x84>
100003c7c: 68 2e 40 f9 	ldr	x8, [x19, #88]
100003c80: 28 01 00 b4 	cbz	x8, 0x100003ca4 <__ZN4core3ptr71drop_in_place$LT$std..backtrace_rs..symbolize..gimli..macho..Object$GT$17hee8ebede9ce8202eE+0xd0>
100003c84: 60 2a 40 f9 	ldr	x0, [x19, #80]
100003c88: 01 dd 78 d3 	lsl	x1, x8, #8
100003c8c: 02 01 80 52 	mov	w2, #8
100003c90: fd 7b 43 a9 	ldp	x29, x30, [sp, #48]
100003c94: f4 4f 42 a9 	ldp	x20, x19, [sp, #32]
100003c98: f6 57 41 a9 	ldp	x22, x21, [sp, #16]
100003c9c: f8 5f c4 a8 	ldp	x24, x23, [sp], #64
100003ca0: 70 f9 ff 17 	b	0x100002260 <___rust_dealloc>
100003ca4: fd 7b 43 a9 	ldp	x29, x30, [sp, #48]
100003ca8: f4 4f 42 a9 	ldp	x20, x19, [sp, #32]
100003cac: f6 57 41 a9 	ldp	x22, x21, [sp, #16]
100003cb0: f8 5f c4 a8 	ldp	x24, x23, [sp], #64
100003cb4: c0 03 5f d6 	ret
100003cb8: f5 03 00 aa 	mov	x21, x0
100003cbc: 9f 02 16 eb 	cmp	x20, x22
100003cc0: c0 00 00 54 	b.eq	0x100003cd8 <__ZN4core3ptr71drop_in_place$LT$std..backtrace_rs..symbolize..gimli..macho..Object$GT$17hee8ebede9ce8202eE+0x104>
100003cc4: 97 02 04 91 	add	x23, x20, #256
100003cc8: e0 03 14 aa 	mov	x0, x20
100003ccc: 99 fb ff 97 	bl	0x100002b30 <__ZN4core3ptr121drop_in_place$LT$core..option..Option$LT$core..option..Option$LT$std..backtrace_rs..symbolize..gimli..Mapping$GT$$GT$$GT$17he6a3b1bc1df99055E>
100003cd0: f4 03 17 aa 	mov	x20, x23
100003cd4: fa ff ff 17 	b	0x100003cbc <__ZN4core3ptr71drop_in_place$LT$std..backtrace_rs..symbolize..gimli..macho..Object$GT$17hee8ebede9ce8202eE+0xe8>
100003cd8: 60 06 45 a9 	ldp	x0, x1, [x19, #80]
100003cdc: 65 0d 00 94 	bl	0x100007270 <__ZN5alloc5alloc8box_free17h4e3a6f0dfabbfae2E>
100003ce0: e0 03 15 aa 	mov	x0, x21
100003ce4: 5b b8 00 94 	bl	0x100031e50 <_writev+0x100031e50>
100003ce8: ba b7 00 94 	bl	0x100031bd0 <__ZN4core9panicking19panic_cannot_unwind17h7ea28f7e8ef3b392E>

0000000100003cec <__ZN4core3ptr71drop_in_place$LT$std..sync..rwlock..RwLockReadGuard$LT$$LP$$RP$$GT$$GT$17hb51fe3a6fe54ed06E>:
100003cec: fd 7b bf a9 	stp	x29, x30, [sp, #-16]!
100003cf0: fd 03 00 91 	mov	x29, sp
100003cf4: 08 04 40 f9 	ldr	x8, [x0, #8]
100003cf8: 00 fd df c8 	ldar	x0, [x8]
100003cfc: c0 00 00 b4 	cbz	x0, 0x100003d14 <__ZN4core3ptr71drop_in_place$LT$std..sync..rwlock..RwLockReadGuard$LT$$LP$$RP$$GT$$GT$17hb51fe3a6fe54ed06E+0x28>
100003d00: 08 20 03 91 	add	x8, x0, #200
100003d04: 09 00 80 92 	mov	x9, #-1
100003d08: 08 01 29 f8 	<unknown>
100003d0c: fd 7b c1 a8 	ldp	x29, x30, [sp], #16
100003d10: d4 b8 00 14 	b	0x100032060 <_writev+0x100032060>
100003d14: e0 03 08 aa 	mov	x0, x8
100003d18: 08 b5 00 94 	bl	0x100031138 <__ZN3std10sys_common8lazy_box16LazyBox$LT$T$GT$10initialize17ha7304a0da2ba263bE>
100003d1c: f9 ff ff 17 	b	0x100003d00 <__ZN4core3ptr71drop_in_place$LT$std..sync..rwlock..RwLockReadGuard$LT$$LP$$RP$$GT$$GT$17hb51fe3a6fe54ed06E+0x14>

0000000100003d20 <__ZN4core3ptr72drop_in_place$LT$alloc..collections..btree..mem..replace..PanicGuard$GT$17h2a83984c9a399b72E>:
100003d20: 25 97 00 14 	b	0x1000299b4 <__ZN93_$LT$alloc..collections..btree..mem..replace..PanicGuard$u20$as$u20$core..ops..drop..Drop$GT$4drop17h646a461bdb23fea7E>

0000000100003d24 <__ZN4core3ptr72drop_in_place$LT$core..option..Option$LT$object..read..ObjectMap$GT$$GT$17h5034b8e26dbd6fd5E>:
100003d24: f4 4f be a9 	stp	x20, x19, [sp, #-32]!
100003d28: fd 7b 01 a9 	stp	x29, x30, [sp, #16]
100003d2c: fd 43 00 91 	add	x29, sp, #16
100003d30: f3 03 00 aa 	mov	x19, x0
100003d34: 00 04 40 f9 	ldr	x0, [x0, #8]
100003d38: e0 01 00 b4 	cbz	x0, 0x100003d74 <__ZN4core3ptr72drop_in_place$LT$core..option..Option$LT$object..read..ObjectMap$GT$$GT$17h5034b8e26dbd6fd5E+0x50>
100003d3c: 68 02 40 f9 	ldr	x8, [x19]
100003d40: a8 00 00 b4 	cbz	x8, 0x100003d54 <__ZN4core3ptr72drop_in_place$LT$core..option..Option$LT$object..read..ObjectMap$GT$$GT$17h5034b8e26dbd6fd5E+0x30>
100003d44: 08 09 08 8b 	add	x8, x8, x8, lsl #2
100003d48: 01 f1 7d d3 	lsl	x1, x8, #3
100003d4c: 02 01 80 52 	mov	w2, #8
100003d50: 44 f9 ff 97 	bl	0x100002260 <___rust_dealloc>
100003d54: 68 0e 40 f9 	ldr	x8, [x19, #24]
100003d58: e8 00 00 b4 	cbz	x8, 0x100003d74 <__ZN4core3ptr72drop_in_place$LT$core..option..Option$LT$object..read..ObjectMap$GT$$GT$17h5034b8e26dbd6fd5E+0x50>
100003d5c: 60 12 40 f9 	ldr	x0, [x19, #32]
100003d60: 01 ed 7c d3 	lsl	x1, x8, #4
100003d64: 02 01 80 52 	mov	w2, #8
100003d68: fd 7b 41 a9 	ldp	x29, x30, [sp, #16]
100003d6c: f4 4f c2 a8 	ldp	x20, x19, [sp], #32
100003d70: 3c f9 ff 17 	b	0x100002260 <___rust_dealloc>
100003d74: fd 7b 41 a9 	ldp	x29, x30, [sp, #16]
100003d78: f4 4f c2 a8 	ldp	x20, x19, [sp], #32
100003d7c: c0 03 5f d6 	ret

0000000100003d80 <__ZN4core3ptr73drop_in_place$LT$std..sys..unix..locks..pthread_mutex..AllocatedMutex$GT$17h5434650489d80f8fE>:
100003d80: 9a b8 00 14 	b	0x100031fe8 <_writev+0x100031fe8>

0000000100003d84 <__ZN4core3ptr75drop_in_place$LT$core..option..Option$LT$alloc..ffi..c_str..CString$GT$$GT$17h263e4c575f9af8daE>:
100003d84: 08 00 40 f9 	ldr	x8, [x0]
100003d88: e8 00 00 b4 	cbz	x8, 0x100003da4 <__ZN4core3ptr75drop_in_place$LT$core..option..Option$LT$alloc..ffi..c_str..CString$GT$$GT$17h263e4c575f9af8daE+0x20>
100003d8c: 1f 01 00 39 	strb	wzr, [x8]
100003d90: 01 04 40 f9 	ldr	x1, [x0, #8]
100003d94: 81 00 00 b4 	cbz	x1, 0x100003da4 <__ZN4core3ptr75drop_in_place$LT$core..option..Option$LT$alloc..ffi..c_str..CString$GT$$GT$17h263e4c575f9af8daE+0x20>
100003d98: 00 00 40 f9 	ldr	x0, [x0]
100003d9c: 22 00 80 52 	mov	w2, #1
100003da0: 30 f9 ff 17 	b	0x100002260 <___rust_dealloc>
100003da4: c0 03 5f d6 	ret

0000000100003da8 <__ZN4core3ptr75drop_in_place$LT$std..sys..unix..locks..pthread_mutex..PthreadMutexAttr$GT$17h4b2d695044b71e69E>:
100003da8: 9f b8 00 14 	b	0x100032024 <_writev+0x100032024>

0000000100003dac <__ZN4core3ptr75drop_in_place$LT$std..sys..unix..locks..pthread_rwlock..AllocatedRwLock$GT$17heb7892963a6e6d54E>:
100003dac: a7 b8 00 14 	b	0x100032048 <_writev+0x100032048>

0000000100003db0 <__ZN4core3ptr77drop_in_place$LT$alloc..boxed..Box$LT$$u5b$alloc..string..String$u5d$$GT$$GT$17h86439eacd25eb7d6E>:
100003db0: f6 57 bd a9 	stp	x22, x21, [sp, #-48]!
100003db4: f4 4f 01 a9 	stp	x20, x19, [sp, #16]
100003db8: fd 7b 02 a9 	stp	x29, x30, [sp, #32]
100003dbc: fd 83 00 91 	add	x29, sp, #32
100003dc0: 08 04 40 f9 	ldr	x8, [x0, #8]
100003dc4: 68 03 00 b4 	cbz	x8, 0x100003e30 <__ZN4core3ptr77drop_in_place$LT$alloc..boxed..Box$LT$$u5b$alloc..string..String$u5d$$GT$$GT$17h86439eacd25eb7d6E+0x80>
100003dc8: f3 03 00 aa 	mov	x19, x0
100003dcc: 09 00 40 f9 	ldr	x9, [x0]
100003dd0: 34 21 00 91 	add	x20, x9, #8
100003dd4: 08 05 08 8b 	add	x8, x8, x8, lsl #1
100003dd8: 15 f1 7d d3 	lsl	x21, x8, #3
100003ddc: 04 00 00 14 	b	0x100003dec <__ZN4core3ptr77drop_in_place$LT$alloc..boxed..Box$LT$$u5b$alloc..string..String$u5d$$GT$$GT$17h86439eacd25eb7d6E+0x3c>
100003de0: 94 62 00 91 	add	x20, x20, #24
100003de4: b5 62 00 f1 	subs	x21, x21, #24
100003de8: 00 01 00 54 	b.eq	0x100003e08 <__ZN4core3ptr77drop_in_place$LT$alloc..boxed..Box$LT$$u5b$alloc..string..String$u5d$$GT$$GT$17h86439eacd25eb7d6E+0x58>
100003dec: 81 82 5f f8 	ldur	x1, [x20, #-8]
100003df0: 81 ff ff b4 	cbz	x1, 0x100003de0 <__ZN4core3ptr77drop_in_place$LT$alloc..boxed..Box$LT$$u5b$alloc..string..String$u5d$$GT$$GT$17h86439eacd25eb7d6E+0x30>
100003df4: 80 02 40 f9 	ldr	x0, [x20]
100003df8: e8 03 21 aa 	mvn	x8, x1
100003dfc: 02 fd 7f d3 	lsr	x2, x8, #63
100003e00: 18 f9 ff 97 	bl	0x100002260 <___rust_dealloc>
100003e04: f7 ff ff 17 	b	0x100003de0 <__ZN4core3ptr77drop_in_place$LT$alloc..boxed..Box$LT$$u5b$alloc..string..String$u5d$$GT$$GT$17h86439eacd25eb7d6E+0x30>
100003e08: 68 06 40 f9 	ldr	x8, [x19, #8]
100003e0c: 28 01 00 b4 	cbz	x8, 0x100003e30 <__ZN4core3ptr77drop_in_place$LT$alloc..boxed..Box$LT$$u5b$alloc..string..String$u5d$$GT$$GT$17h86439eacd25eb7d6E+0x80>
100003e10: 60 02 40 f9 	ldr	x0, [x19]
100003e14: 08 05 08 8b 	add	x8, x8, x8, lsl #1
100003e18: 01 f1 7d d3 	lsl	x1, x8, #3
100003e1c: 02 01 80 52 	mov	w2, #8
100003e20: fd 7b 42 a9 	ldp	x29, x30, [sp, #32]
100003e24: f4 4f 41 a9 	ldp	x20, x19, [sp, #16]
100003e28: f6 57 c3 a8 	ldp	x22, x21, [sp], #48
100003e2c: 0d f9 ff 17 	b	0x100002260 <___rust_dealloc>
100003e30: fd 7b 42 a9 	ldp	x29, x30, [sp, #32]
100003e34: f4 4f 41 a9 	ldp	x20, x19, [sp, #16]
100003e38: f6 57 c3 a8 	ldp	x22, x21, [sp], #48
100003e3c: c0 03 5f d6 	ret

0000000100003e40 <__ZN4core3ptr78drop_in_place$LT$alloc..vec..Vec$LT$gimli..read..line..FileEntryFormat$GT$$GT$17h92290c62cdedd52dE>:
100003e40: 08 00 40 f9 	ldr	x8, [x0]
100003e44: a8 00 00 b4 	cbz	x8, 0x100003e58 <__ZN4core3ptr78drop_in_place$LT$alloc..vec..Vec$LT$gimli..read..line..FileEntryFormat$GT$$GT$17h92290c62cdedd52dE+0x18>
100003e48: 00 04 40 f9 	ldr	x0, [x0, #8]
100003e4c: 01 f5 7e d3 	lsl	x1, x8, #2
100003e50: 42 00 80 52 	mov	w2, #2
100003e54: 03 f9 ff 17 	b	0x100002260 <___rust_dealloc>
100003e58: c0 03 5f d6 	ret

0000000100003e5c <__ZN4core3ptr81drop_in_place$LT$$LP$usize$C$std..backtrace_rs..symbolize..gimli..Mapping$RP$$GT$17h56272506c2ed62fcE>:
100003e5c: 00 20 00 91 	add	x0, x0, #8
100003e60: c3 fe ff 17 	b	0x10000396c <__ZN4core3ptr65drop_in_place$LT$std..backtrace_rs..symbolize..gimli..Mapping$GT$17h801bb9d24b81c098E>

0000000100003e64 <__ZN4core3ptr81drop_in_place$LT$core..result..Result$LT$$LP$$RP$$C$std..io..error..Error$GT$$GT$17h421bfcd47a54d841E>:
100003e64: f6 57 bd a9 	stp	x22, x21, [sp, #-48]!
100003e68: f4 4f 01 a9 	stp	x20, x19, [sp, #16]
100003e6c: fd 7b 02 a9 	stp	x29, x30, [sp, #32]
100003e70: fd 83 00 91 	add	x29, sp, #32
100003e74: e0 02 00 b4 	cbz	x0, 0x100003ed0 <__ZN4core3ptr81drop_in_place$LT$core..result..Result$LT$$LP$$RP$$C$std..io..error..Error$GT$$GT$17h421bfcd47a54d841E+0x6c>
100003e78: f4 03 00 aa 	mov	x20, x0
100003e7c: 08 04 40 92 	and	x8, x0, #0x3
100003e80: 1f 05 00 f1 	cmp	x8, #1
100003e84: 61 02 00 54 	b.ne	0x100003ed0 <__ZN4core3ptr81drop_in_place$LT$core..result..Result$LT$$LP$$RP$$C$std..io..error..Error$GT$$GT$17h421bfcd47a54d841E+0x6c>
100003e88: f3 03 14 aa 	mov	x19, x20
100003e8c: 60 fe 5f f8 	ldr	x0, [x19, #-1]!
100003e90: 68 06 40 f9 	ldr	x8, [x19, #8]
100003e94: 08 01 40 f9 	ldr	x8, [x8]
100003e98: 00 01 3f d6 	blr	x8
100003e9c: 88 72 40 f8 	ldur	x8, [x20, #7]
100003ea0: 01 05 40 f9 	ldr	x1, [x8, #8]
100003ea4: 81 00 00 b4 	cbz	x1, 0x100003eb4 <__ZN4core3ptr81drop_in_place$LT$core..result..Result$LT$$LP$$RP$$C$std..io..error..Error$GT$$GT$17h421bfcd47a54d841E+0x50>
100003ea8: 02 09 40 f9 	ldr	x2, [x8, #16]
100003eac: 60 02 40 f9 	ldr	x0, [x19]
100003eb0: ec f8 ff 97 	bl	0x100002260 <___rust_dealloc>
100003eb4: e0 03 13 aa 	mov	x0, x19
100003eb8: 01 03 80 52 	mov	w1, #24
100003ebc: 02 01 80 52 	mov	w2, #8
100003ec0: fd 7b 42 a9 	ldp	x29, x30, [sp, #32]
100003ec4: f4 4f 41 a9 	ldp	x20, x19, [sp, #16]
100003ec8: f6 57 c3 a8 	ldp	x22, x21, [sp], #48
100003ecc: e5 f8 ff 17 	b	0x100002260 <___rust_dealloc>
100003ed0: fd 7b 42 a9 	ldp	x29, x30, [sp, #32]
100003ed4: f4 4f 41 a9 	ldp	x20, x19, [sp, #16]
100003ed8: f6 57 c3 a8 	ldp	x22, x21, [sp], #48
100003edc: c0 03 5f d6 	ret
100003ee0: f5 03 00 aa 	mov	x21, x0
100003ee4: 80 f2 5f f8 	ldur	x0, [x20, #-1]
100003ee8: 88 72 40 f8 	ldur	x8, [x20, #7]
100003eec: 01 89 40 a9 	ldp	x1, x2, [x8, #8]
100003ef0: dd 0c 00 94 	bl	0x100007264 <__ZN5alloc5alloc8box_free17h451b979ec62a4309E>
100003ef4: e0 03 13 aa 	mov	x0, x19
100003ef8: e6 0c 00 94 	bl	0x100007290 <__ZN5alloc5alloc8box_free17hc8cb259e0594c028E>
100003efc: e0 03 15 aa 	mov	x0, x21
100003f00: d4 b7 00 94 	bl	0x100031e50 <_writev+0x100031e50>

0000000100003f04 <__ZN4core3ptr82drop_in_place$LT$alloc..sync..ArcInner$LT$std..sys..unix..fs..InnerReadDir$GT$$GT$17h9542440b3b68276dE>:
100003f04: f4 4f be a9 	stp	x20, x19, [sp, #-32]!
100003f08: fd 7b 01 a9 	stp	x29, x30, [sp, #16]
100003f0c: fd 43 00 91 	add	x29, sp, #16
100003f10: f3 03 00 aa 	mov	x19, x0
100003f14: 00 40 00 91 	add	x0, x0, #16
100003f18: 3d 60 00 94 	bl	0x10001c00c <__ZN65_$LT$std..sys..unix..fs..Dir$u20$as$u20$core..ops..drop..Drop$GT$4drop17h1ae6570c330b3460E>
100003f1c: 61 0e 40 f9 	ldr	x1, [x19, #24]
100003f20: e1 00 00 b4 	cbz	x1, 0x100003f3c <__ZN4core3ptr82drop_in_place$LT$alloc..sync..ArcInner$LT$std..sys..unix..fs..InnerReadDir$GT$$GT$17h9542440b3b68276dE+0x38>
100003f24: 60 12 40 f9 	ldr	x0, [x19, #32]
100003f28: e8 03 21 aa 	mvn	x8, x1
100003f2c: 02 fd 7f d3 	lsr	x2, x8, #63
100003f30: fd 7b 41 a9 	ldp	x29, x30, [sp, #16]
100003f34: f4 4f c2 a8 	ldp	x20, x19, [sp], #32
100003f38: ca f8 ff 17 	b	0x100002260 <___rust_dealloc>
100003f3c: fd 7b 41 a9 	ldp	x29, x30, [sp, #16]
100003f40: f4 4f c2 a8 	ldp	x20, x19, [sp], #32
100003f44: c0 03 5f d6 	ret
100003f48: f4 03 00 aa 	mov	x20, x0
100003f4c: 60 62 00 91 	add	x0, x19, #24
100003f50: ad fc ff 97 	bl	0x100003204 <__ZN4core3ptr205drop_in_place$LT$$LT$alloc..boxed..Box$LT$dyn$u20$core..error..Error$u2b$core..marker..Sync$u2b$core..marker..Send$GT$$u20$as$u20$core..convert..From$LT$alloc..string..String$GT$$GT$..from..StringError$GT$17hebbabeed7594fdacE>
100003f54: e0 03 14 aa 	mov	x0, x20
100003f58: be b7 00 94 	bl	0x100031e50 <_writev+0x100031e50>

0000000100003f5c <__ZN4core3ptr83drop_in_place$LT$std..sys_common..thread_info..set..$u7b$$u7b$closure$u7d$$u7d$$GT$17h8c91de57ee715e1dE>:
100003f5c: 08 00 40 f9 	ldr	x8, [x0]
100003f60: 09 00 80 92 	mov	x9, #-1
100003f64: 08 01 69 f8 	<unknown>
100003f68: 1f 05 00 f1 	cmp	x8, #1
100003f6c: 81 00 00 54 	b.ne	0x100003f7c <__ZN4core3ptr83drop_in_place$LT$std..sys_common..thread_info..set..$u7b$$u7b$closure$u7d$$u7d$$GT$17h8c91de57ee715e1dE+0x20>
100003f70: bf 39 03 d5 	dmb	ishld
100003f74: 00 00 40 f9 	ldr	x0, [x0]
100003f78: 47 0c 00 14 	b	0x100007094 <__ZN5alloc4sync12Arc$LT$T$GT$9drop_slow17h535f0dc62d8af681E>
100003f7c: c0 03 5f d6 	ret

0000000100003f80 <__ZN4core3ptr84drop_in_place$LT$std..io..stdio..set_output_capture..$u7b$$u7b$closure$u7d$$u7d$$GT$17h0ef96e10f5206444E>:
100003f80: 08 00 40 f9 	ldr	x8, [x0]
100003f84: 08 01 00 b4 	cbz	x8, 0x100003fa4 <__ZN4core3ptr84drop_in_place$LT$std..io..stdio..set_output_capture..$u7b$$u7b$closure$u7d$$u7d$$GT$17h0ef96e10f5206444E+0x24>
100003f88: 09 00 80 92 	mov	x9, #-1
100003f8c: 08 01 69 f8 	<unknown>
100003f90: 1f 05 00 f1 	cmp	x8, #1
100003f94: 81 00 00 54 	b.ne	0x100003fa4 <__ZN4core3ptr84drop_in_place$LT$std..io..stdio..set_output_capture..$u7b$$u7b$closure$u7d$$u7d$$GT$17h0ef96e10f5206444E+0x24>
100003f98: bf 39 03 d5 	dmb	ishld
100003f9c: 00 00 40 f9 	ldr	x0, [x0]
100003fa0: 5c 0c 00 14 	b	0x100007110 <__ZN5alloc4sync12Arc$LT$T$GT$9drop_slow17h9a0ebd199faea9e7E>
100003fa4: c0 03 5f d6 	ret

0000000100003fa8 <__ZN4core3ptr86drop_in_place$LT$core..result..Result$LT$addr2line..Lines$C$gimli..read..Error$GT$$GT$17heaefc384a2b1b00cE>:
100003fa8: f6 57 bd a9 	stp	x22, x21, [sp, #-48]!
100003fac: f4 4f 01 a9 	stp	x20, x19, [sp, #16]
100003fb0: fd 7b 02 a9 	stp	x29, x30, [sp, #32]
100003fb4: fd 83 00 91 	add	x29, sp, #32
100003fb8: 08 00 40 f9 	ldr	x8, [x0]
100003fbc: 68 06 00 b4 	cbz	x8, 0x100004088 <__ZN4core3ptr86drop_in_place$LT$core..result..Result$LT$addr2line..Lines$C$gimli..read..Error$GT$$GT$17heaefc384a2b1b00cE+0xe0>
100003fc0: f3 03 00 aa 	mov	x19, x0
100003fc4: 09 04 40 f9 	ldr	x9, [x0, #8]
100003fc8: c9 02 00 b4 	cbz	x9, 0x100004020 <__ZN4core3ptr86drop_in_place$LT$core..result..Result$LT$addr2line..Lines$C$gimli..read..Error$GT$$GT$17heaefc384a2b1b00cE+0x78>
100003fcc: 14 21 00 91 	add	x20, x8, #8
100003fd0: 28 05 09 8b 	add	x8, x9, x9, lsl #1
100003fd4: 15 f1 7d d3 	lsl	x21, x8, #3
100003fd8: 04 00 00 14 	b	0x100003fe8 <__ZN4core3ptr86drop_in_place$LT$core..result..Result$LT$addr2line..Lines$C$gimli..read..Error$GT$$GT$17heaefc384a2b1b00cE+0x40>
100003fdc: 94 62 00 91 	add	x20, x20, #24
100003fe0: b5 62 00 f1 	subs	x21, x21, #24
100003fe4: 00 01 00 54 	b.eq	0x100004004 <__ZN4core3ptr86drop_in_place$LT$core..result..Result$LT$addr2line..Lines$C$gimli..read..Error$GT$$GT$17heaefc384a2b1b00cE+0x5c>
100003fe8: 81 82 5f f8 	ldur	x1, [x20, #-8]
100003fec: 81 ff ff b4 	cbz	x1, 0x100003fdc <__ZN4core3ptr86drop_in_place$LT$core..result..Result$LT$addr2line..Lines$C$gimli..read..Error$GT$$GT$17heaefc384a2b1b00cE+0x34>
100003ff0: 80 02 40 f9 	ldr	x0, [x20]
100003ff4: e8 03 21 aa 	mvn	x8, x1
100003ff8: 02 fd 7f d3 	lsr	x2, x8, #63
100003ffc: 99 f8 ff 97 	bl	0x100002260 <___rust_dealloc>
100004000: f7 ff ff 17 	b	0x100003fdc <__ZN4core3ptr86drop_in_place$LT$core..result..Result$LT$addr2line..Lines$C$gimli..read..Error$GT$$GT$17heaefc384a2b1b00cE+0x34>
100004004: 68 06 40 f9 	ldr	x8, [x19, #8]
100004008: c8 00 00 b4 	cbz	x8, 0x100004020 <__ZN4core3ptr86drop_in_place$LT$core..result..Result$LT$addr2line..Lines$C$gimli..read..Error$GT$$GT$17heaefc384a2b1b00cE+0x78>
10000400c: 60 02 40 f9 	ldr	x0, [x19]
100004010: 08 05 08 8b 	add	x8, x8, x8, lsl #1
100004014: 01 f1 7d d3 	lsl	x1, x8, #3
100004018: 02 01 80 52 	mov	w2, #8
10000401c: 91 f8 ff 97 	bl	0x100002260 <___rust_dealloc>
100004020: 68 0e 40 f9 	ldr	x8, [x19, #24]
100004024: 28 03 00 b4 	cbz	x8, 0x100004088 <__ZN4core3ptr86drop_in_place$LT$core..result..Result$LT$addr2line..Lines$C$gimli..read..Error$GT$$GT$17heaefc384a2b1b00cE+0xe0>
100004028: 69 0a 40 f9 	ldr	x9, [x19, #16]
10000402c: 34 21 00 91 	add	x20, x9, #8
100004030: 15 e9 7b d3 	lsl	x21, x8, #5
100004034: 04 00 00 14 	b	0x100004044 <__ZN4core3ptr86drop_in_place$LT$core..result..Result$LT$addr2line..Lines$C$gimli..read..Error$GT$$GT$17heaefc384a2b1b00cE+0x9c>
100004038: 94 82 00 91 	add	x20, x20, #32
10000403c: b5 82 00 f1 	subs	x21, x21, #32
100004040: 20 01 00 54 	b.eq	0x100004064 <__ZN4core3ptr86drop_in_place$LT$core..result..Result$LT$addr2line..Lines$C$gimli..read..Error$GT$$GT$17heaefc384a2b1b00cE+0xbc>
100004044: 88 02 40 f9 	ldr	x8, [x20]
100004048: 88 ff ff b4 	cbz	x8, 0x100004038 <__ZN4core3ptr86drop_in_place$LT$core..result..Result$LT$addr2line..Lines$C$gimli..read..Error$GT$$GT$17heaefc384a2b1b00cE+0x90>
10000404c: 80 82 5f f8 	ldur	x0, [x20, #-8]
100004050: 08 05 08 8b 	add	x8, x8, x8, lsl #1
100004054: 01 f1 7d d3 	lsl	x1, x8, #3
100004058: 02 01 80 52 	mov	w2, #8
10000405c: 81 f8 ff 97 	bl	0x100002260 <___rust_dealloc>
100004060: f6 ff ff 17 	b	0x100004038 <__ZN4core3ptr86drop_in_place$LT$core..result..Result$LT$addr2line..Lines$C$gimli..read..Error$GT$$GT$17heaefc384a2b1b00cE+0x90>
100004064: 68 0e 40 f9 	ldr	x8, [x19, #24]
100004068: 08 01 00 b4 	cbz	x8, 0x100004088 <__ZN4core3ptr86drop_in_place$LT$core..result..Result$LT$addr2line..Lines$C$gimli..read..Error$GT$$GT$17heaefc384a2b1b00cE+0xe0>
10000406c: 60 0a 40 f9 	ldr	x0, [x19, #16]
100004070: 01 e9 7b d3 	lsl	x1, x8, #5
100004074: 02 01 80 52 	mov	w2, #8
100004078: fd 7b 42 a9 	ldp	x29, x30, [sp, #32]
10000407c: f4 4f 41 a9 	ldp	x20, x19, [sp, #16]
100004080: f6 57 c3 a8 	ldp	x22, x21, [sp], #48
100004084: 77 f8 ff 17 	b	0x100002260 <___rust_dealloc>
100004088: fd 7b 42 a9 	ldp	x29, x30, [sp, #32]
10000408c: f4 4f 41 a9 	ldp	x20, x19, [sp, #16]
100004090: f6 57 c3 a8 	ldp	x22, x21, [sp], #48
100004094: c0 03 5f d6 	ret

0000000100004098 <__ZN4core3ptr86drop_in_place$LT$core..slice..sort..CopyOnDrop$LT$object..read..ObjectMapEntry$GT$$GT$17h30a185446131bcefE>:
100004098: 00 04 40 ad 	ldp	q0, q1, [x0]
10000409c: 08 10 40 f9 	ldr	x8, [x0, #32]
1000040a0: 28 10 00 f9 	str	x8, [x1, #32]
1000040a4: 20 04 00 ad 	stp	q0, q1, [x1]
1000040a8: c0 03 5f d6 	ret

00000001000040ac <__ZN4core3ptr88drop_in_place$LT$alloc..vec..Vec$LT$std..backtrace_rs..symbolize..gimli..Library$GT$$GT$17h9e21c0c57fc50291E>:
1000040ac: f6 57 bd a9 	stp	x22, x21, [sp, #-48]!
1000040b0: f4 4f 01 a9 	stp	x20, x19, [sp, #16]
1000040b4: fd 7b 02 a9 	stp	x29, x30, [sp, #32]
1000040b8: fd 83 00 91 	add	x29, sp, #32
1000040bc: f3 03 00 aa 	mov	x19, x0
1000040c0: 08 08 40 f9 	ldr	x8, [x0, #16]
1000040c4: c8 02 00 b4 	cbz	x8, 0x10000411c <__ZN4core3ptr88drop_in_place$LT$alloc..vec..Vec$LT$std..backtrace_rs..symbolize..gimli..Library$GT$$GT$17h9e21c0c57fc50291E+0x70>
1000040c8: 69 06 40 f9 	ldr	x9, [x19, #8]
1000040cc: 34 a1 00 91 	add	x20, x9, #40
1000040d0: 09 07 80 52 	mov	w9, #56
1000040d4: 15 7d 09 9b 	mul	x21, x8, x9
1000040d8: 04 00 00 14 	b	0x1000040e8 <__ZN4core3ptr88drop_in_place$LT$alloc..vec..Vec$LT$std..backtrace_rs..symbolize..gimli..Library$GT$$GT$17h9e21c0c57fc50291E+0x3c>
1000040dc: 94 e2 00 91 	add	x20, x20, #56
1000040e0: b5 e2 00 f1 	subs	x21, x21, #56
1000040e4: c0 01 00 54 	b.eq	0x10000411c <__ZN4core3ptr88drop_in_place$LT$alloc..vec..Vec$LT$std..backtrace_rs..symbolize..gimli..Library$GT$$GT$17h9e21c0c57fc50291E+0x70>
1000040e8: 81 02 5e f8 	ldur	x1, [x20, #-32]
1000040ec: a1 00 00 b4 	cbz	x1, 0x100004100 <__ZN4core3ptr88drop_in_place$LT$alloc..vec..Vec$LT$std..backtrace_rs..symbolize..gimli..Library$GT$$GT$17h9e21c0c57fc50291E+0x54>
1000040f0: 80 82 5e f8 	ldur	x0, [x20, #-24]
1000040f4: e8 03 21 aa 	mvn	x8, x1
1000040f8: 02 fd 7f d3 	lsr	x2, x8, #63
1000040fc: 59 f8 ff 97 	bl	0x100002260 <___rust_dealloc>
100004100: 88 82 5f f8 	ldur	x8, [x20, #-8]
100004104: c8 fe ff b4 	cbz	x8, 0x1000040dc <__ZN4core3ptr88drop_in_place$LT$alloc..vec..Vec$LT$std..backtrace_rs..symbolize..gimli..Library$GT$$GT$17h9e21c0c57fc50291E+0x30>
100004108: 80 02 40 f9 	ldr	x0, [x20]
10000410c: 01 ed 7c d3 	lsl	x1, x8, #4
100004110: 02 01 80 52 	mov	w2, #8
100004114: 53 f8 ff 97 	bl	0x100002260 <___rust_dealloc>
100004118: f1 ff ff 17 	b	0x1000040dc <__ZN4core3ptr88drop_in_place$LT$alloc..vec..Vec$LT$std..backtrace_rs..symbolize..gimli..Library$GT$$GT$17h9e21c0c57fc50291E+0x30>
10000411c: 68 02 40 f9 	ldr	x8, [x19]
100004120: 28 01 00 b4 	cbz	x8, 0x100004144 <__ZN4core3ptr88drop_in_place$LT$alloc..vec..Vec$LT$std..backtrace_rs..symbolize..gimli..Library$GT$$GT$17h9e21c0c57fc50291E+0x98>
100004124: 60 06 40 f9 	ldr	x0, [x19, #8]
100004128: 09 07 80 52 	mov	w9, #56
10000412c: 01 7d 09 9b 	mul	x1, x8, x9
100004130: 02 01 80 52 	mov	w2, #8
100004134: fd 7b 42 a9 	ldp	x29, x30, [sp, #32]
100004138: f4 4f 41 a9 	ldp	x20, x19, [sp, #16]
10000413c: f6 57 c3 a8 	ldp	x22, x21, [sp], #48
100004140: 48 f8 ff 17 	b	0x100002260 <___rust_dealloc>
100004144: fd 7b 42 a9 	ldp	x29, x30, [sp, #32]
100004148: f4 4f 41 a9 	ldp	x20, x19, [sp, #16]
10000414c: f6 57 c3 a8 	ldp	x22, x21, [sp], #48
100004150: c0 03 5f d6 	ret

0000000100004154 <__ZN4core3ptr88drop_in_place$LT$core..slice..sort..CopyOnDrop$LT$$LP$$RF$$u5b$u8$u5d$$C$u64$RP$$GT$$GT$17hcabf5c41c128e5e8E>:
100004154: 00 00 c0 3d 	ldr	q0, [x0]
100004158: 08 08 40 f9 	ldr	x8, [x0, #16]
10000415c: 28 08 00 f9 	str	x8, [x1, #16]
100004160: 20 00 80 3d 	str	q0, [x1]
100004164: c0 03 5f d6 	ret

0000000100004168 <__ZN4core3ptr88drop_in_place$LT$std..io..Write..write_fmt..Adapter$LT$alloc..vec..Vec$LT$u8$GT$$GT$$GT$17h4d89b56b2b26e381E>:
100004168: f4 4f be a9 	stp	x20, x19, [sp, #-32]!
10000416c: fd 7b 01 a9 	stp	x29, x30, [sp, #16]
100004170: fd 43 00 91 	add	x29, sp, #16
100004174: 14 00 40 f9 	ldr	x20, [x0]
100004178: 88 06 40 92 	and	x8, x20, #0x3
10000417c: 9f 02 00 f1 	cmp	x20, #0
100004180: 00 19 41 fa 	ccmp	x8, #1, #0, ne
100004184: 80 00 00 54 	b.eq	0x100004194 <__ZN4core3ptr88drop_in_place$LT$std..io..Write..write_fmt..Adapter$LT$alloc..vec..Vec$LT$u8$GT$$GT$$GT$17h4d89b56b2b26e381E+0x2c>
100004188: fd 7b 41 a9 	ldp	x29, x30, [sp, #16]
10000418c: f4 4f c2 a8 	ldp	x20, x19, [sp], #32
100004190: c0 03 5f d6 	ret
100004194: f3 03 14 aa 	mov	x19, x20
100004198: 60 fe 5f f8 	ldr	x0, [x19, #-1]!
10000419c: 68 06 40 f9 	ldr	x8, [x19, #8]
1000041a0: 08 01 40 f9 	ldr	x8, [x8]
1000041a4: 00 01 3f d6 	blr	x8
1000041a8: 88 72 40 f8 	ldur	x8, [x20, #7]
1000041ac: 01 05 40 f9 	ldr	x1, [x8, #8]
1000041b0: 81 00 00 b4 	cbz	x1, 0x1000041c0 <__ZN4core3ptr88drop_in_place$LT$std..io..Write..write_fmt..Adapter$LT$alloc..vec..Vec$LT$u8$GT$$GT$$GT$17h4d89b56b2b26e381E+0x58>
1000041b4: 02 09 40 f9 	ldr	x2, [x8, #16]
1000041b8: 60 02 40 f9 	ldr	x0, [x19]
1000041bc: 29 f8 ff 97 	bl	0x100002260 <___rust_dealloc>
1000041c0: e0 03 13 aa 	mov	x0, x19
1000041c4: 01 03 80 52 	mov	w1, #24
1000041c8: 02 01 80 52 	mov	w2, #8
1000041cc: fd 7b 41 a9 	ldp	x29, x30, [sp, #16]
1000041d0: f4 4f c2 a8 	ldp	x20, x19, [sp], #32
1000041d4: 23 f8 ff 17 	b	0x100002260 <___rust_dealloc>
1000041d8: e8 03 14 aa 	mov	x8, x20
1000041dc: f4 03 00 aa 	mov	x20, x0
1000041e0: 00 f1 5f f8 	ldur	x0, [x8, #-1]
1000041e4: 08 71 40 f8 	ldur	x8, [x8, #7]
1000041e8: 01 89 40 a9 	ldp	x1, x2, [x8, #8]
1000041ec: 1e 0c 00 94 	bl	0x100007264 <__ZN5alloc5alloc8box_free17h451b979ec62a4309E>
1000041f0: e0 03 13 aa 	mov	x0, x19
1000041f4: 27 0c 00 94 	bl	0x100007290 <__ZN5alloc5alloc8box_free17hc8cb259e0594c028E>
1000041f8: e0 03 14 aa 	mov	x0, x20
1000041fc: 15 b7 00 94 	bl	0x100031e50 <_writev+0x100031e50>

0000000100004200 <__ZN4core3ptr90drop_in_place$LT$std..io..buffered..bufwriter..BufWriter$LT$W$GT$..flush_buf..BufGuard$GT$17h2447567fe78ebbe1E>:
100004200: f4 4f be a9 	stp	x20, x19, [sp, #-32]!
100004204: fd 7b 01 a9 	stp	x29, x30, [sp, #16]
100004208: fd 43 00 91 	add	x29, sp, #16
10000420c: a0 01 00 b4 	cbz	x0, 0x100004240 <__ZN4core3ptr90drop_in_place$LT$std..io..buffered..bufwriter..BufWriter$LT$W$GT$..flush_buf..BufGuard$GT$17h2447567fe78ebbe1E+0x40>
100004210: f3 03 01 aa 	mov	x19, x1
100004214: 21 08 40 f9 	ldr	x1, [x1, #16]
100004218: 34 00 00 eb 	subs	x20, x1, x0
10000421c: 83 01 00 54 	b.lo	0x10000424c <__ZN4core3ptr90drop_in_place$LT$std..io..buffered..bufwriter..BufWriter$LT$W$GT$..flush_buf..BufGuard$GT$17h2447567fe78ebbe1E+0x4c>
100004220: 7f 0a 00 f9 	str	xzr, [x19, #16]
100004224: e0 00 00 54 	b.eq	0x100004240 <__ZN4core3ptr90drop_in_place$LT$std..io..buffered..bufwriter..BufWriter$LT$W$GT$..flush_buf..BufGuard$GT$17h2447567fe78ebbe1E+0x40>
100004228: 68 06 40 f9 	ldr	x8, [x19, #8]
10000422c: 01 01 00 8b 	add	x1, x8, x0
100004230: e0 03 08 aa 	mov	x0, x8
100004234: e2 03 14 aa 	mov	x2, x20
100004238: 51 b7 00 94 	bl	0x100031f7c <_writev+0x100031f7c>
10000423c: 74 0a 00 f9 	str	x20, [x19, #16]
100004240: fd 7b 41 a9 	ldp	x29, x30, [sp, #16]
100004244: f4 4f c2 a8 	ldp	x20, x19, [sp], #32
100004248: c0 03 5f d6 	ret
10000424c: e2 20 1e 10 	adr	x2, #246812
100004250: 1f 20 03 d5 	nop
100004254: cd b6 00 94 	bl	0x100031d88 <__ZN4core5slice5index24slice_end_index_len_fail17h315aac587d80b977E>

0000000100004258 <__ZN4core3ptr95drop_in_place$LT$core..option..IntoIter$LT$std..backtrace_rs..symbolize..gimli..Library$GT$$GT$17he8eab3976431a63eE>:
100004258: f4 4f be a9 	stp	x20, x19, [sp, #-32]!
10000425c: fd 7b 01 a9 	stp	x29, x30, [sp, #16]
100004260: fd 43 00 91 	add	x29, sp, #16
100004264: f3 03 00 aa 	mov	x19, x0
100004268: 00 08 40 f9 	ldr	x0, [x0, #16]
10000426c: c0 01 00 b4 	cbz	x0, 0x1000042a4 <__ZN4core3ptr95drop_in_place$LT$core..option..IntoIter$LT$std..backtrace_rs..symbolize..gimli..Library$GT$$GT$17he8eab3976431a63eE+0x4c>
100004270: 61 06 40 f9 	ldr	x1, [x19, #8]
100004274: 81 00 00 b4 	cbz	x1, 0x100004284 <__ZN4core3ptr95drop_in_place$LT$core..option..IntoIter$LT$std..backtrace_rs..symbolize..gimli..Library$GT$$GT$17he8eab3976431a63eE+0x2c>
100004278: e8 03 21 aa 	mvn	x8, x1
10000427c: 02 fd 7f d3 	lsr	x2, x8, #63
100004280: f8 f7 ff 97 	bl	0x100002260 <___rust_dealloc>
100004284: 68 12 40 f9 	ldr	x8, [x19, #32]
100004288: e8 00 00 b4 	cbz	x8, 0x1000042a4 <__ZN4core3ptr95drop_in_place$LT$core..option..IntoIter$LT$std..backtrace_rs..symbolize..gimli..Library$GT$$GT$17he8eab3976431a63eE+0x4c>
10000428c: 60 16 40 f9 	ldr	x0, [x19, #40]
100004290: 01 ed 7c d3 	lsl	x1, x8, #4
100004294: 02 01 80 52 	mov	w2, #8
100004298: fd 7b 41 a9 	ldp	x29, x30, [sp, #16]
10000429c: f4 4f c2 a8 	ldp	x20, x19, [sp], #32
1000042a0: f0 f7 ff 17 	b	0x100002260 <___rust_dealloc>
1000042a4: fd 7b 41 a9 	ldp	x29, x30, [sp, #16]
1000042a8: f4 4f c2 a8 	ldp	x20, x19, [sp], #32
1000042ac: c0 03 5f d6 	ret

00000001000042b0 <__ZN4core3ptr95drop_in_place$LT$std..io..buffered..linewriter..LineWriter$LT$std..io..stdio..StdoutRaw$GT$$GT$17h1d1415a5dc391806E>:
1000042b0: f6 57 bd a9 	stp	x22, x21, [sp, #-48]!
1000042b4: f4 4f 01 a9 	stp	x20, x19, [sp, #16]
1000042b8: fd 7b 02 a9 	stp	x29, x30, [sp, #32]
1000042bc: fd 83 00 91 	add	x29, sp, #32
1000042c0: f3 03 00 aa 	mov	x19, x0
1000042c4: 08 60 40 39 	ldrb	w8, [x0, #24]
1000042c8: e8 02 00 35 	cbnz	w8, 0x100004324 <__ZN4core3ptr95drop_in_place$LT$std..io..buffered..linewriter..LineWriter$LT$std..io..stdio..StdoutRaw$GT$$GT$17h1d1415a5dc391806E+0x74>
1000042cc: e0 03 13 aa 	mov	x0, x19
1000042d0: dc 47 00 94 	bl	0x100016240 <__ZN3std2io8buffered9bufwriter18BufWriter$LT$W$GT$9flush_buf17ha79d5b842d0bba57E>
1000042d4: f5 03 00 aa 	mov	x21, x0
1000042d8: 60 02 00 b4 	cbz	x0, 0x100004324 <__ZN4core3ptr95drop_in_place$LT$std..io..buffered..linewriter..LineWriter$LT$std..io..stdio..StdoutRaw$GT$$GT$17h1d1415a5dc391806E+0x74>
1000042dc: a8 06 40 92 	and	x8, x21, #0x3
1000042e0: 1f 05 00 f1 	cmp	x8, #1
1000042e4: 01 02 00 54 	b.ne	0x100004324 <__ZN4core3ptr95drop_in_place$LT$std..io..buffered..linewriter..LineWriter$LT$std..io..stdio..StdoutRaw$GT$$GT$17h1d1415a5dc391806E+0x74>
1000042e8: f4 03 15 aa 	mov	x20, x21
1000042ec: 80 fe 5f f8 	ldr	x0, [x20, #-1]!
1000042f0: 88 06 40 f9 	ldr	x8, [x20, #8]
1000042f4: 08 01 40 f9 	ldr	x8, [x8]
1000042f8: 00 01 3f d6 	blr	x8
1000042fc: a8 72 40 f8 	ldur	x8, [x21, #7]
100004300: 01 05 40 f9 	ldr	x1, [x8, #8]
100004304: 81 00 00 b4 	cbz	x1, 0x100004314 <__ZN4core3ptr95drop_in_place$LT$std..io..buffered..linewriter..LineWriter$LT$std..io..stdio..StdoutRaw$GT$$GT$17h1d1415a5dc391806E+0x64>
100004308: 02 09 40 f9 	ldr	x2, [x8, #16]
10000430c: 80 02 40 f9 	ldr	x0, [x20]
100004310: d4 f7 ff 97 	bl	0x100002260 <___rust_dealloc>
100004314: e0 03 14 aa 	mov	x0, x20
100004318: 01 03 80 52 	mov	w1, #24
10000431c: 02 01 80 52 	mov	w2, #8
100004320: d0 f7 ff 97 	bl	0x100002260 <___rust_dealloc>
100004324: 61 02 40 f9 	ldr	x1, [x19]
100004328: 01 01 00 b4 	cbz	x1, 0x100004348 <__ZN4core3ptr95drop_in_place$LT$std..io..buffered..linewriter..LineWriter$LT$std..io..stdio..StdoutRaw$GT$$GT$17h1d1415a5dc391806E+0x98>
10000432c: 60 06 40 f9 	ldr	x0, [x19, #8]
100004330: e8 03 21 aa 	mvn	x8, x1
100004334: 02 fd 7f d3 	lsr	x2, x8, #63
100004338: fd 7b 42 a9 	ldp	x29, x30, [sp, #32]
10000433c: f4 4f 41 a9 	ldp	x20, x19, [sp, #16]
100004340: f6 57 c3 a8 	ldp	x22, x21, [sp], #48
100004344: c7 f7 ff 17 	b	0x100002260 <___rust_dealloc>
100004348: fd 7b 42 a9 	ldp	x29, x30, [sp, #32]
10000434c: f4 4f 41 a9 	ldp	x20, x19, [sp, #16]
100004350: f6 57 c3 a8 	ldp	x22, x21, [sp], #48
100004354: c0 03 5f d6 	ret
100004358: e8 03 15 aa 	mov	x8, x21
10000435c: f5 03 00 aa 	mov	x21, x0
100004360: 00 f1 5f f8 	ldur	x0, [x8, #-1]
100004364: 08 71 40 f8 	ldur	x8, [x8, #7]
100004368: 01 89 40 a9 	ldp	x1, x2, [x8, #8]
10000436c: be 0b 00 94 	bl	0x100007264 <__ZN5alloc5alloc8box_free17h451b979ec62a4309E>
100004370: e0 03 14 aa 	mov	x0, x20
100004374: c7 0b 00 94 	bl	0x100007290 <__ZN5alloc5alloc8box_free17hc8cb259e0594c028E>
100004378: 02 00 00 14 	b	0x100004380 <__ZN4core3ptr95drop_in_place$LT$std..io..buffered..linewriter..LineWriter$LT$std..io..stdio..StdoutRaw$GT$$GT$17h1d1415a5dc391806E+0xd0>
10000437c: f5 03 00 aa 	mov	x21, x0
100004380: e0 03 13 aa 	mov	x0, x19
100004384: bd fc ff 97 	bl	0x100003678 <__ZN4core3ptr46drop_in_place$LT$alloc..vec..Vec$LT$u8$GT$$GT$17h8a41575d9a8507fcE>
100004388: e0 03 15 aa 	mov	x0, x21
10000438c: b1 b6 00 94 	bl	0x100031e50 <_writev+0x100031e50>
100004390: 10 b6 00 94 	bl	0x100031bd0 <__ZN4core9panicking19panic_cannot_unwind17h7ea28f7e8ef3b392E>

0000000100004394 <__ZN4core3ptr98drop_in_place$LT$alloc..boxed..Box$LT$std..sys..unix..locks..pthread_mutex..AllocatedMutex$GT$$GT$17h74a9f5008d37a72aE>:
100004394: f4 4f be a9 	stp	x20, x19, [sp, #-32]!
100004398: fd 7b 01 a9 	stp	x29, x30, [sp, #16]
10000439c: fd 43 00 91 	add	x29, sp, #16
1000043a0: f3 03 00 aa 	mov	x19, x0
1000043a4: 00 00 40 f9 	ldr	x0, [x0]
1000043a8: 10 b7 00 94 	bl	0x100031fe8 <_writev+0x100031fe8>
1000043ac: 60 02 40 f9 	ldr	x0, [x19]
1000043b0: 01 08 80 52 	mov	w1, #64
1000043b4: 02 01 80 52 	mov	w2, #8
1000043b8: fd 7b 41 a9 	ldp	x29, x30, [sp, #16]
1000043bc: f4 4f c2 a8 	ldp	x20, x19, [sp], #32
1000043c0: a8 f7 ff 17 	b	0x100002260 <___rust_dealloc>

00000001000043c4 <__ZN4core5slice4sort12choose_pivot28_$u7b$$u7b$closure$u7d$$u7d$17h2e8444f08caf549aE>:
1000043c4: ff c3 01 d1 	sub	sp, sp, #112
1000043c8: fc 6f 01 a9 	stp	x28, x27, [sp, #16]
1000043cc: fa 67 02 a9 	stp	x26, x25, [sp, #32]
1000043d0: f8 5f 03 a9 	stp	x24, x23, [sp, #48]
1000043d4: f6 57 04 a9 	stp	x22, x21, [sp, #64]
1000043d8: f4 4f 05 a9 	stp	x20, x19, [sp, #80]
1000043dc: fd 7b 06 a9 	stp	x29, x30, [sp, #96]
1000043e0: fd 83 01 91 	add	x29, sp, #96
1000043e4: f6 03 03 aa 	mov	x22, x3
1000043e8: f3 03 02 aa 	mov	x19, x2
1000043ec: f5 03 01 aa 	mov	x21, x1
1000043f0: f4 03 00 aa 	mov	x20, x0
1000043f4: 19 00 40 f9 	ldr	x25, [x0]
1000043f8: 58 00 40 f9 	ldr	x24, [x2]
1000043fc: 08 03 80 52 	mov	w8, #24
100004400: 09 67 08 9b 	madd	x9, x24, x8, x25
100004404: 3c 00 40 f9 	ldr	x28, [x1]
100004408: 88 67 08 9b 	madd	x8, x28, x8, x25
10000440c: 37 6d 40 a9 	ldp	x23, x27, [x9]
100004410: 01 21 40 a9 	ldp	x1, x8, [x8]
100004414: 7a 03 08 eb 	subs	x26, x27, x8
100004418: 62 33 88 9a 	csel	x2, x27, x8, lo
10000441c: e0 03 17 aa 	mov	x0, x23
100004420: d1 b6 00 94 	bl	0x100031f64 <_writev+0x100031f64>
100004424: 08 7c 40 93 	sxtw	x8, w0
100004428: 1f 00 00 71 	cmp	w0, #0
10000442c: 48 03 88 9a 	csel	x8, x26, x8, eq
100004430: f5 07 00 f9 	str	x21, [sp, #8]
100004434: 68 00 f8 b7 	tbnz	x8, #63, 0x100004440 <__ZN4core5slice4sort12choose_pivot28_$u7b$$u7b$closure$u7d$$u7d$17h2e8444f08caf549aE+0x7c>
100004438: fa 03 1c aa 	mov	x26, x28
10000443c: 0d 00 00 14 	b	0x100004470 <__ZN4core5slice4sort12choose_pivot28_$u7b$$u7b$closure$u7d$$u7d$17h2e8444f08caf549aE+0xac>
100004440: b8 02 00 f9 	str	x24, [x21]
100004444: 7c 02 00 f9 	str	x28, [x19]
100004448: 88 0e 40 f9 	ldr	x8, [x20, #24]
10000444c: 09 01 40 f9 	ldr	x9, [x8]
100004450: 29 05 00 91 	add	x9, x9, #1
100004454: 09 01 00 f9 	str	x9, [x8]
100004458: 99 02 40 f9 	ldr	x25, [x20]
10000445c: 08 03 80 52 	mov	w8, #24
100004460: 88 67 08 9b 	madd	x8, x28, x8, x25
100004464: 17 6d 40 a9 	ldp	x23, x27, [x8]
100004468: fa 03 18 aa 	mov	x26, x24
10000446c: f8 03 1c aa 	mov	x24, x28
100004470: dc 02 40 f9 	ldr	x28, [x22]
100004474: 08 03 80 52 	mov	w8, #24
100004478: 88 67 08 9b 	madd	x8, x28, x8, x25
10000447c: 00 21 40 a9 	ldp	x0, x8, [x8]
100004480: 15 01 1b eb 	subs	x21, x8, x27
100004484: 02 31 9b 9a 	csel	x2, x8, x27, lo
100004488: e1 03 17 aa 	mov	x1, x23
10000448c: b6 b6 00 94 	bl	0x100031f64 <_writev+0x100031f64>
100004490: 08 7c 40 93 	sxtw	x8, w0
100004494: 1f 00 00 71 	cmp	w0, #0
100004498: a8 02 88 9a 	csel	x8, x21, x8, eq
10000449c: 88 01 f8 b6 	tbz	x8, #63, 0x1000044cc <__ZN4core5slice4sort12choose_pivot28_$u7b$$u7b$closure$u7d$$u7d$17h2e8444f08caf549aE+0x108>
1000044a0: 7c 02 00 f9 	str	x28, [x19]
1000044a4: d8 02 00 f9 	str	x24, [x22]
1000044a8: 88 0e 40 f9 	ldr	x8, [x20, #24]
1000044ac: 09 01 40 f9 	ldr	x9, [x8]
1000044b0: 29 05 00 91 	add	x9, x9, #1
1000044b4: 09 01 00 f9 	str	x9, [x8]
1000044b8: 99 02 40 f9 	ldr	x25, [x20]
1000044bc: 08 03 80 52 	mov	w8, #24
1000044c0: 88 67 08 9b 	madd	x8, x28, x8, x25
1000044c4: 17 6d 40 a9 	ldp	x23, x27, [x8]
1000044c8: f8 03 1c aa 	mov	x24, x28
1000044cc: 08 03 80 52 	mov	w8, #24
1000044d0: 48 67 08 9b 	madd	x8, x26, x8, x25
1000044d4: 01 21 40 a9 	ldp	x1, x8, [x8]
1000044d8: 75 03 08 eb 	subs	x21, x27, x8
1000044dc: 62 33 88 9a 	csel	x2, x27, x8, lo
1000044e0: e0 03 17 aa 	mov	x0, x23
1000044e4: a0 b6 00 94 	bl	0x100031f64 <_writev+0x100031f64>
1000044e8: 08 7c 40 93 	sxtw	x8, w0
1000044ec: 1f 00 00 71 	cmp	w0, #0
1000044f0: a8 02 88 9a 	csel	x8, x21, x8, eq
1000044f4: 08 01 f8 b6 	tbz	x8, #63, 0x100004514 <__ZN4core5slice4sort12choose_pivot28_$u7b$$u7b$closure$u7d$$u7d$17h2e8444f08caf549aE+0x150>
1000044f8: e8 07 40 f9 	ldr	x8, [sp, #8]
1000044fc: 18 01 00 f9 	str	x24, [x8]
100004500: 7a 02 00 f9 	str	x26, [x19]
100004504: 88 0e 40 f9 	ldr	x8, [x20, #24]
100004508: 09 01 40 f9 	ldr	x9, [x8]
10000450c: 29 05 00 91 	add	x9, x9, #1
100004510: 09 01 00 f9 	str	x9, [x8]
100004514: fd 7b 46 a9 	ldp	x29, x30, [sp, #96]
100004518: f4 4f 45 a9 	ldp	x20, x19, [sp, #80]
10000451c: f6 57 44 a9 	ldp	x22, x21, [sp, #64]
100004520: f8 5f 43 a9 	ldp	x24, x23, [sp, #48]
100004524: fa 67 42 a9 	ldp	x26, x25, [sp, #32]
100004528: fc 6f 41 a9 	ldp	x28, x27, [sp, #16]
10000452c: ff c3 01 91 	add	sp, sp, #112
100004530: c0 03 5f d6 	ret

0000000100004534 <__ZN4core5slice4sort7recurse17h6e2b0cc0dbbe267eE>:
100004534: ff c3 06 d1 	sub	sp, sp, #432
100004538: fc 6f 15 a9 	stp	x28, x27, [sp, #336]
10000453c: fa 67 16 a9 	stp	x26, x25, [sp, #352]
100004540: f8 5f 17 a9 	stp	x24, x23, [sp, #368]
100004544: f6 57 18 a9 	stp	x22, x21, [sp, #384]
100004548: f4 4f 19 a9 	stp	x20, x19, [sp, #400]
10000454c: fd 7b 1a a9 	stp	x29, x30, [sp, #416]
100004550: fd 83 06 91 	add	x29, sp, #416
100004554: e2 07 00 f9 	str	x2, [sp, #8]
100004558: fe 03 01 aa 	mov	x30, x1
10000455c: f3 03 00 aa 	mov	x19, x0
100004560: 3f 54 00 f1 	cmp	x1, #21
100004564: 42 06 00 54 	b.hs	0x10000462c <__ZN4core5slice4sort7recurse17h6e2b0cc0dbbe267eE+0xf8>
100004568: fa 03 1e aa 	mov	x26, x30
10000456c: f8 03 13 aa 	mov	x24, x19
100004570: 5f 0b 00 f1 	cmp	x26, #2
100004574: 83 47 00 54 	b.lo	0x100004e64 <__ZN4core5slice4sort7recurse17h6e2b0cc0dbbe267eE+0x930>
100004578: 08 00 80 d2 	mov	x8, #0
10000457c: 29 00 80 52 	mov	w9, #1
100004580: 0a 03 80 52 	mov	w10, #24
100004584: eb 03 18 aa 	mov	x11, x24
100004588: 0a 00 00 14 	b	0x1000045b0 <__ZN4core5slice4sort7recurse17h6e2b0cc0dbbe267eE+0x7c>
10000458c: ed 03 18 aa 	mov	x13, x24
100004590: e0 2f c0 3d 	ldr	q0, [sp, #176]
100004594: a0 01 80 3d 	str	q0, [x13]
100004598: ac 09 00 f9 	str	x12, [x13, #16]
10000459c: 29 05 00 91 	add	x9, x9, #1
1000045a0: 6b 61 00 91 	add	x11, x11, #24
1000045a4: 08 05 00 d1 	sub	x8, x8, #1
1000045a8: 3f 01 1a eb 	cmp	x9, x26
1000045ac: c0 45 00 54 	b.eq	0x100004e64 <__ZN4core5slice4sort7recurse17h6e2b0cc0dbbe267eE+0x930>
1000045b0: 2e 61 0a 9b 	madd	x14, x9, x10, x24
1000045b4: cc 09 40 f9 	ldr	x12, [x14, #16]
1000045b8: cd 81 5f f8 	ldur	x13, [x14, #-8]
1000045bc: 9f 01 0d eb 	cmp	x12, x13
1000045c0: e2 fe ff 54 	b.hs	0x10000459c <__ZN4core5slice4sort7recurse17h6e2b0cc0dbbe267eE+0x68>
1000045c4: cd 61 00 d1 	sub	x13, x14, #24
1000045c8: c0 01 c0 3d 	ldr	q0, [x14]
1000045cc: e0 2f 80 3d 	str	q0, [sp, #176]
1000045d0: af 09 40 f9 	ldr	x15, [x13, #16]
1000045d4: cf 09 00 f9 	str	x15, [x14, #16]
1000045d8: a0 01 c0 3d 	ldr	q0, [x13]
1000045dc: c0 01 80 3d 	str	q0, [x14]
1000045e0: 2f 05 00 d1 	sub	x15, x9, #1
1000045e4: 6f fd ff b4 	cbz	x15, 0x100004590 <__ZN4core5slice4sort7recurse17h6e2b0cc0dbbe267eE+0x5c>
1000045e8: d0 01 5e f8 	ldur	x16, [x14, #-32]
1000045ec: ee 03 08 aa 	mov	x14, x8
1000045f0: ef 03 0b aa 	mov	x15, x11
1000045f4: 9f 01 10 eb 	cmp	x12, x16
1000045f8: c2 fc ff 54 	b.hs	0x100004590 <__ZN4core5slice4sort7recurse17h6e2b0cc0dbbe267eE+0x5c>
1000045fc: e0 81 de 3c 	ldur	q0, [x15, #-24]
100004600: e0 01 80 3d 	str	q0, [x15]
100004604: ed 81 5f f8 	ldur	x13, [x15, #-8]
100004608: ed 09 00 f9 	str	x13, [x15, #16]
10000460c: ce 05 00 b1 	adds	x14, x14, #1
100004610: e2 fb ff 54 	b.hs	0x10000458c <__ZN4core5slice4sort7recurse17h6e2b0cc0dbbe267eE+0x58>
100004614: ed 61 00 d1 	sub	x13, x15, #24
100004618: f0 01 5e f8 	ldur	x16, [x15, #-32]
10000461c: ef 03 0d aa 	mov	x15, x13
100004620: 9f 01 10 eb 	cmp	x12, x16
100004624: c3 fe ff 54 	b.lo	0x1000045fc <__ZN4core5slice4sort7recurse17h6e2b0cc0dbbe267eE+0xc8>
100004628: da ff ff 17 	b	0x100004590 <__ZN4core5slice4sort7recurse17h6e2b0cc0dbbe267eE+0x5c>
10000462c: f5 03 04 aa 	mov	x21, x4
100004630: f6 03 03 aa 	mov	x22, x3
100004634: 21 00 80 52 	mov	w1, #1
100004638: 1c 03 80 52 	mov	w28, #24
10000463c: e2 f3 7d b2 	orr	x2, xzr, #0xfffffffffffffff8
100004640: 3b 00 80 52 	mov	w27, #1
100004644: 34 00 80 52 	mov	w20, #1
100004648: 77 03 14 0a 	and	w23, w27, w20
10000464c: f8 03 13 aa 	mov	x24, x19
100004650: f9 03 1e aa 	mov	x25, x30
100004654: 15 40 00 34 	cbz	w21, 0x100004e54 <__ZN4core5slice4sort7recurse17h6e2b0cc0dbbe267eE+0x920>
100004658: 1b 08 00 36 	tbz	w27, #0, 0x100004758 <__ZN4core5slice4sort7recurse17h6e2b0cc0dbbe267eE+0x224>
10000465c: 29 ff 42 d3 	lsr	x9, x25, #2
100004660: 2a f9 7f d3 	lsl	x10, x9, #1
100004664: 48 01 09 8b 	add	x8, x10, x9
100004668: 3f c7 00 f1 	cmp	x25, #49
10000466c: 09 09 00 54 	b.ls	0x10000478c <__ZN4core5slice4sort7recurse17h6e2b0cc0dbbe267eE+0x258>
100004670: 2b 05 00 d1 	sub	x11, x9, #1
100004674: 2c 05 00 91 	add	x12, x9, #1
100004678: 2d 61 1c 9b 	madd	x13, x9, x28, x24
10000467c: ae 09 40 f9 	ldr	x14, [x13, #16]
100004680: af 81 5f f8 	ldur	x15, [x13, #-8]
100004684: df 01 0f eb 	cmp	x14, x15
100004688: f0 21 8e 9a 	csel	x16, x15, x14, hs
10000468c: f1 23 81 9a 	csel	x17, xzr, x1, hs
100004690: 20 21 8b 9a 	csel	x0, x9, x11, hs
100004694: 69 21 89 9a 	csel	x9, x11, x9, hs
100004698: cb 21 8f 9a 	csel	x11, x14, x15, hs
10000469c: ad 15 40 f9 	ldr	x13, [x13, #40]
1000046a0: bf 01 0b eb 	cmp	x13, x11
1000046a4: 8c 31 80 9a 	csel	x12, x12, x0, lo
1000046a8: 2e 26 91 9a 	cinc	x14, x17, lo
1000046ac: ab 31 8b 9a 	csel	x11, x13, x11, lo
1000046b0: 7f 01 10 eb 	cmp	x11, x16
1000046b4: 29 31 8c 9a 	csel	x9, x9, x12, lo
1000046b8: cb 25 8e 9a 	cinc	x11, x14, lo
1000046bc: 4c 05 00 d1 	sub	x12, x10, #1
1000046c0: 4d 01 40 b2 	orr	x13, x10, #0x1
1000046c4: 4e 61 1c 9b 	madd	x14, x10, x28, x24
1000046c8: cf 09 40 f9 	ldr	x15, [x14, #16]
1000046cc: d0 81 5f f8 	ldur	x16, [x14, #-8]
1000046d0: ff 01 10 eb 	cmp	x15, x16
1000046d4: 11 22 8f 9a 	csel	x17, x16, x15, hs
1000046d8: 6b 25 8b 9a 	cinc	x11, x11, lo
1000046dc: 40 21 8c 9a 	csel	x0, x10, x12, hs
1000046e0: 8a 21 8a 9a 	csel	x10, x12, x10, hs
1000046e4: ec 21 90 9a 	csel	x12, x15, x16, hs
1000046e8: ce 15 40 f9 	ldr	x14, [x14, #40]
1000046ec: df 01 0c eb 	cmp	x14, x12
1000046f0: ad 31 80 9a 	csel	x13, x13, x0, lo
1000046f4: 6b 25 8b 9a 	cinc	x11, x11, lo
1000046f8: cc 31 8c 9a 	csel	x12, x14, x12, lo
1000046fc: 9f 01 11 eb 	cmp	x12, x17
100004700: 4a 31 8d 9a 	csel	x10, x10, x13, lo
100004704: 6b 25 8b 9a 	cinc	x11, x11, lo
100004708: 0c 05 00 d1 	sub	x12, x8, #1
10000470c: 0d 05 00 91 	add	x13, x8, #1
100004710: 0e 61 1c 9b 	madd	x14, x8, x28, x24
100004714: cf 09 40 f9 	ldr	x15, [x14, #16]
100004718: d0 81 5f f8 	ldur	x16, [x14, #-8]
10000471c: ff 01 10 eb 	cmp	x15, x16
100004720: 11 22 8f 9a 	csel	x17, x16, x15, hs
100004724: 6b 25 8b 9a 	cinc	x11, x11, lo
100004728: 00 21 8c 9a 	csel	x0, x8, x12, hs
10000472c: 88 21 88 9a 	csel	x8, x12, x8, hs
100004730: ec 21 90 9a 	csel	x12, x15, x16, hs
100004734: ce 15 40 f9 	ldr	x14, [x14, #40]
100004738: df 01 0c eb 	cmp	x14, x12
10000473c: ad 31 80 9a 	csel	x13, x13, x0, lo
100004740: 6b 25 8b 9a 	cinc	x11, x11, lo
100004744: cc 31 8c 9a 	csel	x12, x14, x12, lo
100004748: 9f 01 11 eb 	cmp	x12, x17
10000474c: 08 31 8d 9a 	csel	x8, x8, x13, lo
100004750: 6b 25 8b 9a 	cinc	x11, x11, lo
100004754: 0f 00 00 14 	b	0x100004790 <__ZN4core5slice4sort7recurse17h6e2b0cc0dbbe267eE+0x25c>
100004758: e0 03 18 aa 	mov	x0, x24
10000475c: e1 03 19 aa 	mov	x1, x25
100004760: f4 03 1e aa 	mov	x20, x30
100004764: cd ab 00 94 	bl	0x10002f698 <__ZN4core5slice4sort14break_patterns17hac0213381933f7d8E>
100004768: fe 03 14 aa 	mov	x30, x20
10000476c: e2 f3 7d b2 	orr	x2, xzr, #0xfffffffffffffff8
100004770: 21 00 80 52 	mov	w1, #1
100004774: b5 06 00 51 	sub	w21, w21, #1
100004778: 29 ff 42 d3 	lsr	x9, x25, #2
10000477c: 2a f9 7f d3 	lsl	x10, x9, #1
100004780: 48 01 09 8b 	add	x8, x10, x9
100004784: 3f c7 00 f1 	cmp	x25, #49
100004788: 48 f7 ff 54 	b.hi	0x100004670 <__ZN4core5slice4sort7recurse17h6e2b0cc0dbbe267eE+0x13c>
10000478c: 0b 00 80 d2 	mov	x11, #0
100004790: 4c 61 1c 9b 	madd	x12, x10, x28, x24
100004794: 8c 09 40 f9 	ldr	x12, [x12, #16]
100004798: 2d 61 1c 9b 	madd	x13, x9, x28, x24
10000479c: ad 09 40 f9 	ldr	x13, [x13, #16]
1000047a0: 9f 01 0d eb 	cmp	x12, x13
1000047a4: ae 21 8c 9a 	csel	x14, x13, x12, hs
1000047a8: 6b 25 8b 9a 	cinc	x11, x11, lo
1000047ac: 4f 21 89 9a 	csel	x15, x10, x9, hs
1000047b0: 3a 21 8a 9a 	csel	x26, x9, x10, hs
1000047b4: 8a 21 8d 9a 	csel	x10, x12, x13, hs
1000047b8: 09 61 1c 9b 	madd	x9, x8, x28, x24
1000047bc: 2c 09 40 f9 	ldr	x12, [x9, #16]
1000047c0: 9f 01 0a eb 	cmp	x12, x10
1000047c4: 09 31 8f 9a 	csel	x9, x8, x15, lo
1000047c8: 68 25 8b 9a 	cinc	x8, x11, lo
1000047cc: 8a 31 8a 9a 	csel	x10, x12, x10, lo
1000047d0: 5f 01 0e eb 	cmp	x10, x14
1000047d4: 22 01 00 54 	b.hs	0x1000047f8 <__ZN4core5slice4sort7recurse17h6e2b0cc0dbbe267eE+0x2c4>
1000047d8: 1f 2d 00 f1 	cmp	x8, #11
1000047dc: a2 01 00 54 	b.hs	0x100004810 <__ZN4core5slice4sort7recurse17h6e2b0cc0dbbe267eE+0x2dc>
1000047e0: 08 05 00 91 	add	x8, x8, #1
1000047e4: 1f 01 00 f1 	cmp	x8, #0
1000047e8: e8 17 9f 1a 	cset	w8, eq
1000047ec: e8 02 08 0a 	and	w8, w23, w8
1000047f0: e8 03 00 36 	tbz	w8, #0, 0x10000486c <__ZN4core5slice4sort7recurse17h6e2b0cc0dbbe267eE+0x338>
1000047f4: 6c 00 00 14 	b	0x1000049a4 <__ZN4core5slice4sort7recurse17h6e2b0cc0dbbe267eE+0x470>
1000047f8: fa 03 09 aa 	mov	x26, x9
1000047fc: 1f 01 00 f1 	cmp	x8, #0
100004800: e8 17 9f 1a 	cset	w8, eq
100004804: e8 02 08 0a 	and	w8, w23, w8
100004808: 28 03 00 36 	tbz	w8, #0, 0x10000486c <__ZN4core5slice4sort7recurse17h6e2b0cc0dbbe267eE+0x338>
10000480c: 66 00 00 14 	b	0x1000049a4 <__ZN4core5slice4sort7recurse17h6e2b0cc0dbbe267eE+0x470>
100004810: 28 ff 41 d3 	lsr	x8, x25, #1
100004814: 29 63 1c 9b 	madd	x9, x25, x28, x24
100004818: 29 61 00 d1 	sub	x9, x9, #24
10000481c: ea 03 18 aa 	mov	x10, x24
100004820: 40 01 c0 3d 	ldr	q0, [x10]
100004824: 4b 09 40 f9 	ldr	x11, [x10, #16]
100004828: eb 63 00 f9 	str	x11, [sp, #192]
10000482c: e0 2f 80 3d 	str	q0, [sp, #176]
100004830: 20 01 c0 3d 	ldr	q0, [x9]
100004834: 2b 09 40 f9 	ldr	x11, [x9, #16]
100004838: 4b 09 00 f9 	str	x11, [x10, #16]
10000483c: 40 85 81 3c 	str	q0, [x10], #24
100004840: e0 2f c0 3d 	ldr	q0, [sp, #176]
100004844: eb 63 40 f9 	ldr	x11, [sp, #192]
100004848: 2b 09 00 f9 	str	x11, [x9, #16]
10000484c: 20 85 9e 3c 	str	q0, [x9], #-24
100004850: 08 05 00 d1 	sub	x8, x8, #1
100004854: 68 fe ff b5 	cbnz	x8, 0x100004820 <__ZN4core5slice4sort7recurse17h6e2b0cc0dbbe267eE+0x2ec>
100004858: e8 03 3a aa 	mvn	x8, x26
10000485c: 3a 03 08 8b 	add	x26, x25, x8
100004860: 28 00 80 52 	mov	w8, #1
100004864: e8 02 08 0a 	and	w8, w23, w8
100004868: e8 09 00 37 	tbnz	w8, #0, 0x1000049a4 <__ZN4core5slice4sort7recurse17h6e2b0cc0dbbe267eE+0x470>
10000486c: 36 0b 00 b4 	cbz	x22, 0x1000049d0 <__ZN4core5slice4sort7recurse17h6e2b0cc0dbbe267eE+0x49c>
100004870: 5f 03 19 eb 	cmp	x26, x25
100004874: 82 30 00 54 	b.hs	0x100004e84 <__ZN4core5slice4sort7recurse17h6e2b0cc0dbbe267eE+0x950>
100004878: 49 63 1c 9b 	madd	x9, x26, x28, x24
10000487c: c8 0a 40 f9 	ldr	x8, [x22, #16]
100004880: 2a 09 40 f9 	ldr	x10, [x9, #16]
100004884: 1f 01 0a eb 	cmp	x8, x10
100004888: 03 0a 00 54 	b.lo	0x1000049c8 <__ZN4core5slice4sort7recurse17h6e2b0cc0dbbe267eE+0x494>
10000488c: 08 00 80 d2 	mov	x8, #0
100004890: 00 03 c0 3d 	ldr	q0, [x24]
100004894: 0a 0b 40 f9 	ldr	x10, [x24, #16]
100004898: ea 63 00 f9 	str	x10, [sp, #192]
10000489c: e0 2f 80 3d 	str	q0, [sp, #176]
1000048a0: 20 01 c0 3d 	ldr	q0, [x9]
1000048a4: 2a 09 40 f9 	ldr	x10, [x9, #16]
1000048a8: 0a 0b 00 f9 	str	x10, [x24, #16]
1000048ac: 00 03 80 3d 	str	q0, [x24]
1000048b0: e0 2f c0 3d 	ldr	q0, [sp, #176]
1000048b4: ea 63 40 f9 	ldr	x10, [sp, #192]
1000048b8: 2a 09 00 f9 	str	x10, [x9, #16]
1000048bc: 20 01 80 3d 	str	q0, [x9]
1000048c0: 0a 63 00 91 	add	x10, x24, #24
1000048c4: 09 0b 40 f9 	ldr	x9, [x24, #16]
1000048c8: 00 03 c0 3d 	ldr	q0, [x24]
1000048cc: e0 0f 80 3d 	str	q0, [sp, #48]
1000048d0: 0b a3 00 91 	add	x11, x24, #40
1000048d4: ec 03 19 aa 	mov	x12, x25
1000048d8: 2d 07 00 d1 	sub	x13, x25, #1
1000048dc: 1f 01 0d eb 	cmp	x8, x13
1000048e0: 42 01 00 54 	b.hs	0x100004908 <__ZN4core5slice4sort7recurse17h6e2b0cc0dbbe267eE+0x3d4>
1000048e4: 0e 2d 1c 9b 	madd	x14, x8, x28, x11
1000048e8: cf 01 40 f9 	ldr	x15, [x14]
1000048ec: 3f 01 0f eb 	cmp	x9, x15
1000048f0: c3 00 00 54 	b.lo	0x100004908 <__ZN4core5slice4sort7recurse17h6e2b0cc0dbbe267eE+0x3d4>
1000048f4: 08 05 00 91 	add	x8, x8, #1
1000048f8: ce 61 00 91 	add	x14, x14, #24
1000048fc: bf 01 08 eb 	cmp	x13, x8
100004900: 41 ff ff 54 	b.ne	0x1000048e8 <__ZN4core5slice4sort7recurse17h6e2b0cc0dbbe267eE+0x3b4>
100004904: e8 03 0d aa 	mov	x8, x13
100004908: 8d 09 1c 9b 	madd	x13, x12, x28, x2
10000490c: 8c 05 00 d1 	sub	x12, x12, #1
100004910: 1f 01 0c eb 	cmp	x8, x12
100004914: 02 03 00 54 	b.hs	0x100004974 <__ZN4core5slice4sort7recurse17h6e2b0cc0dbbe267eE+0x440>
100004918: 0e 6b 6d f8 	ldr	x14, [x24, x13]
10000491c: ad 61 00 d1 	sub	x13, x13, #24
100004920: 3f 01 0e eb 	cmp	x9, x14
100004924: 43 ff ff 54 	b.lo	0x10000490c <__ZN4core5slice4sort7recurse17h6e2b0cc0dbbe267eE+0x3d8>
100004928: 0d 29 1c 9b 	madd	x13, x8, x28, x10
10000492c: 8e 61 1c 9b 	madd	x14, x12, x28, x24
100004930: a0 01 c0 3d 	ldr	q0, [x13]
100004934: af 09 40 f9 	ldr	x15, [x13, #16]
100004938: ef 63 00 f9 	str	x15, [sp, #192]
10000493c: e0 2f 80 3d 	str	q0, [sp, #176]
100004940: c0 01 c0 3d 	ldr	q0, [x14]
100004944: cf 09 40 f9 	ldr	x15, [x14, #16]
100004948: af 09 00 f9 	str	x15, [x13, #16]
10000494c: a0 01 80 3d 	str	q0, [x13]
100004950: e0 2f c0 3d 	ldr	q0, [sp, #176]
100004954: ed 63 40 f9 	ldr	x13, [sp, #192]
100004958: cd 09 00 f9 	str	x13, [x14, #16]
10000495c: c0 01 80 3d 	str	q0, [x14]
100004960: 08 05 00 91 	add	x8, x8, #1
100004964: 8d 05 00 d1 	sub	x13, x12, #1
100004968: 1f 01 0d eb 	cmp	x8, x13
10000496c: c3 fb ff 54 	b.lo	0x1000048e4 <__ZN4core5slice4sort7recurse17h6e2b0cc0dbbe267eE+0x3b0>
100004970: e6 ff ff 17 	b	0x100004908 <__ZN4core5slice4sort7recurse17h6e2b0cc0dbbe267eE+0x3d4>
100004974: 00 05 00 91 	add	x0, x8, #1
100004978: e0 0f c0 3d 	ldr	q0, [sp, #48]
10000497c: 00 03 80 3d 	str	q0, [x24]
100004980: 09 0b 00 f9 	str	x9, [x24, #16]
100004984: 3a 03 00 eb 	subs	x26, x25, x0
100004988: 83 29 00 54 	b.lo	0x100004eb8 <__ZN4core5slice4sort7recurse17h6e2b0cc0dbbe267eE+0x984>
10000498c: 08 61 1c 9b 	madd	x8, x8, x28, x24
100004990: 18 61 00 91 	add	x24, x8, #24
100004994: f9 03 1a aa 	mov	x25, x26
100004998: 5f 57 00 f1 	cmp	x26, #21
10000499c: c2 e5 ff 54 	b.hs	0x100004654 <__ZN4core5slice4sort7recurse17h6e2b0cc0dbbe267eE+0x120>
1000049a0: f4 fe ff 17 	b	0x100004570 <__ZN4core5slice4sort7recurse17h6e2b0cc0dbbe267eE+0x3c>
1000049a4: e0 03 18 aa 	mov	x0, x24
1000049a8: e1 03 19 aa 	mov	x1, x25
1000049ac: f4 03 1e aa 	mov	x20, x30
1000049b0: 9c ad 00 94 	bl	0x100030020 <__ZN4core5slice4sort22partial_insertion_sort17hf68ffdc039124ee7E>
1000049b4: fe 03 14 aa 	mov	x30, x20
1000049b8: e2 f3 7d b2 	orr	x2, xzr, #0xfffffffffffffff8
1000049bc: 21 00 80 52 	mov	w1, #1
1000049c0: 60 f5 07 36 	tbz	w0, #0, 0x10000486c <__ZN4core5slice4sort7recurse17h6e2b0cc0dbbe267eE+0x338>
1000049c4: 28 01 00 14 	b	0x100004e64 <__ZN4core5slice4sort7recurse17h6e2b0cc0dbbe267eE+0x930>
1000049c8: f3 03 18 aa 	mov	x19, x24
1000049cc: fe 03 19 aa 	mov	x30, x25
1000049d0: 5f 03 1e eb 	cmp	x26, x30
1000049d4: 22 26 00 54 	b.hs	0x100004e98 <__ZN4core5slice4sort7recurse17h6e2b0cc0dbbe267eE+0x964>
1000049d8: 48 4f 1c 9b 	madd	x8, x26, x28, x19
1000049dc: 60 02 c0 3d 	ldr	q0, [x19]
1000049e0: 69 0a 40 f9 	ldr	x9, [x19, #16]
1000049e4: e9 63 00 f9 	str	x9, [sp, #192]
1000049e8: e0 2f 80 3d 	str	q0, [sp, #176]
1000049ec: 00 01 c0 3d 	ldr	q0, [x8]
1000049f0: 09 09 40 f9 	ldr	x9, [x8, #16]
1000049f4: 69 0a 00 f9 	str	x9, [x19, #16]
1000049f8: 60 02 80 3d 	str	q0, [x19]
1000049fc: e0 2f c0 3d 	ldr	q0, [sp, #176]
100004a00: e9 63 40 f9 	ldr	x9, [sp, #192]
100004a04: 09 09 00 f9 	str	x9, [x8, #16]
100004a08: 00 01 80 3d 	str	q0, [x8]
100004a0c: 60 02 c0 3d 	ldr	q0, [x19]
100004a10: 6a 0a 40 f9 	ldr	x10, [x19, #16]
100004a14: ea 13 00 f9 	str	x10, [sp, #32]
100004a18: e0 07 80 3d 	str	q0, [sp, #16]
100004a1c: 08 00 80 d2 	mov	x8, #0
100004a20: c1 07 00 f1 	subs	x1, x30, #1
100004a24: 80 01 00 54 	b.eq	0x100004a54 <__ZN4core5slice4sort7recurse17h6e2b0cc0dbbe267eE+0x520>
100004a28: 69 a2 00 91 	add	x9, x19, #40
100004a2c: 77 55 95 52 	mov	w23, #43691
100004a30: 2b 01 40 f9 	ldr	x11, [x9]
100004a34: 7f 01 0a eb 	cmp	x11, x10
100004a38: 02 01 00 54 	b.hs	0x100004a58 <__ZN4core5slice4sort7recurse17h6e2b0cc0dbbe267eE+0x524>
100004a3c: 08 05 00 91 	add	x8, x8, #1
100004a40: 29 61 00 91 	add	x9, x9, #24
100004a44: 3f 00 08 eb 	cmp	x1, x8
100004a48: 41 ff ff 54 	b.ne	0x100004a30 <__ZN4core5slice4sort7recurse17h6e2b0cc0dbbe267eE+0x4fc>
100004a4c: e8 03 01 aa 	mov	x8, x1
100004a50: 02 00 00 14 	b	0x100004a58 <__ZN4core5slice4sort7recurse17h6e2b0cc0dbbe267eE+0x524>
100004a54: 77 55 95 52 	mov	w23, #43691
100004a58: 6b 62 00 91 	add	x11, x19, #24
100004a5c: 1f 01 01 eb 	cmp	x8, x1
100004a60: 0c 31 81 9a 	csel	x12, x8, x1, lo
100004a64: cd 0b 1c 9b 	madd	x13, x30, x28, x2
100004a68: e9 03 1e aa 	mov	x9, x30
100004a6c: 29 05 00 d1 	sub	x9, x9, #1
100004a70: 3f 01 08 eb 	cmp	x9, x8
100004a74: c9 00 00 54 	b.ls	0x100004a8c <__ZN4core5slice4sort7recurse17h6e2b0cc0dbbe267eE+0x558>
100004a78: 6e 6a 6d f8 	ldr	x14, [x19, x13]
100004a7c: ad 61 00 d1 	sub	x13, x13, #24
100004a80: df 01 0a eb 	cmp	x14, x10
100004a84: 42 ff ff 54 	b.hs	0x100004a6c <__ZN4core5slice4sort7recurse17h6e2b0cc0dbbe267eE+0x538>
100004a88: 02 00 00 14 	b	0x100004a90 <__ZN4core5slice4sort7recurse17h6e2b0cc0dbbe267eE+0x55c>
100004a8c: e9 03 0c aa 	mov	x9, x12
100004a90: 2c 01 08 eb 	subs	x12, x9, x8
100004a94: 43 22 00 54 	b.lo	0x100004edc <__ZN4core5slice4sort7recurse17h6e2b0cc0dbbe267eE+0x9a8>
100004a98: 3f 01 01 eb 	cmp	x9, x1
100004a9c: 68 21 00 54 	b.hi	0x100004ec8 <__ZN4core5slice4sort7recurse17h6e2b0cc0dbbe267eE+0x994>
100004aa0: 0d 00 80 d2 	mov	x13, #0
100004aa4: 10 00 80 d2 	mov	x16, #0
100004aa8: 0e 00 80 d2 	mov	x14, #0
100004aac: 11 00 80 d2 	mov	x17, #0
100004ab0: 0b 2d 1c 9b 	madd	x11, x8, x28, x11
100004ab4: 8c 2d 1c 9b 	madd	x12, x12, x28, x11
100004ab8: 00 10 80 52 	mov	w0, #128
100004abc: 01 10 80 52 	mov	w1, #128
100004ac0: ef 03 0b aa 	mov	x15, x11
100004ac4: 10 00 00 14 	b	0x100004b04 <__ZN4core5slice4sort7recurse17h6e2b0cc0dbbe267eE+0x5d0>
100004ac8: a0 03 d9 3c 	ldur	q0, [x29, #-112]
100004acc: a3 03 5a f8 	ldur	x3, [x29, #-96]
100004ad0: 84 30 1c 9b 	madd	x4, x4, x28, x12
100004ad4: 83 08 00 f9 	str	x3, [x4, #16]
100004ad8: 80 00 80 3d 	str	q0, [x4]
100004adc: 31 06 00 91 	add	x17, x17, #1
100004ae0: 10 06 00 91 	add	x16, x16, #1
100004ae4: 3f 02 0e eb 	cmp	x17, x14
100004ae8: 23 00 9f 9a 	csel	x3, x1, xzr, eq
100004aec: 6f 3c 1c 9b 	madd	x15, x3, x28, x15
100004af0: 1f 02 0d eb 	cmp	x16, x13
100004af4: e3 17 80 da 	csneg	x3, xzr, x0, ne
100004af8: 6c 30 1c 9b 	madd	x12, x3, x28, x12
100004afc: 5f 0c 0c f1 	cmp	x2, #771
100004b00: 63 0e 00 54 	b.lo	0x100004ccc <__ZN4core5slice4sort7recurse17h6e2b0cc0dbbe267eE+0x798>
100004b04: 83 01 0f cb 	sub	x3, x12, x15
100004b08: 62 fc 43 d3 	lsr	x2, x3, #3
100004b0c: 5f 0c 0c f1 	cmp	x2, #771
100004b10: 63 01 00 54 	b.lo	0x100004b3c <__ZN4core5slice4sort7recurse17h6e2b0cc0dbbe267eE+0x608>
100004b14: 3f 02 0e eb 	cmp	x17, x14
100004b18: c0 03 00 54 	b.eq	0x100004b90 <__ZN4core5slice4sort7recurse17h6e2b0cc0dbbe267eE+0x65c>
100004b1c: 1f 02 0d eb 	cmp	x16, x13
100004b20: 40 06 00 54 	b.eq	0x100004be8 <__ZN4core5slice4sort7recurse17h6e2b0cc0dbbe267eE+0x6b4>
100004b24: c3 01 11 cb 	sub	x3, x14, x17
100004b28: a4 01 10 cb 	sub	x4, x13, x16
100004b2c: 7f 00 04 eb 	cmp	x3, x4
100004b30: 63 30 84 9a 	csel	x3, x3, x4, lo
100004b34: 43 08 00 b5 	cbnz	x3, 0x100004c3c <__ZN4core5slice4sort7recurse17h6e2b0cc0dbbe267eE+0x708>
100004b38: eb ff ff 17 	b	0x100004ae4 <__ZN4core5slice4sort7recurse17h6e2b0cc0dbbe267eE+0x5b0>
100004b3c: 63 3c 00 12 	and	w3, w3, #0xffff
100004b40: 63 7c 17 1b 	mul	w3, w3, w23
100004b44: 63 7c 14 53 	lsr	w3, w3, #20
100004b48: 3f 02 0e eb 	cmp	x17, x14
100004b4c: e4 27 9f 1a 	cset	w4, lo
100004b50: 1f 02 0d eb 	cmp	x16, x13
100004b54: e5 27 9f 1a 	cset	w5, lo
100004b58: 84 00 05 2a 	orr	w4, w4, w5
100004b5c: 65 00 02 d1 	sub	x5, x3, #128
100004b60: 9f 00 00 71 	cmp	w4, #0
100004b64: a3 10 83 9a 	csel	x3, x5, x3, ne
100004b68: 3f 02 0e eb 	cmp	x17, x14
100004b6c: 60 30 80 9a 	csel	x0, x3, x0, lo
100004b70: 21 30 83 9a 	csel	x1, x1, x3, lo
100004b74: 65 fc 41 d3 	lsr	x5, x3, #1
100004b78: 63 00 05 cb 	sub	x3, x3, x5
100004b7c: 9f 00 00 72 	tst	w4, #0x1
100004b80: 00 10 83 9a 	csel	x0, x0, x3, ne
100004b84: 21 10 85 9a 	csel	x1, x1, x5, ne
100004b88: 3f 02 0e eb 	cmp	x17, x14
100004b8c: 81 fc ff 54 	b.ne	0x100004b1c <__ZN4core5slice4sort7recurse17h6e2b0cc0dbbe267eE+0x5e8>
100004b90: 41 02 00 b4 	cbz	x1, 0x100004bd8 <__ZN4core5slice4sort7recurse17h6e2b0cc0dbbe267eE+0x6a4>
100004b94: 03 00 80 d2 	mov	x3, #0
100004b98: ee c3 00 91 	add	x14, sp, #48
100004b9c: f1 03 0f aa 	mov	x17, x15
100004ba0: e4 03 0e aa 	mov	x4, x14
100004ba4: 83 14 00 38 	strb	w3, [x4], #1
100004ba8: 65 04 00 91 	add	x5, x3, #1
100004bac: 23 0a 40 f9 	ldr	x3, [x17, #16]
100004bb0: 7f 00 0a eb 	cmp	x3, x10
100004bb4: ce 31 84 9a 	csel	x14, x14, x4, lo
100004bb8: 31 62 00 91 	add	x17, x17, #24
100004bbc: e3 03 05 aa 	mov	x3, x5
100004bc0: 3f 00 05 eb 	cmp	x1, x5
100004bc4: e1 fe ff 54 	b.ne	0x100004ba0 <__ZN4core5slice4sort7recurse17h6e2b0cc0dbbe267eE+0x66c>
100004bc8: f1 c3 00 91 	add	x17, sp, #48
100004bcc: 1f 02 0d eb 	cmp	x16, x13
100004bd0: a1 fa ff 54 	b.ne	0x100004b24 <__ZN4core5slice4sort7recurse17h6e2b0cc0dbbe267eE+0x5f0>
100004bd4: 05 00 00 14 	b	0x100004be8 <__ZN4core5slice4sort7recurse17h6e2b0cc0dbbe267eE+0x6b4>
100004bd8: ee c3 00 91 	add	x14, sp, #48
100004bdc: f1 c3 00 91 	add	x17, sp, #48
100004be0: 1f 02 0d eb 	cmp	x16, x13
100004be4: 01 fa ff 54 	b.ne	0x100004b24 <__ZN4core5slice4sort7recurse17h6e2b0cc0dbbe267eE+0x5f0>
100004be8: c0 01 00 b4 	cbz	x0, 0x100004c20 <__ZN4core5slice4sort7recurse17h6e2b0cc0dbbe267eE+0x6ec>
100004bec: 03 00 80 d2 	mov	x3, #0
100004bf0: 90 21 00 d1 	sub	x16, x12, #8
100004bf4: ed c3 02 91 	add	x13, sp, #176
100004bf8: e4 03 0d aa 	mov	x4, x13
100004bfc: 83 14 00 38 	strb	w3, [x4], #1
100004c00: 65 04 00 91 	add	x5, x3, #1
100004c04: 03 86 5e f8 	ldr	x3, [x16], #-24
100004c08: 7f 00 0a eb 	cmp	x3, x10
100004c0c: ad 21 84 9a 	csel	x13, x13, x4, hs
100004c10: e3 03 05 aa 	mov	x3, x5
100004c14: 1f 00 05 eb 	cmp	x0, x5
100004c18: 01 ff ff 54 	b.ne	0x100004bf8 <__ZN4core5slice4sort7recurse17h6e2b0cc0dbbe267eE+0x6c4>
100004c1c: 02 00 00 14 	b	0x100004c24 <__ZN4core5slice4sort7recurse17h6e2b0cc0dbbe267eE+0x6f0>
100004c20: ed c3 02 91 	add	x13, sp, #176
100004c24: f0 c3 02 91 	add	x16, sp, #176
100004c28: c3 01 11 cb 	sub	x3, x14, x17
100004c2c: a4 01 10 cb 	sub	x4, x13, x16
100004c30: 7f 00 04 eb 	cmp	x3, x4
100004c34: 63 30 84 9a 	csel	x3, x3, x4, lo
100004c38: 63 f5 ff b4 	cbz	x3, 0x100004ae4 <__ZN4core5slice4sort7recurse17h6e2b0cc0dbbe267eE+0x5b0>
100004c3c: 24 02 40 39 	ldrb	w4, [x17]
100004c40: 84 3c 1c 9b 	madd	x4, x4, x28, x15
100004c44: 80 00 c0 3d 	ldr	q0, [x4]
100004c48: 84 08 40 f9 	ldr	x4, [x4, #16]
100004c4c: a4 03 1a f8 	stur	x4, [x29, #-96]
100004c50: a0 03 99 3c 	stur	q0, [x29, #-112]
100004c54: 05 02 40 39 	ldrb	w5, [x16]
100004c58: e4 03 25 aa 	mvn	x4, x5
100004c5c: 86 30 1c 9b 	madd	x6, x4, x28, x12
100004c60: 27 02 40 39 	ldrb	w7, [x17]
100004c64: e7 3c 1c 9b 	madd	x7, x7, x28, x15
100004c68: d4 08 40 f9 	ldr	x20, [x6, #16]
100004c6c: c0 00 c0 3d 	ldr	q0, [x6]
100004c70: e0 00 80 3d 	str	q0, [x7]
100004c74: f4 08 00 f9 	str	x20, [x7, #16]
100004c78: 63 04 00 f1 	subs	x3, x3, #1
100004c7c: 60 f2 ff 54 	b.eq	0x100004ac8 <__ZN4core5slice4sort7recurse17h6e2b0cc0dbbe267eE+0x594>
100004c80: 24 1e 40 38 	ldrb	w4, [x17, #1]!
100004c84: 86 3c 1c 9b 	madd	x6, x4, x28, x15
100004c88: e4 03 25 2a 	mvn	w4, w5
100004c8c: 84 dc 78 b2 	orr	x4, x4, #0xffffffffffffff00
100004c90: 84 30 1c 9b 	madd	x4, x4, x28, x12
100004c94: c5 08 40 f9 	ldr	x5, [x6, #16]
100004c98: c0 00 c0 3d 	ldr	q0, [x6]
100004c9c: 80 00 80 3d 	str	q0, [x4]
100004ca0: 85 08 00 f9 	str	x5, [x4, #16]
100004ca4: 05 1e 40 38 	ldrb	w5, [x16, #1]!
100004ca8: e4 03 25 aa 	mvn	x4, x5
100004cac: 87 30 1c 9b 	madd	x7, x4, x28, x12
100004cb0: f4 08 40 f9 	ldr	x20, [x7, #16]
100004cb4: e0 00 c0 3d 	ldr	q0, [x7]
100004cb8: c0 00 80 3d 	str	q0, [x6]
100004cbc: d4 08 00 f9 	str	x20, [x6, #16]
100004cc0: 63 04 00 f1 	subs	x3, x3, #1
100004cc4: e1 fd ff 54 	b.ne	0x100004c80 <__ZN4core5slice4sort7recurse17h6e2b0cc0dbbe267eE+0x74c>
100004cc8: 80 ff ff 17 	b	0x100004ac8 <__ZN4core5slice4sort7recurse17h6e2b0cc0dbbe267eE+0x594>
100004ccc: 3f 02 0e eb 	cmp	x17, x14
100004cd0: e2 07 00 54 	b.hs	0x100004dcc <__ZN4core5slice4sort7recurse17h6e2b0cc0dbbe267eE+0x898>
100004cd4: ca fd 5f 38 	ldrb	w10, [x14, #-1]!
100004cd8: 4d 3d 1c 9b 	madd	x13, x10, x28, x15
100004cdc: 8a 61 00 d1 	sub	x10, x12, #24
100004ce0: a0 01 c0 3d 	ldr	q0, [x13]
100004ce4: b0 09 40 f9 	ldr	x16, [x13, #16]
100004ce8: b0 03 1a f8 	stur	x16, [x29, #-96]
100004cec: a0 03 99 3c 	stur	q0, [x29, #-112]
100004cf0: 80 81 de 3c 	ldur	q0, [x12, #-24]
100004cf4: 90 81 5f f8 	ldur	x16, [x12, #-8]
100004cf8: b0 09 00 f9 	str	x16, [x13, #16]
100004cfc: a0 01 80 3d 	str	q0, [x13]
100004d00: a0 03 d9 3c 	ldur	q0, [x29, #-112]
100004d04: ad 03 5a f8 	ldur	x13, [x29, #-96]
100004d08: 8d 81 1f f8 	stur	x13, [x12, #-8]
100004d0c: 80 81 9e 3c 	stur	q0, [x12, #-24]
100004d10: ec 03 0a aa 	mov	x12, x10
100004d14: 3f 02 0e eb 	cmp	x17, x14
100004d18: e3 fd ff 54 	b.lo	0x100004cd4 <__ZN4core5slice4sort7recurse17h6e2b0cc0dbbe267eE+0x7a0>
100004d1c: 4a 01 0b cb 	sub	x10, x10, x11
100004d20: eb f3 01 b2 	mov	x11, #-6148914691236517206
100004d24: 6b 55 95 f2 	movk	x11, #43691
100004d28: 4a 7d cb 9b 	umulh	x10, x10, x11
100004d2c: e0 07 c0 3d 	ldr	q0, [sp, #16]
100004d30: eb 13 40 f9 	ldr	x11, [sp, #32]
100004d34: 1a 11 4a 8b 	add	x26, x8, x10, lsr #4
100004d38: 6b 0a 00 f9 	str	x11, [x19, #16]
100004d3c: 60 02 80 3d 	str	q0, [x19]
100004d40: ca 03 1a eb 	subs	x10, x30, x26
100004d44: 09 0b 00 54 	b.ls	0x100004ea4 <__ZN4core5slice4sort7recurse17h6e2b0cc0dbbe267eE+0x970>
100004d48: 3f 01 08 eb 	cmp	x9, x8
100004d4c: f4 87 9f 1a 	cset	w20, ls
100004d50: 58 4f 1c 9b 	madd	x24, x26, x28, x19
100004d54: 60 02 c0 3d 	ldr	q0, [x19]
100004d58: 68 0a 40 f9 	ldr	x8, [x19, #16]
100004d5c: e8 63 00 f9 	str	x8, [sp, #192]
100004d60: e0 2f 80 3d 	str	q0, [sp, #176]
100004d64: 00 03 c0 3d 	ldr	q0, [x24]
100004d68: 08 0b 40 f9 	ldr	x8, [x24, #16]
100004d6c: 68 0a 00 f9 	str	x8, [x19, #16]
100004d70: 60 02 80 3d 	str	q0, [x19]
100004d74: e0 2f c0 3d 	ldr	q0, [sp, #176]
100004d78: e8 63 40 f9 	ldr	x8, [sp, #192]
100004d7c: 08 0b 00 f9 	str	x8, [x24, #16]
100004d80: 00 03 80 3d 	str	q0, [x24]
100004d84: 5f 03 0a eb 	cmp	x26, x10
100004d88: 48 33 8a 9a 	csel	x8, x26, x10, lo
100004d8c: 1f 0d 5e eb 	cmp	x8, x30, lsr #3
100004d90: fb 37 9f 1a 	cset	w27, hs
100004d94: 17 63 00 91 	add	x23, x24, #24
100004d98: 59 05 00 d1 	sub	x25, x10, #1
100004d9c: 5f 03 19 eb 	cmp	x26, x25
100004da0: 02 04 00 54 	b.hs	0x100004e20 <__ZN4core5slice4sort7recurse17h6e2b0cc0dbbe267eE+0x8ec>
100004da4: e0 03 13 aa 	mov	x0, x19
100004da8: e1 03 1a aa 	mov	x1, x26
100004dac: e2 07 40 f9 	ldr	x2, [sp, #8]
100004db0: e3 03 16 aa 	mov	x3, x22
100004db4: e4 03 15 aa 	mov	x4, x21
100004db8: df fd ff 97 	bl	0x100004534 <__ZN4core5slice4sort7recurse17h6e2b0cc0dbbe267eE>
100004dbc: f6 03 18 aa 	mov	x22, x24
100004dc0: fa 03 19 aa 	mov	x26, x25
100004dc4: f3 03 17 aa 	mov	x19, x23
100004dc8: 1c 00 00 14 	b	0x100004e38 <__ZN4core5slice4sort7recurse17h6e2b0cc0dbbe267eE+0x904>
100004dcc: ea 03 0f aa 	mov	x10, x15
100004dd0: 1f 02 0d eb 	cmp	x16, x13
100004dd4: 42 fa ff 54 	b.hs	0x100004d1c <__ZN4core5slice4sort7recurse17h6e2b0cc0dbbe267eE+0x7e8>
100004dd8: ae fd 5f 38 	ldrb	w14, [x13, #-1]!
100004ddc: ee 03 2e aa 	mvn	x14, x14
100004de0: ce 31 1c 9b 	madd	x14, x14, x28, x12
100004de4: 40 01 c0 3d 	ldr	q0, [x10]
100004de8: 4f 09 40 f9 	ldr	x15, [x10, #16]
100004dec: af 03 1a f8 	stur	x15, [x29, #-96]
100004df0: a0 03 99 3c 	stur	q0, [x29, #-112]
100004df4: c0 01 c0 3d 	ldr	q0, [x14]
100004df8: cf 09 40 f9 	ldr	x15, [x14, #16]
100004dfc: 4f 09 00 f9 	str	x15, [x10, #16]
100004e00: 40 85 81 3c 	str	q0, [x10], #24
100004e04: a0 03 d9 3c 	ldur	q0, [x29, #-112]
100004e08: af 03 5a f8 	ldur	x15, [x29, #-96]
100004e0c: cf 09 00 f9 	str	x15, [x14, #16]
100004e10: c0 01 80 3d 	str	q0, [x14]
100004e14: 1f 02 0d eb 	cmp	x16, x13
100004e18: 03 fe ff 54 	b.lo	0x100004dd8 <__ZN4core5slice4sort7recurse17h6e2b0cc0dbbe267eE+0x8a4>
100004e1c: c0 ff ff 17 	b	0x100004d1c <__ZN4core5slice4sort7recurse17h6e2b0cc0dbbe267eE+0x7e8>
100004e20: e0 03 17 aa 	mov	x0, x23
100004e24: e1 03 19 aa 	mov	x1, x25
100004e28: e2 07 40 f9 	ldr	x2, [sp, #8]
100004e2c: e3 03 18 aa 	mov	x3, x24
100004e30: e4 03 15 aa 	mov	x4, x21
100004e34: c0 fd ff 97 	bl	0x100004534 <__ZN4core5slice4sort7recurse17h6e2b0cc0dbbe267eE>
100004e38: fe 03 1a aa 	mov	x30, x26
100004e3c: f8 03 13 aa 	mov	x24, x19
100004e40: 5f 57 00 f1 	cmp	x26, #21
100004e44: 21 00 80 52 	mov	w1, #1
100004e48: e2 f3 7d b2 	orr	x2, xzr, #0xfffffffffffffff8
100004e4c: e2 bf ff 54 	b.hs	0x100004648 <__ZN4core5slice4sort7recurse17h6e2b0cc0dbbe267eE+0x114>
100004e50: c8 fd ff 17 	b	0x100004570 <__ZN4core5slice4sort7recurse17h6e2b0cc0dbbe267eE+0x3c>
100004e54: e0 03 18 aa 	mov	x0, x24
100004e58: e1 03 19 aa 	mov	x1, x25
100004e5c: e2 07 40 f9 	ldr	x2, [sp, #8]
100004e60: 19 ad 00 94 	bl	0x1000302c4 <__ZN4core5slice4sort8heapsort17h26e08cc33d347ffdE>
100004e64: fd 7b 5a a9 	ldp	x29, x30, [sp, #416]
100004e68: f4 4f 59 a9 	ldp	x20, x19, [sp, #400]
100004e6c: f6 57 58 a9 	ldp	x22, x21, [sp, #384]
100004e70: f8 5f 57 a9 	ldp	x24, x23, [sp, #368]
100004e74: fa 67 56 a9 	ldp	x26, x25, [sp, #352]
100004e78: fc 6f 55 a9 	ldp	x28, x27, [sp, #336]
100004e7c: ff c3 06 91 	add	sp, sp, #432
100004e80: c0 03 5f d6 	ret
100004e84: a2 b2 1d 10 	adr	x2, #243284
100004e88: 1f 20 03 d5 	nop
100004e8c: e0 03 1a aa 	mov	x0, x26
100004e90: e1 03 19 aa 	mov	x1, x25
100004e94: 3b b3 00 94 	bl	0x100031b80 <__ZN4core9panicking18panic_bounds_check17hcd475361ec7b2e52E>
100004e98: c2 b5 1d 10 	adr	x2, #243384
100004e9c: 1f 20 03 d5 	nop
100004ea0: 03 00 00 14 	b	0x100004eac <__ZN4core5slice4sort7recurse17h6e2b0cc0dbbe267eE+0x978>
100004ea4: e2 b6 1d 10 	adr	x2, #243420
100004ea8: 1f 20 03 d5 	nop
100004eac: e0 03 1a aa 	mov	x0, x26
100004eb0: e1 03 1e aa 	mov	x1, x30
100004eb4: 33 b3 00 94 	bl	0x100031b80 <__ZN4core9panicking18panic_bounds_check17hcd475361ec7b2e52E>
100004eb8: c2 b1 1d 10 	adr	x2, #243256
100004ebc: 1f 20 03 d5 	nop
100004ec0: e1 03 19 aa 	mov	x1, x25
100004ec4: ae b3 00 94 	bl	0x100031d7c <__ZN4core5slice5index26slice_start_index_len_fail17hb8c5285ad20513d9E>
100004ec8: 02 b5 1d 10 	adr	x2, #243360
100004ecc: 1f 20 03 d5 	nop
100004ed0: e0 03 09 aa 	mov	x0, x9
100004ed4: ad b3 00 94 	bl	0x100031d88 <__ZN4core5slice5index24slice_end_index_len_fail17h315aac587d80b977E>
100004ed8: 06 00 00 14 	b	0x100004ef0 <__ZN4core5slice4sort7recurse17h6e2b0cc0dbbe267eE+0x9bc>
100004edc: 62 b4 1d 10 	adr	x2, #243340
100004ee0: 1f 20 03 d5 	nop
100004ee4: e0 03 08 aa 	mov	x0, x8
100004ee8: e1 03 09 aa 	mov	x1, x9
100004eec: aa b3 00 94 	bl	0x100031d94 <__ZN4core5slice5index22slice_index_order_fail17hce7f499093346c93E>
100004ef0: 20 00 20 d4 	brk	#0x1
100004ef4: f4 03 00 aa 	mov	x20, x0
100004ef8: e0 43 00 91 	add	x0, sp, #16
100004efc: e1 03 13 aa 	mov	x1, x19
100004f00: 95 fc ff 97 	bl	0x100004154 <__ZN4core3ptr88drop_in_place$LT$core..slice..sort..CopyOnDrop$LT$$LP$$RF$$u5b$u8$u5d$$C$u64$RP$$GT$$GT$17hcabf5c41c128e5e8E>
100004f04: e0 03 14 aa 	mov	x0, x20
100004f08: d2 b3 00 94 	bl	0x100031e50 <_writev+0x100031e50>

0000000100004f0c <__ZN4core5slice4sort7recurse17hdfad3a1d43d52268E>:
100004f0c: ff 43 07 d1 	sub	sp, sp, #464
100004f10: fc 6f 17 a9 	stp	x28, x27, [sp, #368]
100004f14: fa 67 18 a9 	stp	x26, x25, [sp, #384]
100004f18: f8 5f 19 a9 	stp	x24, x23, [sp, #400]
100004f1c: f6 57 1a a9 	stp	x22, x21, [sp, #416]
100004f20: f4 4f 1b a9 	stp	x20, x19, [sp, #432]
100004f24: fd 7b 1c a9 	stp	x29, x30, [sp, #448]
100004f28: fd 03 07 91 	add	x29, sp, #448
100004f2c: e2 07 00 f9 	str	x2, [sp, #8]
100004f30: f7 03 01 aa 	mov	x23, x1
100004f34: f3 03 00 aa 	mov	x19, x0
100004f38: 3f 54 00 f1 	cmp	x1, #21
100004f3c: e2 06 00 54 	b.hs	0x100005018 <__ZN4core5slice4sort7recurse17hdfad3a1d43d52268E+0x10c>
100004f40: fa 03 17 aa 	mov	x26, x23
100004f44: f8 03 13 aa 	mov	x24, x19
100004f48: 5f 0b 00 f1 	cmp	x26, #2
100004f4c: 63 49 00 54 	b.lo	0x100005878 <__ZN4core5slice4sort7recurse17hdfad3a1d43d52268E+0x96c>
100004f50: 08 00 80 d2 	mov	x8, #0
100004f54: 29 00 80 52 	mov	w9, #1
100004f58: 0a 05 80 52 	mov	w10, #40
100004f5c: eb 03 18 aa 	mov	x11, x24
100004f60: 0c 00 00 14 	b	0x100004f90 <__ZN4core5slice4sort7recurse17hdfad3a1d43d52268E+0x84>
100004f64: ed 03 18 aa 	mov	x13, x24
100004f68: e0 33 c0 3d 	ldr	q0, [sp, #192]
100004f6c: a0 01 80 3d 	str	q0, [x13]
100004f70: ac 09 00 f9 	str	x12, [x13, #16]
100004f74: e0 13 c0 3d 	ldr	q0, [sp, #64]
100004f78: a0 81 81 3c 	stur	q0, [x13, #24]
100004f7c: 29 05 00 91 	add	x9, x9, #1
100004f80: 6b a1 00 91 	add	x11, x11, #40
100004f84: 08 05 00 d1 	sub	x8, x8, #1
100004f88: 3f 01 1a eb 	cmp	x9, x26
100004f8c: 60 47 00 54 	b.eq	0x100005878 <__ZN4core5slice4sort7recurse17hdfad3a1d43d52268E+0x96c>
100004f90: 2e 61 0a 9b 	madd	x14, x9, x10, x24
100004f94: cc 09 40 f9 	ldr	x12, [x14, #16]
100004f98: cd 81 5e f8 	ldur	x13, [x14, #-24]
100004f9c: 9f 01 0d eb 	cmp	x12, x13
100004fa0: e2 fe ff 54 	b.hs	0x100004f7c <__ZN4core5slice4sort7recurse17hdfad3a1d43d52268E+0x70>
100004fa4: cd a1 00 d1 	sub	x13, x14, #40
100004fa8: c0 01 c0 3d 	ldr	q0, [x14]
100004fac: e0 33 80 3d 	str	q0, [sp, #192]
100004fb0: c0 81 c1 3c 	ldur	q0, [x14, #24]
100004fb4: e0 13 80 3d 	str	q0, [sp, #64]
100004fb8: af 11 40 f9 	ldr	x15, [x13, #32]
100004fbc: cf 11 00 f9 	str	x15, [x14, #32]
100004fc0: a1 01 40 ad 	ldp	q1, q0, [x13]
100004fc4: c1 01 00 ad 	stp	q1, q0, [x14]
100004fc8: 2f 05 00 d1 	sub	x15, x9, #1
100004fcc: ef fc ff b4 	cbz	x15, 0x100004f68 <__ZN4core5slice4sort7recurse17hdfad3a1d43d52268E+0x5c>
100004fd0: d0 01 5c f8 	ldur	x16, [x14, #-64]
100004fd4: ee 03 08 aa 	mov	x14, x8
100004fd8: ef 03 0b aa 	mov	x15, x11
100004fdc: 9f 01 10 eb 	cmp	x12, x16
100004fe0: 42 fc ff 54 	b.hs	0x100004f68 <__ZN4core5slice4sort7recurse17hdfad3a1d43d52268E+0x5c>
100004fe4: e0 81 dd 3c 	ldur	q0, [x15, #-40]
100004fe8: e1 81 de 3c 	ldur	q1, [x15, #-24]
100004fec: e0 05 00 ad 	stp	q0, q1, [x15]
100004ff0: ed 81 5f f8 	ldur	x13, [x15, #-8]
100004ff4: ed 11 00 f9 	str	x13, [x15, #32]
100004ff8: ce 05 00 b1 	adds	x14, x14, #1
100004ffc: 42 fb ff 54 	b.hs	0x100004f64 <__ZN4core5slice4sort7recurse17hdfad3a1d43d52268E+0x58>
100005000: ed a1 00 d1 	sub	x13, x15, #40
100005004: f0 01 5c f8 	ldur	x16, [x15, #-64]
100005008: ef 03 0d aa 	mov	x15, x13
10000500c: 9f 01 10 eb 	cmp	x12, x16
100005010: a3 fe ff 54 	b.lo	0x100004fe4 <__ZN4core5slice4sort7recurse17hdfad3a1d43d52268E+0xd8>
100005014: d5 ff ff 17 	b	0x100004f68 <__ZN4core5slice4sort7recurse17hdfad3a1d43d52268E+0x5c>
100005018: f5 03 04 aa 	mov	x21, x4
10000501c: f6 03 03 aa 	mov	x22, x3
100005020: 21 00 80 52 	mov	w1, #1
100005024: 1c 05 80 52 	mov	w28, #40
100005028: 3b 00 80 52 	mov	w27, #1
10000502c: 34 00 80 52 	mov	w20, #1
100005030: 74 03 14 0a 	and	w20, w27, w20
100005034: f8 03 13 aa 	mov	x24, x19
100005038: f9 03 17 aa 	mov	x25, x23
10000503c: 75 41 00 34 	cbz	w21, 0x100005868 <__ZN4core5slice4sort7recurse17hdfad3a1d43d52268E+0x95c>
100005040: 1b 08 00 36 	tbz	w27, #0, 0x100005140 <__ZN4core5slice4sort7recurse17hdfad3a1d43d52268E+0x234>
100005044: 29 ff 42 d3 	lsr	x9, x25, #2
100005048: 2a f9 7f d3 	lsl	x10, x9, #1
10000504c: 48 01 09 8b 	add	x8, x10, x9
100005050: 3f c7 00 f1 	cmp	x25, #49
100005054: a9 08 00 54 	b.ls	0x100005168 <__ZN4core5slice4sort7recurse17hdfad3a1d43d52268E+0x25c>
100005058: 2b 05 00 d1 	sub	x11, x9, #1
10000505c: 2c 05 00 91 	add	x12, x9, #1
100005060: 2d 61 1c 9b 	madd	x13, x9, x28, x24
100005064: ae 09 40 f9 	ldr	x14, [x13, #16]
100005068: af 81 5e f8 	ldur	x15, [x13, #-24]
10000506c: df 01 0f eb 	cmp	x14, x15
100005070: f0 21 8e 9a 	csel	x16, x15, x14, hs
100005074: f1 23 81 9a 	csel	x17, xzr, x1, hs
100005078: 20 21 8b 9a 	csel	x0, x9, x11, hs
10000507c: 69 21 89 9a 	csel	x9, x11, x9, hs
100005080: cb 21 8f 9a 	csel	x11, x14, x15, hs
100005084: ad 1d 40 f9 	ldr	x13, [x13, #56]
100005088: bf 01 0b eb 	cmp	x13, x11
10000508c: 8c 31 80 9a 	csel	x12, x12, x0, lo
100005090: 2e 26 91 9a 	cinc	x14, x17, lo
100005094: ab 31 8b 9a 	csel	x11, x13, x11, lo
100005098: 7f 01 10 eb 	cmp	x11, x16
10000509c: 29 31 8c 9a 	csel	x9, x9, x12, lo
1000050a0: cb 25 8e 9a 	cinc	x11, x14, lo
1000050a4: 4c 05 00 d1 	sub	x12, x10, #1
1000050a8: 4d 01 40 b2 	orr	x13, x10, #0x1
1000050ac: 4e 61 1c 9b 	madd	x14, x10, x28, x24
1000050b0: cf 09 40 f9 	ldr	x15, [x14, #16]
1000050b4: d0 81 5e f8 	ldur	x16, [x14, #-24]
1000050b8: ff 01 10 eb 	cmp	x15, x16
1000050bc: 11 22 8f 9a 	csel	x17, x16, x15, hs
1000050c0: 6b 25 8b 9a 	cinc	x11, x11, lo
1000050c4: 40 21 8c 9a 	csel	x0, x10, x12, hs
1000050c8: 8a 21 8a 9a 	csel	x10, x12, x10, hs
1000050cc: ec 21 90 9a 	csel	x12, x15, x16, hs
1000050d0: ce 1d 40 f9 	ldr	x14, [x14, #56]
1000050d4: df 01 0c eb 	cmp	x14, x12
1000050d8: ad 31 80 9a 	csel	x13, x13, x0, lo
1000050dc: 6b 25 8b 9a 	cinc	x11, x11, lo
1000050e0: cc 31 8c 9a 	csel	x12, x14, x12, lo
1000050e4: 9f 01 11 eb 	cmp	x12, x17
1000050e8: 4a 31 8d 9a 	csel	x10, x10, x13, lo
1000050ec: 6b 25 8b 9a 	cinc	x11, x11, lo
1000050f0: 0c 05 00 d1 	sub	x12, x8, #1
1000050f4: 0d 05 00 91 	add	x13, x8, #1
1000050f8: 0e 61 1c 9b 	madd	x14, x8, x28, x24
1000050fc: cf 09 40 f9 	ldr	x15, [x14, #16]
100005100: d0 81 5e f8 	ldur	x16, [x14, #-24]
100005104: ff 01 10 eb 	cmp	x15, x16
100005108: 11 22 8f 9a 	csel	x17, x16, x15, hs
10000510c: 6b 25 8b 9a 	cinc	x11, x11, lo
100005110: 00 21 8c 9a 	csel	x0, x8, x12, hs
100005114: 88 21 88 9a 	csel	x8, x12, x8, hs
100005118: ec 21 90 9a 	csel	x12, x15, x16, hs
10000511c: ce 1d 40 f9 	ldr	x14, [x14, #56]
100005120: df 01 0c eb 	cmp	x14, x12
100005124: ad 31 80 9a 	csel	x13, x13, x0, lo
100005128: 6b 25 8b 9a 	cinc	x11, x11, lo
10000512c: cc 31 8c 9a 	csel	x12, x14, x12, lo
100005130: 9f 01 11 eb 	cmp	x12, x17
100005134: 08 31 8d 9a 	csel	x8, x8, x13, lo
100005138: 6b 25 8b 9a 	cinc	x11, x11, lo
10000513c: 0c 00 00 14 	b	0x10000516c <__ZN4core5slice4sort7recurse17hdfad3a1d43d52268E+0x260>
100005140: e0 03 18 aa 	mov	x0, x24
100005144: e1 03 19 aa 	mov	x1, x25
100005148: bb a9 00 94 	bl	0x10002f834 <__ZN4core5slice4sort14break_patterns17hfdf5596bc3d569cdE>
10000514c: 21 00 80 52 	mov	w1, #1
100005150: b5 06 00 51 	sub	w21, w21, #1
100005154: 29 ff 42 d3 	lsr	x9, x25, #2
100005158: 2a f9 7f d3 	lsl	x10, x9, #1
10000515c: 48 01 09 8b 	add	x8, x10, x9
100005160: 3f c7 00 f1 	cmp	x25, #49
100005164: a8 f7 ff 54 	b.hi	0x100005058 <__ZN4core5slice4sort7recurse17hdfad3a1d43d52268E+0x14c>
100005168: 0b 00 80 d2 	mov	x11, #0
10000516c: 4c 61 1c 9b 	madd	x12, x10, x28, x24
100005170: 8c 09 40 f9 	ldr	x12, [x12, #16]
100005174: 2d 61 1c 9b 	madd	x13, x9, x28, x24
100005178: ad 09 40 f9 	ldr	x13, [x13, #16]
10000517c: 9f 01 0d eb 	cmp	x12, x13
100005180: ae 21 8c 9a 	csel	x14, x13, x12, hs
100005184: 6b 25 8b 9a 	cinc	x11, x11, lo
100005188: 4f 21 89 9a 	csel	x15, x10, x9, hs
10000518c: 3a 21 8a 9a 	csel	x26, x9, x10, hs
100005190: 8a 21 8d 9a 	csel	x10, x12, x13, hs
100005194: 09 61 1c 9b 	madd	x9, x8, x28, x24
100005198: 2c 09 40 f9 	ldr	x12, [x9, #16]
10000519c: 9f 01 0a eb 	cmp	x12, x10
1000051a0: 09 31 8f 9a 	csel	x9, x8, x15, lo
1000051a4: 68 25 8b 9a 	cinc	x8, x11, lo
1000051a8: 8a 31 8a 9a 	csel	x10, x12, x10, lo
1000051ac: 5f 01 0e eb 	cmp	x10, x14
1000051b0: 22 01 00 54 	b.hs	0x1000051d4 <__ZN4core5slice4sort7recurse17hdfad3a1d43d52268E+0x2c8>
1000051b4: 1f 2d 00 f1 	cmp	x8, #11
1000051b8: a2 01 00 54 	b.hs	0x1000051ec <__ZN4core5slice4sort7recurse17hdfad3a1d43d52268E+0x2e0>
1000051bc: 08 05 00 91 	add	x8, x8, #1
1000051c0: 1f 01 00 f1 	cmp	x8, #0
1000051c4: e8 17 9f 1a 	cset	w8, eq
1000051c8: 88 02 08 0a 	and	w8, w20, w8
1000051cc: 28 04 00 36 	tbz	w8, #0, 0x100005250 <__ZN4core5slice4sort7recurse17hdfad3a1d43d52268E+0x344>
1000051d0: 74 00 00 14 	b	0x1000053a0 <__ZN4core5slice4sort7recurse17hdfad3a1d43d52268E+0x494>
1000051d4: fa 03 09 aa 	mov	x26, x9
1000051d8: 1f 01 00 f1 	cmp	x8, #0
1000051dc: e8 17 9f 1a 	cset	w8, eq
1000051e0: 88 02 08 0a 	and	w8, w20, w8
1000051e4: 68 03 00 36 	tbz	w8, #0, 0x100005250 <__ZN4core5slice4sort7recurse17hdfad3a1d43d52268E+0x344>
1000051e8: 6e 00 00 14 	b	0x1000053a0 <__ZN4core5slice4sort7recurse17hdfad3a1d43d52268E+0x494>
1000051ec: 08 00 80 d2 	mov	x8, #0
1000051f0: 29 ff 41 d3 	lsr	x9, x25, #1
1000051f4: 2a 0b 19 8b 	add	x10, x25, x25, lsl #2
1000051f8: 4a f1 7d d3 	lsl	x10, x10, #3
1000051fc: 0b 03 0a 8b 	add	x11, x24, x10
100005200: 6c 81 5d f8 	ldur	x12, [x11, #-40]
100005204: 0d 03 08 8b 	add	x13, x24, x8
100005208: a0 05 40 ad 	ldp	q0, q1, [x13]
10000520c: 62 0d 7f ad 	ldp	q2, q3, [x11, #-32]
100005210: 60 81 9d 3c 	stur	q0, [x11, #-40]
100005214: ac 01 00 f9 	str	x12, [x13]
100005218: a2 81 80 3c 	stur	q2, [x13, #8]
10000521c: ac 11 40 f9 	ldr	x12, [x13, #32]
100005220: 61 81 9e 3c 	stur	q1, [x11, #-24]
100005224: a3 81 81 3c 	stur	q3, [x13, #24]
100005228: 6c 81 1f f8 	stur	x12, [x11, #-8]
10000522c: 08 a1 00 91 	add	x8, x8, #40
100005230: 4a a1 00 d1 	sub	x10, x10, #40
100005234: 29 05 00 d1 	sub	x9, x9, #1
100005238: 29 fe ff b5 	cbnz	x9, 0x1000051fc <__ZN4core5slice4sort7recurse17hdfad3a1d43d52268E+0x2f0>
10000523c: e8 03 3a aa 	mvn	x8, x26
100005240: 3a 03 08 8b 	add	x26, x25, x8
100005244: 28 00 80 52 	mov	w8, #1
100005248: 88 02 08 0a 	and	w8, w20, w8
10000524c: a8 0a 00 37 	tbnz	w8, #0, 0x1000053a0 <__ZN4core5slice4sort7recurse17hdfad3a1d43d52268E+0x494>
100005250: 96 0b 00 b4 	cbz	x22, 0x1000053c0 <__ZN4core5slice4sort7recurse17hdfad3a1d43d52268E+0x4b4>
100005254: 5f 03 19 eb 	cmp	x26, x25
100005258: 02 32 00 54 	b.hs	0x100005898 <__ZN4core5slice4sort7recurse17hdfad3a1d43d52268E+0x98c>
10000525c: 49 63 1c 9b 	madd	x9, x26, x28, x24
100005260: c8 0a 40 f9 	ldr	x8, [x22, #16]
100005264: 2a 09 40 f9 	ldr	x10, [x9, #16]
100005268: 1f 01 0a eb 	cmp	x8, x10
10000526c: 63 0a 00 54 	b.lo	0x1000053b8 <__ZN4core5slice4sort7recurse17hdfad3a1d43d52268E+0x4ac>
100005270: 08 00 80 d2 	mov	x8, #0
100005274: 00 07 40 ad 	ldp	q0, q1, [x24]
100005278: 0a 13 40 f9 	ldr	x10, [x24, #32]
10000527c: ea 73 00 f9 	str	x10, [sp, #224]
100005280: e0 07 06 ad 	stp	q0, q1, [sp, #192]
100005284: 2a 11 40 f9 	ldr	x10, [x9, #32]
100005288: 20 05 40 ad 	ldp	q0, q1, [x9]
10000528c: 0a 13 00 f9 	str	x10, [x24, #32]
100005290: 00 07 00 ad 	stp	q0, q1, [x24]
100005294: e0 07 46 ad 	ldp	q0, q1, [sp, #192]
100005298: ea 73 40 f9 	ldr	x10, [sp, #224]
10000529c: 2a 11 00 f9 	str	x10, [x9, #32]
1000052a0: 20 05 00 ad 	stp	q0, q1, [x9]
1000052a4: 0b a3 00 91 	add	x11, x24, #40
1000052a8: 09 0b 40 f9 	ldr	x9, [x24, #16]
1000052ac: 0a 63 00 91 	add	x10, x24, #24
1000052b0: 00 03 c0 3d 	ldr	q0, [x24]
1000052b4: e0 13 80 3d 	str	q0, [sp, #64]
1000052b8: 00 83 c1 3c 	ldur	q0, [x24, #24]
1000052bc: a0 03 98 3c 	stur	q0, [x29, #-128]
1000052c0: 0c e3 00 91 	add	x12, x24, #56
1000052c4: ed 03 19 aa 	mov	x13, x25
1000052c8: 2e 07 00 d1 	sub	x14, x25, #1
1000052cc: 1f 01 0e eb 	cmp	x8, x14
1000052d0: 42 01 00 54 	b.hs	0x1000052f8 <__ZN4core5slice4sort7recurse17hdfad3a1d43d52268E+0x3ec>
1000052d4: 0f 31 1c 9b 	madd	x15, x8, x28, x12
1000052d8: f0 01 40 f9 	ldr	x16, [x15]
1000052dc: 3f 01 10 eb 	cmp	x9, x16
1000052e0: c3 00 00 54 	b.lo	0x1000052f8 <__ZN4core5slice4sort7recurse17hdfad3a1d43d52268E+0x3ec>
1000052e4: 08 05 00 91 	add	x8, x8, #1
1000052e8: ef a1 00 91 	add	x15, x15, #40
1000052ec: df 01 08 eb 	cmp	x14, x8
1000052f0: 41 ff ff 54 	b.ne	0x1000052d8 <__ZN4core5slice4sort7recurse17hdfad3a1d43d52268E+0x3cc>
1000052f4: e8 03 0e aa 	mov	x8, x14
1000052f8: ae 7d 1c 9b 	mul	x14, x13, x28
1000052fc: ce 61 00 d1 	sub	x14, x14, #24
100005300: ad 05 00 d1 	sub	x13, x13, #1
100005304: 1f 01 0d eb 	cmp	x8, x13
100005308: 02 03 00 54 	b.hs	0x100005368 <__ZN4core5slice4sort7recurse17hdfad3a1d43d52268E+0x45c>
10000530c: 0f 6b 6e f8 	ldr	x15, [x24, x14]
100005310: ce a1 00 d1 	sub	x14, x14, #40
100005314: 3f 01 0f eb 	cmp	x9, x15
100005318: 43 ff ff 54 	b.lo	0x100005300 <__ZN4core5slice4sort7recurse17hdfad3a1d43d52268E+0x3f4>
10000531c: 0e 2d 1c 9b 	madd	x14, x8, x28, x11
100005320: c0 05 40 ad 	ldp	q0, q1, [x14]
100005324: cf 11 40 f9 	ldr	x15, [x14, #32]
100005328: ef 73 00 f9 	str	x15, [sp, #224]
10000532c: af 61 1c 9b 	madd	x15, x13, x28, x24
100005330: e0 07 06 ad 	stp	q0, q1, [sp, #192]
100005334: f0 11 40 f9 	ldr	x16, [x15, #32]
100005338: e0 05 40 ad 	ldp	q0, q1, [x15]
10000533c: d0 11 00 f9 	str	x16, [x14, #32]
100005340: c0 05 00 ad 	stp	q0, q1, [x14]
100005344: e0 07 46 ad 	ldp	q0, q1, [sp, #192]
100005348: ee 73 40 f9 	ldr	x14, [sp, #224]
10000534c: ee 11 00 f9 	str	x14, [x15, #32]
100005350: e0 05 00 ad 	stp	q0, q1, [x15]
100005354: 08 05 00 91 	add	x8, x8, #1
100005358: ae 05 00 d1 	sub	x14, x13, #1
10000535c: 1f 01 0e eb 	cmp	x8, x14
100005360: a3 fb ff 54 	b.lo	0x1000052d4 <__ZN4core5slice4sort7recurse17hdfad3a1d43d52268E+0x3c8>
100005364: e5 ff ff 17 	b	0x1000052f8 <__ZN4core5slice4sort7recurse17hdfad3a1d43d52268E+0x3ec>
100005368: 00 05 00 91 	add	x0, x8, #1
10000536c: e0 13 c0 3d 	ldr	q0, [sp, #64]
100005370: 00 03 80 3d 	str	q0, [x24]
100005374: 09 0b 00 f9 	str	x9, [x24, #16]
100005378: a0 03 d8 3c 	ldur	q0, [x29, #-128]
10000537c: 40 01 80 3d 	str	q0, [x10]
100005380: 3a 03 00 eb 	subs	x26, x25, x0
100005384: 43 2a 00 54 	b.lo	0x1000058cc <__ZN4core5slice4sort7recurse17hdfad3a1d43d52268E+0x9c0>
100005388: 08 61 1c 9b 	madd	x8, x8, x28, x24
10000538c: 18 a1 00 91 	add	x24, x8, #40
100005390: f9 03 1a aa 	mov	x25, x26
100005394: 5f 57 00 f1 	cmp	x26, #21
100005398: 22 e5 ff 54 	b.hs	0x10000503c <__ZN4core5slice4sort7recurse17hdfad3a1d43d52268E+0x130>
10000539c: eb fe ff 17 	b	0x100004f48 <__ZN4core5slice4sort7recurse17hdfad3a1d43d52268E+0x3c>
1000053a0: e0 03 18 aa 	mov	x0, x24
1000053a4: e1 03 19 aa 	mov	x1, x25
1000053a8: 8c a9 00 94 	bl	0x10002f9d8 <__ZN4core5slice4sort22partial_insertion_sort17h134fbc249fab85b5E>
1000053ac: 21 00 80 52 	mov	w1, #1
1000053b0: 00 f5 07 36 	tbz	w0, #0, 0x100005250 <__ZN4core5slice4sort7recurse17hdfad3a1d43d52268E+0x344>
1000053b4: 31 01 00 14 	b	0x100005878 <__ZN4core5slice4sort7recurse17hdfad3a1d43d52268E+0x96c>
1000053b8: f3 03 18 aa 	mov	x19, x24
1000053bc: f7 03 19 aa 	mov	x23, x25
1000053c0: 5f 03 17 eb 	cmp	x26, x23
1000053c4: 42 27 00 54 	b.hs	0x1000058ac <__ZN4core5slice4sort7recurse17hdfad3a1d43d52268E+0x9a0>
1000053c8: 48 4f 1c 9b 	madd	x8, x26, x28, x19
1000053cc: 60 06 40 ad 	ldp	q0, q1, [x19]
1000053d0: 69 12 40 f9 	ldr	x9, [x19, #32]
1000053d4: e9 73 00 f9 	str	x9, [sp, #224]
1000053d8: e0 07 06 ad 	stp	q0, q1, [sp, #192]
1000053dc: 09 11 40 f9 	ldr	x9, [x8, #32]
1000053e0: 00 05 40 ad 	ldp	q0, q1, [x8]
1000053e4: 69 12 00 f9 	str	x9, [x19, #32]
1000053e8: 60 06 00 ad 	stp	q0, q1, [x19]
1000053ec: e0 07 46 ad 	ldp	q0, q1, [sp, #192]
1000053f0: e9 73 40 f9 	ldr	x9, [sp, #224]
1000053f4: 09 11 00 f9 	str	x9, [x8, #32]
1000053f8: 00 05 00 ad 	stp	q0, q1, [x8]
1000053fc: 68 12 40 f9 	ldr	x8, [x19, #32]
100005400: 60 06 40 ad 	ldp	q0, q1, [x19]
100005404: e8 1b 00 f9 	str	x8, [sp, #48]
100005408: e0 87 00 ad 	stp	q0, q1, [sp, #16]
10000540c: eb 13 40 f9 	ldr	x11, [sp, #32]
100005410: 08 00 80 d2 	mov	x8, #0
100005414: e1 06 00 f1 	subs	x1, x23, #1
100005418: 80 01 00 54 	b.eq	0x100005448 <__ZN4core5slice4sort7recurse17hdfad3a1d43d52268E+0x53c>
10000541c: 69 e2 00 91 	add	x9, x19, #56
100005420: b8 99 99 52 	mov	w24, #52429
100005424: 2a 01 40 f9 	ldr	x10, [x9]
100005428: 5f 01 0b eb 	cmp	x10, x11
10000542c: 02 01 00 54 	b.hs	0x10000544c <__ZN4core5slice4sort7recurse17hdfad3a1d43d52268E+0x540>
100005430: 08 05 00 91 	add	x8, x8, #1
100005434: 29 a1 00 91 	add	x9, x9, #40
100005438: 3f 00 08 eb 	cmp	x1, x8
10000543c: 41 ff ff 54 	b.ne	0x100005424 <__ZN4core5slice4sort7recurse17hdfad3a1d43d52268E+0x518>
100005440: e8 03 01 aa 	mov	x8, x1
100005444: 02 00 00 14 	b	0x10000544c <__ZN4core5slice4sort7recurse17hdfad3a1d43d52268E+0x540>
100005448: b8 99 99 52 	mov	w24, #52429
10000544c: 6a a2 00 91 	add	x10, x19, #40
100005450: 1f 01 01 eb 	cmp	x8, x1
100005454: 0c 31 81 9a 	csel	x12, x8, x1, lo
100005458: e9 7e 1c 9b 	mul	x9, x23, x28
10000545c: 2d 61 00 d1 	sub	x13, x9, #24
100005460: e9 03 17 aa 	mov	x9, x23
100005464: 29 05 00 d1 	sub	x9, x9, #1
100005468: 3f 01 08 eb 	cmp	x9, x8
10000546c: c9 00 00 54 	b.ls	0x100005484 <__ZN4core5slice4sort7recurse17hdfad3a1d43d52268E+0x578>
100005470: 6e 6a 6d f8 	ldr	x14, [x19, x13]
100005474: ad a1 00 d1 	sub	x13, x13, #40
100005478: df 01 0b eb 	cmp	x14, x11
10000547c: 42 ff ff 54 	b.hs	0x100005464 <__ZN4core5slice4sort7recurse17hdfad3a1d43d52268E+0x558>
100005480: 02 00 00 14 	b	0x100005488 <__ZN4core5slice4sort7recurse17hdfad3a1d43d52268E+0x57c>
100005484: e9 03 0c aa 	mov	x9, x12
100005488: 2c 01 08 eb 	subs	x12, x9, x8
10000548c: 23 23 00 54 	b.lo	0x1000058f0 <__ZN4core5slice4sort7recurse17hdfad3a1d43d52268E+0x9e4>
100005490: 3f 01 01 eb 	cmp	x9, x1
100005494: 48 22 00 54 	b.hi	0x1000058dc <__ZN4core5slice4sort7recurse17hdfad3a1d43d52268E+0x9d0>
100005498: 0d 00 80 d2 	mov	x13, #0
10000549c: 10 00 80 d2 	mov	x16, #0
1000054a0: 0e 00 80 d2 	mov	x14, #0
1000054a4: 11 00 80 d2 	mov	x17, #0
1000054a8: 0a 29 1c 9b 	madd	x10, x8, x28, x10
1000054ac: 8c 29 1c 9b 	madd	x12, x12, x28, x10
1000054b0: 00 10 80 52 	mov	w0, #128
1000054b4: 01 10 80 52 	mov	w1, #128
1000054b8: ef 03 0a aa 	mov	x15, x10
1000054bc: 10 00 00 14 	b	0x1000054fc <__ZN4core5slice4sort7recurse17hdfad3a1d43d52268E+0x5f0>
1000054c0: 83 30 1c 9b 	madd	x3, x4, x28, x12
1000054c4: a0 07 7c ad 	ldp	q0, q1, [x29, #-128]
1000054c8: a4 03 5a f8 	ldur	x4, [x29, #-96]
1000054cc: 64 10 00 f9 	str	x4, [x3, #32]
1000054d0: 60 04 00 ad 	stp	q0, q1, [x3]
1000054d4: 31 06 00 91 	add	x17, x17, #1
1000054d8: 10 06 00 91 	add	x16, x16, #1
1000054dc: 3f 02 0e eb 	cmp	x17, x14
1000054e0: 23 00 9f 9a 	csel	x3, x1, xzr, eq
1000054e4: 6f 3c 1c 9b 	madd	x15, x3, x28, x15
1000054e8: 1f 02 0d eb 	cmp	x16, x13
1000054ec: e3 17 80 da 	csneg	x3, xzr, x0, ne
1000054f0: 6c 30 1c 9b 	madd	x12, x3, x28, x12
1000054f4: 5f 14 14 f1 	cmp	x2, #1285
1000054f8: 63 0e 00 54 	b.lo	0x1000056c4 <__ZN4core5slice4sort7recurse17hdfad3a1d43d52268E+0x7b8>
1000054fc: 83 01 0f cb 	sub	x3, x12, x15
100005500: 62 fc 43 d3 	lsr	x2, x3, #3
100005504: 5f 14 14 f1 	cmp	x2, #1285
100005508: 63 01 00 54 	b.lo	0x100005534 <__ZN4core5slice4sort7recurse17hdfad3a1d43d52268E+0x628>
10000550c: 3f 02 0e eb 	cmp	x17, x14
100005510: c0 03 00 54 	b.eq	0x100005588 <__ZN4core5slice4sort7recurse17hdfad3a1d43d52268E+0x67c>
100005514: 1f 02 0d eb 	cmp	x16, x13
100005518: 40 06 00 54 	b.eq	0x1000055e0 <__ZN4core5slice4sort7recurse17hdfad3a1d43d52268E+0x6d4>
10000551c: c3 01 11 cb 	sub	x3, x14, x17
100005520: a4 01 10 cb 	sub	x4, x13, x16
100005524: 7f 00 04 eb 	cmp	x3, x4
100005528: 63 30 84 9a 	csel	x3, x3, x4, lo
10000552c: 43 08 00 b5 	cbnz	x3, 0x100005634 <__ZN4core5slice4sort7recurse17hdfad3a1d43d52268E+0x728>
100005530: eb ff ff 17 	b	0x1000054dc <__ZN4core5slice4sort7recurse17hdfad3a1d43d52268E+0x5d0>
100005534: 63 3c 00 12 	and	w3, w3, #0xffff
100005538: 63 7c 18 1b 	mul	w3, w3, w24
10000553c: 63 7c 15 53 	lsr	w3, w3, #21
100005540: 3f 02 0e eb 	cmp	x17, x14
100005544: e4 27 9f 1a 	cset	w4, lo
100005548: 1f 02 0d eb 	cmp	x16, x13
10000554c: e5 27 9f 1a 	cset	w5, lo
100005550: 84 00 05 2a 	orr	w4, w4, w5
100005554: 65 00 02 d1 	sub	x5, x3, #128
100005558: 9f 00 00 71 	cmp	w4, #0
10000555c: a3 10 83 9a 	csel	x3, x5, x3, ne
100005560: 3f 02 0e eb 	cmp	x17, x14
100005564: 60 30 80 9a 	csel	x0, x3, x0, lo
100005568: 21 30 83 9a 	csel	x1, x1, x3, lo
10000556c: 65 fc 41 d3 	lsr	x5, x3, #1
100005570: 63 00 05 cb 	sub	x3, x3, x5
100005574: 9f 00 00 72 	tst	w4, #0x1
100005578: 00 10 83 9a 	csel	x0, x0, x3, ne
10000557c: 21 10 85 9a 	csel	x1, x1, x5, ne
100005580: 3f 02 0e eb 	cmp	x17, x14
100005584: 81 fc ff 54 	b.ne	0x100005514 <__ZN4core5slice4sort7recurse17hdfad3a1d43d52268E+0x608>
100005588: 41 02 00 b4 	cbz	x1, 0x1000055d0 <__ZN4core5slice4sort7recurse17hdfad3a1d43d52268E+0x6c4>
10000558c: 03 00 80 d2 	mov	x3, #0
100005590: ee 03 01 91 	add	x14, sp, #64
100005594: f1 03 0f aa 	mov	x17, x15
100005598: e4 03 0e aa 	mov	x4, x14
10000559c: 83 14 00 38 	strb	w3, [x4], #1
1000055a0: 65 04 00 91 	add	x5, x3, #1
1000055a4: 23 0a 40 f9 	ldr	x3, [x17, #16]
1000055a8: 7f 00 0b eb 	cmp	x3, x11
1000055ac: ce 31 84 9a 	csel	x14, x14, x4, lo
1000055b0: 31 a2 00 91 	add	x17, x17, #40
1000055b4: e3 03 05 aa 	mov	x3, x5
1000055b8: 3f 00 05 eb 	cmp	x1, x5
1000055bc: e1 fe ff 54 	b.ne	0x100005598 <__ZN4core5slice4sort7recurse17hdfad3a1d43d52268E+0x68c>
1000055c0: f1 03 01 91 	add	x17, sp, #64
1000055c4: 1f 02 0d eb 	cmp	x16, x13
1000055c8: a1 fa ff 54 	b.ne	0x10000551c <__ZN4core5slice4sort7recurse17hdfad3a1d43d52268E+0x610>
1000055cc: 05 00 00 14 	b	0x1000055e0 <__ZN4core5slice4sort7recurse17hdfad3a1d43d52268E+0x6d4>
1000055d0: ee 03 01 91 	add	x14, sp, #64
1000055d4: f1 03 01 91 	add	x17, sp, #64
1000055d8: 1f 02 0d eb 	cmp	x16, x13
1000055dc: 01 fa ff 54 	b.ne	0x10000551c <__ZN4core5slice4sort7recurse17hdfad3a1d43d52268E+0x610>
1000055e0: c0 01 00 b4 	cbz	x0, 0x100005618 <__ZN4core5slice4sort7recurse17hdfad3a1d43d52268E+0x70c>
1000055e4: 03 00 80 d2 	mov	x3, #0
1000055e8: 90 61 00 d1 	sub	x16, x12, #24
1000055ec: ed 03 03 91 	add	x13, sp, #192
1000055f0: e4 03 0d aa 	mov	x4, x13
1000055f4: 83 14 00 38 	strb	w3, [x4], #1
1000055f8: 65 04 00 91 	add	x5, x3, #1
1000055fc: 03 86 5d f8 	ldr	x3, [x16], #-40
100005600: 7f 00 0b eb 	cmp	x3, x11
100005604: ad 21 84 9a 	csel	x13, x13, x4, hs
100005608: e3 03 05 aa 	mov	x3, x5
10000560c: 1f 00 05 eb 	cmp	x0, x5
100005610: 01 ff ff 54 	b.ne	0x1000055f0 <__ZN4core5slice4sort7recurse17hdfad3a1d43d52268E+0x6e4>
100005614: 02 00 00 14 	b	0x10000561c <__ZN4core5slice4sort7recurse17hdfad3a1d43d52268E+0x710>
100005618: ed 03 03 91 	add	x13, sp, #192
10000561c: f0 03 03 91 	add	x16, sp, #192
100005620: c3 01 11 cb 	sub	x3, x14, x17
100005624: a4 01 10 cb 	sub	x4, x13, x16
100005628: 7f 00 04 eb 	cmp	x3, x4
10000562c: 63 30 84 9a 	csel	x3, x3, x4, lo
100005630: 63 f5 ff b4 	cbz	x3, 0x1000054dc <__ZN4core5slice4sort7recurse17hdfad3a1d43d52268E+0x5d0>
100005634: 24 02 40 39 	ldrb	w4, [x17]
100005638: 84 3c 1c 9b 	madd	x4, x4, x28, x15
10000563c: 80 04 40 ad 	ldp	q0, q1, [x4]
100005640: 84 10 40 f9 	ldr	x4, [x4, #32]
100005644: a4 03 1a f8 	stur	x4, [x29, #-96]
100005648: a0 07 3c ad 	stp	q0, q1, [x29, #-128]
10000564c: 05 02 40 39 	ldrb	w5, [x16]
100005650: e4 03 25 aa 	mvn	x4, x5
100005654: 86 30 1c 9b 	madd	x6, x4, x28, x12
100005658: 27 02 40 39 	ldrb	w7, [x17]
10000565c: e7 3c 1c 9b 	madd	x7, x7, x28, x15
100005660: d4 10 40 f9 	ldr	x20, [x6, #32]
100005664: c1 00 40 ad 	ldp	q1, q0, [x6]
100005668: e1 00 00 ad 	stp	q1, q0, [x7]
10000566c: f4 10 00 f9 	str	x20, [x7, #32]
100005670: 63 04 00 f1 	subs	x3, x3, #1
100005674: 60 f2 ff 54 	b.eq	0x1000054c0 <__ZN4core5slice4sort7recurse17hdfad3a1d43d52268E+0x5b4>
100005678: 24 1e 40 38 	ldrb	w4, [x17, #1]!
10000567c: 86 3c 1c 9b 	madd	x6, x4, x28, x15
100005680: e4 03 25 2a 	mvn	w4, w5
100005684: 84 dc 78 b2 	orr	x4, x4, #0xffffffffffffff00
100005688: 84 30 1c 9b 	madd	x4, x4, x28, x12
10000568c: c5 10 40 f9 	ldr	x5, [x6, #32]
100005690: c1 00 40 ad 	ldp	q1, q0, [x6]
100005694: 81 00 00 ad 	stp	q1, q0, [x4]
100005698: 85 10 00 f9 	str	x5, [x4, #32]
10000569c: 05 1e 40 38 	ldrb	w5, [x16, #1]!
1000056a0: e4 03 25 aa 	mvn	x4, x5
1000056a4: 87 30 1c 9b 	madd	x7, x4, x28, x12
1000056a8: e0 04 40 ad 	ldp	q0, q1, [x7]
1000056ac: e7 10 40 f9 	ldr	x7, [x7, #32]
1000056b0: c7 10 00 f9 	str	x7, [x6, #32]
1000056b4: c0 04 00 ad 	stp	q0, q1, [x6]
1000056b8: 63 04 00 f1 	subs	x3, x3, #1
1000056bc: e1 fd ff 54 	b.ne	0x100005678 <__ZN4core5slice4sort7recurse17hdfad3a1d43d52268E+0x76c>
1000056c0: 80 ff ff 17 	b	0x1000054c0 <__ZN4core5slice4sort7recurse17hdfad3a1d43d52268E+0x5b4>
1000056c4: 3f 02 0e eb 	cmp	x17, x14
1000056c8: c2 08 00 54 	b.hs	0x1000057e0 <__ZN4core5slice4sort7recurse17hdfad3a1d43d52268E+0x8d4>
1000056cc: cb fd 5f 38 	ldrb	w11, [x14, #-1]!
1000056d0: 6d 3d 1c 9b 	madd	x13, x11, x28, x15
1000056d4: 8b a1 00 d1 	sub	x11, x12, #40
1000056d8: a0 05 40 ad 	ldp	q0, q1, [x13]
1000056dc: b0 11 40 f9 	ldr	x16, [x13, #32]
1000056e0: b0 03 1a f8 	stur	x16, [x29, #-96]
1000056e4: a0 07 3c ad 	stp	q0, q1, [x29, #-128]
1000056e8: 80 81 dd 3c 	ldur	q0, [x12, #-40]
1000056ec: 90 81 5f f8 	ldur	x16, [x12, #-8]
1000056f0: 81 81 de 3c 	ldur	q1, [x12, #-24]
1000056f4: b0 11 00 f9 	str	x16, [x13, #32]
1000056f8: a0 05 00 ad 	stp	q0, q1, [x13]
1000056fc: a0 07 7c ad 	ldp	q0, q1, [x29, #-128]
100005700: ad 03 5a f8 	ldur	x13, [x29, #-96]
100005704: 8d 81 1f f8 	stur	x13, [x12, #-8]
100005708: 81 81 9e 3c 	stur	q1, [x12, #-24]
10000570c: 80 81 9d 3c 	stur	q0, [x12, #-40]
100005710: ec 03 0b aa 	mov	x12, x11
100005714: 3f 02 0e eb 	cmp	x17, x14
100005718: a3 fd ff 54 	b.lo	0x1000056cc <__ZN4core5slice4sort7recurse17hdfad3a1d43d52268E+0x7c0>
10000571c: 6a 01 0a cb 	sub	x10, x11, x10
100005720: eb e7 02 b2 	mov	x11, #-3689348814741910324
100005724: ab 99 99 f2 	movk	x11, #52429
100005728: 4a 7d cb 9b 	umulh	x10, x10, x11
10000572c: 1a 15 4a 8b 	add	x26, x8, x10, lsr #5
100005730: e0 87 40 ad 	ldp	q0, q1, [sp, #16]
100005734: ea 1b 40 f9 	ldr	x10, [sp, #48]
100005738: 6a 12 00 f9 	str	x10, [x19, #32]
10000573c: 60 06 00 ad 	stp	q0, q1, [x19]
100005740: ea 02 1a eb 	subs	x10, x23, x26
100005744: a9 0b 00 54 	b.ls	0x1000058b8 <__ZN4core5slice4sort7recurse17hdfad3a1d43d52268E+0x9ac>
100005748: 3f 01 08 eb 	cmp	x9, x8
10000574c: f4 87 9f 1a 	cset	w20, ls
100005750: 58 4f 1c 9b 	madd	x24, x26, x28, x19
100005754: 60 06 40 ad 	ldp	q0, q1, [x19]
100005758: 68 12 40 f9 	ldr	x8, [x19, #32]
10000575c: e8 73 00 f9 	str	x8, [sp, #224]
100005760: e0 07 06 ad 	stp	q0, q1, [sp, #192]
100005764: 08 13 40 f9 	ldr	x8, [x24, #32]
100005768: 00 07 40 ad 	ldp	q0, q1, [x24]
10000576c: 68 12 00 f9 	str	x8, [x19, #32]
100005770: 60 06 00 ad 	stp	q0, q1, [x19]
100005774: e0 07 46 ad 	ldp	q0, q1, [sp, #192]
100005778: e8 73 40 f9 	ldr	x8, [sp, #224]
10000577c: 08 13 00 f9 	str	x8, [x24, #32]
100005780: 00 07 00 ad 	stp	q0, q1, [x24]
100005784: 5f 03 0a eb 	cmp	x26, x10
100005788: 48 33 8a 9a 	csel	x8, x26, x10, lo
10000578c: 1f 0d 57 eb 	cmp	x8, x23, lsr #3
100005790: fb 37 9f 1a 	cset	w27, hs
100005794: 17 a3 00 91 	add	x23, x24, #40
100005798: 59 05 00 d1 	sub	x25, x10, #1
10000579c: 5f 03 19 eb 	cmp	x26, x25
1000057a0: c2 04 00 54 	b.hs	0x100005838 <__ZN4core5slice4sort7recurse17hdfad3a1d43d52268E+0x92c>
1000057a4: e0 03 13 aa 	mov	x0, x19
1000057a8: e1 03 1a aa 	mov	x1, x26
1000057ac: e2 07 40 f9 	ldr	x2, [sp, #8]
1000057b0: e3 03 16 aa 	mov	x3, x22
1000057b4: e4 03 15 aa 	mov	x4, x21
1000057b8: d5 fd ff 97 	bl	0x100004f0c <__ZN4core5slice4sort7recurse17hdfad3a1d43d52268E>
1000057bc: f6 03 18 aa 	mov	x22, x24
1000057c0: fa 03 19 aa 	mov	x26, x25
1000057c4: f3 03 17 aa 	mov	x19, x23
1000057c8: f7 03 1a aa 	mov	x23, x26
1000057cc: f8 03 13 aa 	mov	x24, x19
1000057d0: 3f 57 00 f1 	cmp	x25, #21
1000057d4: 21 00 80 52 	mov	w1, #1
1000057d8: c2 c2 ff 54 	b.hs	0x100005030 <__ZN4core5slice4sort7recurse17hdfad3a1d43d52268E+0x124>
1000057dc: db fd ff 17 	b	0x100004f48 <__ZN4core5slice4sort7recurse17hdfad3a1d43d52268E+0x3c>
1000057e0: eb 03 0f aa 	mov	x11, x15
1000057e4: 1f 02 0d eb 	cmp	x16, x13
1000057e8: a2 f9 ff 54 	b.hs	0x10000571c <__ZN4core5slice4sort7recurse17hdfad3a1d43d52268E+0x810>
1000057ec: ae fd 5f 38 	ldrb	w14, [x13, #-1]!
1000057f0: ee 03 2e aa 	mvn	x14, x14
1000057f4: ce 31 1c 9b 	madd	x14, x14, x28, x12
1000057f8: 60 05 40 ad 	ldp	q0, q1, [x11]
1000057fc: 6f 11 40 f9 	ldr	x15, [x11, #32]
100005800: af 03 1a f8 	stur	x15, [x29, #-96]
100005804: a0 07 3c ad 	stp	q0, q1, [x29, #-128]
100005808: cf 11 40 f9 	ldr	x15, [x14, #32]
10000580c: c0 05 40 ad 	ldp	q0, q1, [x14]
100005810: 6f 11 00 f9 	str	x15, [x11, #32]
100005814: 60 05 00 ad 	stp	q0, q1, [x11]
100005818: a0 07 7c ad 	ldp	q0, q1, [x29, #-128]
10000581c: af 03 5a f8 	ldur	x15, [x29, #-96]
100005820: cf 11 00 f9 	str	x15, [x14, #32]
100005824: c0 05 00 ad 	stp	q0, q1, [x14]
100005828: 6b a1 00 91 	add	x11, x11, #40
10000582c: 1f 02 0d eb 	cmp	x16, x13
100005830: e3 fd ff 54 	b.lo	0x1000057ec <__ZN4core5slice4sort7recurse17hdfad3a1d43d52268E+0x8e0>
100005834: ba ff ff 17 	b	0x10000571c <__ZN4core5slice4sort7recurse17hdfad3a1d43d52268E+0x810>
100005838: e0 03 17 aa 	mov	x0, x23
10000583c: e1 03 19 aa 	mov	x1, x25
100005840: e2 07 40 f9 	ldr	x2, [sp, #8]
100005844: e3 03 18 aa 	mov	x3, x24
100005848: e4 03 15 aa 	mov	x4, x21
10000584c: b0 fd ff 97 	bl	0x100004f0c <__ZN4core5slice4sort7recurse17hdfad3a1d43d52268E>
100005850: f7 03 1a aa 	mov	x23, x26
100005854: f8 03 13 aa 	mov	x24, x19
100005858: 5f 57 00 f1 	cmp	x26, #21
10000585c: 21 00 80 52 	mov	w1, #1
100005860: 82 be ff 54 	b.hs	0x100005030 <__ZN4core5slice4sort7recurse17hdfad3a1d43d52268E+0x124>
100005864: b9 fd ff 17 	b	0x100004f48 <__ZN4core5slice4sort7recurse17hdfad3a1d43d52268E+0x3c>
100005868: e0 03 18 aa 	mov	x0, x24
10000586c: e1 03 19 aa 	mov	x1, x25
100005870: e2 07 40 f9 	ldr	x2, [sp, #8]
100005874: 5c ab 00 94 	bl	0x1000305e4 <__ZN4core5slice4sort8heapsort17hbe25a783af3de453E>
100005878: fd 7b 5c a9 	ldp	x29, x30, [sp, #448]
10000587c: f4 4f 5b a9 	ldp	x20, x19, [sp, #432]
100005880: f6 57 5a a9 	ldp	x22, x21, [sp, #416]
100005884: f8 5f 59 a9 	ldp	x24, x23, [sp, #400]
100005888: fa 67 58 a9 	ldp	x26, x25, [sp, #384]
10000588c: fc 6f 57 a9 	ldp	x28, x27, [sp, #368]
100005890: ff 43 07 91 	add	sp, sp, #464
100005894: c0 03 5f d6 	ret
100005898: 02 62 1d 10 	adr	x2, #240704
10000589c: 1f 20 03 d5 	nop
1000058a0: e0 03 1a aa 	mov	x0, x26
1000058a4: e1 03 19 aa 	mov	x1, x25
1000058a8: b6 b0 00 94 	bl	0x100031b80 <__ZN4core9panicking18panic_bounds_check17hcd475361ec7b2e52E>
1000058ac: 22 65 1d 10 	adr	x2, #240804
1000058b0: 1f 20 03 d5 	nop
1000058b4: 03 00 00 14 	b	0x1000058c0 <__ZN4core5slice4sort7recurse17hdfad3a1d43d52268E+0x9b4>
1000058b8: 42 66 1d 10 	adr	x2, #240840
1000058bc: 1f 20 03 d5 	nop
1000058c0: e0 03 1a aa 	mov	x0, x26
1000058c4: e1 03 17 aa 	mov	x1, x23
1000058c8: ae b0 00 94 	bl	0x100031b80 <__ZN4core9panicking18panic_bounds_check17hcd475361ec7b2e52E>
1000058cc: 22 61 1d 10 	adr	x2, #240676
1000058d0: 1f 20 03 d5 	nop
1000058d4: e1 03 19 aa 	mov	x1, x25
1000058d8: 29 b1 00 94 	bl	0x100031d7c <__ZN4core5slice5index26slice_start_index_len_fail17hb8c5285ad20513d9E>
1000058dc: 62 64 1d 10 	adr	x2, #240780
1000058e0: 1f 20 03 d5 	nop
1000058e4: e0 03 09 aa 	mov	x0, x9
1000058e8: 28 b1 00 94 	bl	0x100031d88 <__ZN4core5slice5index24slice_end_index_len_fail17h315aac587d80b977E>
1000058ec: 06 00 00 14 	b	0x100005904 <__ZN4core5slice4sort7recurse17hdfad3a1d43d52268E+0x9f8>
1000058f0: c2 63 1d 10 	adr	x2, #240760
1000058f4: 1f 20 03 d5 	nop
1000058f8: e0 03 08 aa 	mov	x0, x8
1000058fc: e1 03 09 aa 	mov	x1, x9
100005900: 25 b1 00 94 	bl	0x100031d94 <__ZN4core5slice5index22slice_index_order_fail17hce7f499093346c93E>
100005904: 20 00 20 d4 	brk	#0x1
100005908: f4 03 00 aa 	mov	x20, x0
10000590c: e0 43 00 91 	add	x0, sp, #16
100005910: e1 03 13 aa 	mov	x1, x19
100005914: e1 f9 ff 97 	bl	0x100004098 <__ZN4core3ptr86drop_in_place$LT$core..slice..sort..CopyOnDrop$LT$object..read..ObjectMapEntry$GT$$GT$17h30a185446131bcefE>
100005918: e0 03 14 aa 	mov	x0, x20
10000591c: 4d b1 00 94 	bl	0x100031e50 <_writev+0x100031e50>

0000000100005920 <__ZN4core5slice4sort7recurse17he3785d4c3c9fd422E>:
100005920: fc 6f ba a9 	stp	x28, x27, [sp, #-96]!
100005924: fa 67 01 a9 	stp	x26, x25, [sp, #16]
100005928: f8 5f 02 a9 	stp	x24, x23, [sp, #32]
10000592c: f6 57 03 a9 	stp	x22, x21, [sp, #48]
100005930: f4 4f 04 a9 	stp	x20, x19, [sp, #64]
100005934: fd 7b 05 a9 	stp	x29, x30, [sp, #80]
100005938: fd 43 01 91 	add	x29, sp, #80
10000593c: ff 43 07 d1 	sub	sp, sp, #464
100005940: e4 47 00 b9 	str	w4, [sp, #68]
100005944: e2 1b 00 f9 	str	x2, [sp, #48]
100005948: 3f 54 00 f1 	cmp	x1, #21
10000594c: a2 08 00 54 	b.hs	0x100005a60 <__ZN4core5slice4sort7recurse17he3785d4c3c9fd422E+0x140>
100005950: fa 03 01 aa 	mov	x26, x1
100005954: f8 03 00 aa 	mov	x24, x0
100005958: 5f 0b 00 f1 	cmp	x26, #2
10000595c: 03 4f 00 54 	b.lo	0x10000633c <__ZN4core5slice4sort7recurse17he3785d4c3c9fd422E+0xa1c>
100005960: 16 00 80 d2 	mov	x22, #0
100005964: 35 00 80 52 	mov	w21, #1
100005968: f7 03 18 aa 	mov	x23, x24
10000596c: 0a 00 00 14 	b	0x100005994 <__ZN4core5slice4sort7recurse17he3785d4c3c9fd422E+0x74>
100005970: fb 03 18 aa 	mov	x27, x24
100005974: 73 67 00 a9 	stp	x19, x25, [x27]
100005978: e8 2b 40 f9 	ldr	x8, [sp, #80]
10000597c: 68 0b 00 f9 	str	x8, [x27, #16]
100005980: b5 06 00 91 	add	x21, x21, #1
100005984: f7 62 00 91 	add	x23, x23, #24
100005988: d6 06 00 d1 	sub	x22, x22, #1
10000598c: bf 02 1a eb 	cmp	x21, x26
100005990: 60 4d 00 54 	b.eq	0x10000633c <__ZN4core5slice4sort7recurse17he3785d4c3c9fd422E+0xa1c>
100005994: 08 03 80 52 	mov	w8, #24
100005998: b4 62 08 9b 	madd	x20, x21, x8, x24
10000599c: fb 03 14 aa 	mov	x27, x20
1000059a0: 61 8f 5e f8 	ldr	x1, [x27, #-24]!
1000059a4: 93 66 40 a9 	ldp	x19, x25, [x20]
1000059a8: 88 02 5f f8 	ldur	x8, [x20, #-16]
1000059ac: 3c 03 08 eb 	subs	x28, x25, x8
1000059b0: 22 33 88 9a 	csel	x2, x25, x8, lo
1000059b4: e0 03 13 aa 	mov	x0, x19
1000059b8: 6b b1 00 94 	bl	0x100031f64 <_writev+0x100031f64>
1000059bc: 08 7c 40 93 	sxtw	x8, w0
1000059c0: 1f 00 00 71 	cmp	w0, #0
1000059c4: 88 03 88 9a 	csel	x8, x28, x8, eq
1000059c8: c8 fd ff b6 	tbz	x8, #63, 0x100005980 <__ZN4core5slice4sort7recurse17he3785d4c3c9fd422E+0x60>
1000059cc: 88 0a 40 f9 	ldr	x8, [x20, #16]
1000059d0: e8 2b 00 f9 	str	x8, [sp, #80]
1000059d4: 60 03 c0 3d 	ldr	q0, [x27]
1000059d8: 80 02 80 3d 	str	q0, [x20]
1000059dc: 68 0b 40 f9 	ldr	x8, [x27, #16]
1000059e0: 88 0a 00 f9 	str	x8, [x20, #16]
1000059e4: a8 06 00 d1 	sub	x8, x21, #1
1000059e8: 68 fc ff b4 	cbz	x8, 0x100005974 <__ZN4core5slice4sort7recurse17he3785d4c3c9fd422E+0x54>
1000059ec: 81 22 7d a9 	ldp	x1, x8, [x20, #-48]
1000059f0: 34 03 08 eb 	subs	x20, x25, x8
1000059f4: 22 33 88 9a 	csel	x2, x25, x8, lo
1000059f8: e0 03 13 aa 	mov	x0, x19
1000059fc: 5a b1 00 94 	bl	0x100031f64 <_writev+0x100031f64>
100005a00: 08 7c 40 93 	sxtw	x8, w0
100005a04: 1f 00 00 71 	cmp	w0, #0
100005a08: 89 02 88 9a 	csel	x9, x20, x8, eq
100005a0c: f4 03 16 aa 	mov	x20, x22
100005a10: e8 03 17 aa 	mov	x8, x23
100005a14: 09 fb ff b6 	tbz	x9, #63, 0x100005974 <__ZN4core5slice4sort7recurse17he3785d4c3c9fd422E+0x54>
100005a18: 00 81 de 3c 	ldur	q0, [x8, #-24]
100005a1c: 00 01 80 3d 	str	q0, [x8]
100005a20: 09 81 5f f8 	ldur	x9, [x8, #-8]
100005a24: 09 09 00 f9 	str	x9, [x8, #16]
100005a28: 94 06 00 b1 	adds	x20, x20, #1
100005a2c: 22 fa ff 54 	b.hs	0x100005970 <__ZN4core5slice4sort7recurse17he3785d4c3c9fd422E+0x50>
100005a30: 1b 61 00 d1 	sub	x27, x8, #24
100005a34: 01 21 7d a9 	ldp	x1, x8, [x8, #-48]
100005a38: 3c 03 08 eb 	subs	x28, x25, x8
100005a3c: 22 33 88 9a 	csel	x2, x25, x8, lo
100005a40: e0 03 13 aa 	mov	x0, x19
100005a44: 48 b1 00 94 	bl	0x100031f64 <_writev+0x100031f64>
100005a48: 08 7c 40 93 	sxtw	x8, w0
100005a4c: 1f 00 00 71 	cmp	w0, #0
100005a50: 89 03 88 9a 	csel	x9, x28, x8, eq
100005a54: e8 03 1b aa 	mov	x8, x27
100005a58: 09 fe ff b7 	tbnz	x9, #63, 0x100005a18 <__ZN4core5slice4sort7recurse17he3785d4c3c9fd422E+0xf8>
100005a5c: c6 ff ff 17 	b	0x100005974 <__ZN4core5slice4sort7recurse17he3785d4c3c9fd422E+0x54>
100005a60: fc 03 03 aa 	mov	x28, x3
100005a64: e0 07 01 a9 	stp	x0, x1, [sp, #16]
100005a68: b6 03 04 d1 	sub	x22, x29, #256
100005a6c: 28 00 80 52 	mov	w8, #1
100005a70: e8 3b 00 b9 	str	w8, [sp, #56]
100005a74: 33 00 80 52 	mov	w19, #1
100005a78: e8 3b 40 b9 	ldr	w8, [sp, #56]
100005a7c: 08 01 13 0a 	and	w8, w8, w19
100005a80: e8 2b 00 b9 	str	w8, [sp, #40]
100005a84: f8 67 41 a9 	ldp	x24, x25, [sp, #16]
100005a88: fc 13 00 f9 	str	x28, [sp, #32]
100005a8c: e8 47 40 b9 	ldr	w8, [sp, #68]
100005a90: e8 44 00 34 	cbz	w8, 0x10000632c <__ZN4core5slice4sort7recurse17he3785d4c3c9fd422E+0xa0c>
100005a94: e8 3b 40 b9 	ldr	w8, [sp, #56]
100005a98: 08 17 00 36 	tbz	w8, #0, 0x100005d78 <__ZN4core5slice4sort7recurse17he3785d4c3c9fd422E+0x458>
100005a9c: 28 ff 42 d3 	lsr	x8, x25, #2
100005aa0: 13 f9 7f d3 	lsl	x19, x8, #1
100005aa4: e8 cf 06 a9 	stp	x8, x19, [sp, #104]
100005aa8: 74 02 08 8b 	add	x20, x19, x8
100005aac: f4 ff 07 a9 	stp	x20, xzr, [sp, #120]
100005ab0: b8 67 30 a9 	stp	x24, x25, [x29, #-256]
100005ab4: ea 1b 40 f9 	ldr	x10, [sp, #48]
100005ab8: e9 03 02 91 	add	x9, sp, #128
100005abc: aa 27 31 a9 	stp	x10, x9, [x29, #-240]
100005ac0: 3f c7 00 f1 	cmp	x25, #49
100005ac4: 89 03 00 54 	b.ls	0x100005b34 <__ZN4core5slice4sort7recurse17he3785d4c3c9fd422E+0x214>
100005ac8: 09 05 00 d1 	sub	x9, x8, #1
100005acc: a9 03 18 f8 	stur	x9, [x29, #-128]
100005ad0: 08 05 00 91 	add	x8, x8, #1
100005ad4: e8 53 00 f9 	str	x8, [sp, #160]
100005ad8: a0 03 04 d1 	sub	x0, x29, #256
100005adc: a1 03 02 d1 	sub	x1, x29, #128
100005ae0: e2 a3 01 91 	add	x2, sp, #104
100005ae4: e3 83 02 91 	add	x3, sp, #160
100005ae8: 37 fa ff 97 	bl	0x1000043c4 <__ZN4core5slice4sort12choose_pivot28_$u7b$$u7b$closure$u7d$$u7d$17h2e8444f08caf549aE>
100005aec: 68 06 00 d1 	sub	x8, x19, #1
100005af0: a8 03 18 f8 	stur	x8, [x29, #-128]
100005af4: 68 02 40 b2 	orr	x8, x19, #0x1
100005af8: e8 53 00 f9 	str	x8, [sp, #160]
100005afc: a0 03 04 d1 	sub	x0, x29, #256
100005b00: a1 03 02 d1 	sub	x1, x29, #128
100005b04: e2 c3 01 91 	add	x2, sp, #112
100005b08: e3 83 02 91 	add	x3, sp, #160
100005b0c: 2e fa ff 97 	bl	0x1000043c4 <__ZN4core5slice4sort12choose_pivot28_$u7b$$u7b$closure$u7d$$u7d$17h2e8444f08caf549aE>
100005b10: 88 06 00 d1 	sub	x8, x20, #1
100005b14: a8 03 18 f8 	stur	x8, [x29, #-128]
100005b18: 88 06 00 91 	add	x8, x20, #1
100005b1c: e8 53 00 f9 	str	x8, [sp, #160]
100005b20: a0 03 04 d1 	sub	x0, x29, #256
100005b24: a1 03 02 d1 	sub	x1, x29, #128
100005b28: e2 e3 01 91 	add	x2, sp, #120
100005b2c: e3 83 02 91 	add	x3, sp, #160
100005b30: 25 fa ff 97 	bl	0x1000043c4 <__ZN4core5slice4sort12choose_pivot28_$u7b$$u7b$closure$u7d$$u7d$17h2e8444f08caf549aE>
100005b34: a0 03 04 d1 	sub	x0, x29, #256
100005b38: e1 a3 01 91 	add	x1, sp, #104
100005b3c: e2 c3 01 91 	add	x2, sp, #112
100005b40: e3 e3 01 91 	add	x3, sp, #120
100005b44: 20 fa ff 97 	bl	0x1000043c4 <__ZN4core5slice4sort12choose_pivot28_$u7b$$u7b$closure$u7d$$u7d$17h2e8444f08caf549aE>
100005b48: e8 43 40 f9 	ldr	x8, [sp, #128]
100005b4c: 1f 31 00 f1 	cmp	x8, #12
100005b50: 22 01 00 54 	b.hs	0x100005b74 <__ZN4core5slice4sort7recurse17he3785d4c3c9fd422E+0x254>
100005b54: fa 3b 40 f9 	ldr	x26, [sp, #112]
100005b58: 1f 01 00 f1 	cmp	x8, #0
100005b5c: e8 17 9f 1a 	cset	w8, eq
100005b60: 14 03 80 52 	mov	w20, #24
100005b64: e9 2b 40 b9 	ldr	w9, [sp, #40]
100005b68: 28 01 08 0a 	and	w8, w9, w8
100005b6c: 88 03 00 36 	tbz	w8, #0, 0x100005bdc <__ZN4core5slice4sort7recurse17he3785d4c3c9fd422E+0x2bc>
100005b70: 89 00 00 14 	b	0x100005d94 <__ZN4core5slice4sort7recurse17he3785d4c3c9fd422E+0x474>
100005b74: 28 ff 41 d3 	lsr	x8, x25, #1
100005b78: 14 03 80 52 	mov	w20, #24
100005b7c: 29 63 14 9b 	madd	x9, x25, x20, x24
100005b80: 29 61 00 d1 	sub	x9, x9, #24
100005b84: ea 03 18 aa 	mov	x10, x24
100005b88: 40 01 c0 3d 	ldr	q0, [x10]
100005b8c: 4b 09 40 f9 	ldr	x11, [x10, #16]
100005b90: ab 03 11 f8 	stur	x11, [x29, #-240]
100005b94: c0 02 80 3d 	str	q0, [x22]
100005b98: 20 01 c0 3d 	ldr	q0, [x9]
100005b9c: 2b 09 40 f9 	ldr	x11, [x9, #16]
100005ba0: 4b 09 00 f9 	str	x11, [x10, #16]
100005ba4: 40 85 81 3c 	str	q0, [x10], #24
100005ba8: c0 02 c0 3d 	ldr	q0, [x22]
100005bac: ab 03 51 f8 	ldur	x11, [x29, #-240]
100005bb0: 2b 09 00 f9 	str	x11, [x9, #16]
100005bb4: 20 85 9e 3c 	str	q0, [x9], #-24
100005bb8: 08 05 00 d1 	sub	x8, x8, #1
100005bbc: 68 fe ff b5 	cbnz	x8, 0x100005b88 <__ZN4core5slice4sort7recurse17he3785d4c3c9fd422E+0x268>
100005bc0: e8 3b 40 f9 	ldr	x8, [sp, #112]
100005bc4: e8 03 28 aa 	mvn	x8, x8
100005bc8: 3a 03 08 8b 	add	x26, x25, x8
100005bcc: 28 00 80 52 	mov	w8, #1
100005bd0: e9 2b 40 b9 	ldr	w9, [sp, #40]
100005bd4: 28 01 08 0a 	and	w8, w9, w8
100005bd8: e8 0d 00 37 	tbnz	w8, #0, 0x100005d94 <__ZN4core5slice4sort7recurse17he3785d4c3c9fd422E+0x474>
100005bdc: 7c 0e 00 b4 	cbz	x28, 0x100005da8 <__ZN4core5slice4sort7recurse17he3785d4c3c9fd422E+0x488>
100005be0: 5f 03 19 eb 	cmp	x26, x25
100005be4: c2 3b 00 54 	b.hs	0x10000635c <__ZN4core5slice4sort7recurse17he3785d4c3c9fd422E+0xa3c>
100005be8: 55 63 14 9b 	madd	x21, x26, x20, x24
100005bec: 80 23 40 a9 	ldp	x0, x8, [x28]
100005bf0: a1 26 40 a9 	ldp	x1, x9, [x21]
100005bf4: 13 01 09 eb 	subs	x19, x8, x9
100005bf8: 02 31 89 9a 	csel	x2, x8, x9, lo
100005bfc: da b0 00 94 	bl	0x100031f64 <_writev+0x100031f64>
100005c00: 08 7c 40 93 	sxtw	x8, w0
100005c04: 1f 00 00 71 	cmp	w0, #0
100005c08: 68 02 88 9a 	csel	x8, x19, x8, eq
100005c0c: 28 0d f8 b7 	tbnz	x8, #63, 0x100005db0 <__ZN4core5slice4sort7recurse17he3785d4c3c9fd422E+0x490>
100005c10: 14 00 80 d2 	mov	x20, #0
100005c14: 00 03 c0 3d 	ldr	q0, [x24]
100005c18: 08 0b 40 f9 	ldr	x8, [x24, #16]
100005c1c: a8 03 11 f8 	stur	x8, [x29, #-240]
100005c20: c0 02 80 3d 	str	q0, [x22]
100005c24: a0 02 c0 3d 	ldr	q0, [x21]
100005c28: a8 0a 40 f9 	ldr	x8, [x21, #16]
100005c2c: 08 0b 00 f9 	str	x8, [x24, #16]
100005c30: 00 03 80 3d 	str	q0, [x24]
100005c34: c0 02 c0 3d 	ldr	q0, [x22]
100005c38: a8 03 51 f8 	ldur	x8, [x29, #-240]
100005c3c: a8 0a 00 f9 	str	x8, [x21, #16]
100005c40: a0 02 80 3d 	str	q0, [x21]
100005c44: 17 63 00 91 	add	x23, x24, #24
100005c48: 1a 03 40 f9 	ldr	x26, [x24]
100005c4c: 00 83 c0 3c 	ldur	q0, [x24, #8]
100005c50: e0 17 80 3d 	str	q0, [sp, #80]
100005c54: 16 00 66 9e 	fmov	x22, d0
100005c58: 08 83 00 91 	add	x8, x24, #32
100005c5c: e8 27 00 f9 	str	x8, [sp, #72]
100005c60: fc 03 19 aa 	mov	x28, x25
100005c64: 3b 07 00 d1 	sub	x27, x25, #1
100005c68: 9f 02 1b eb 	cmp	x20, x27
100005c6c: 42 02 00 54 	b.hs	0x100005cb4 <__ZN4core5slice4sort7recurse17he3785d4c3c9fd422E+0x394>
100005c70: 08 03 80 52 	mov	w8, #24
100005c74: e9 27 40 f9 	ldr	x9, [sp, #72]
100005c78: 93 26 08 9b 	madd	x19, x20, x8, x9
100005c7c: 61 a2 7f a9 	ldp	x1, x8, [x19, #-8]
100005c80: d5 02 08 eb 	subs	x21, x22, x8
100005c84: c2 32 88 9a 	csel	x2, x22, x8, lo
100005c88: e0 03 1a aa 	mov	x0, x26
100005c8c: b6 b0 00 94 	bl	0x100031f64 <_writev+0x100031f64>
100005c90: 08 7c 40 93 	sxtw	x8, w0
100005c94: 1f 00 00 71 	cmp	w0, #0
100005c98: a8 02 88 9a 	csel	x8, x21, x8, eq
100005c9c: c8 00 f8 b7 	tbnz	x8, #63, 0x100005cb4 <__ZN4core5slice4sort7recurse17he3785d4c3c9fd422E+0x394>
100005ca0: 94 06 00 91 	add	x20, x20, #1
100005ca4: 73 62 00 91 	add	x19, x19, #24
100005ca8: 7f 03 14 eb 	cmp	x27, x20
100005cac: 81 fe ff 54 	b.ne	0x100005c7c <__ZN4core5slice4sort7recurse17he3785d4c3c9fd422E+0x35c>
100005cb0: f4 03 1b aa 	mov	x20, x27
100005cb4: 08 03 80 52 	mov	w8, #24
100005cb8: 9b 63 08 9b 	madd	x27, x28, x8, x24
100005cbc: 9c 07 00 d1 	sub	x28, x28, #1
100005cc0: 9f 02 1c eb 	cmp	x20, x28
100005cc4: c2 03 00 54 	b.hs	0x100005d3c <__ZN4core5slice4sort7recurse17he3785d4c3c9fd422E+0x41c>
100005cc8: 61 a3 fe a9 	ldp	x1, x8, [x27, #-24]!
100005ccc: d3 02 08 eb 	subs	x19, x22, x8
100005cd0: c2 32 88 9a 	csel	x2, x22, x8, lo
100005cd4: e0 03 1a aa 	mov	x0, x26
100005cd8: a3 b0 00 94 	bl	0x100031f64 <_writev+0x100031f64>
100005cdc: 08 7c 40 93 	sxtw	x8, w0
100005ce0: 1f 00 00 71 	cmp	w0, #0
100005ce4: 68 02 88 9a 	csel	x8, x19, x8, eq
100005ce8: a8 fe ff b7 	tbnz	x8, #63, 0x100005cbc <__ZN4core5slice4sort7recurse17he3785d4c3c9fd422E+0x39c>
100005cec: 08 03 80 52 	mov	w8, #24
100005cf0: 88 5e 08 9b 	madd	x8, x20, x8, x23
100005cf4: 00 01 c0 3d 	ldr	q0, [x8]
100005cf8: 09 09 40 f9 	ldr	x9, [x8, #16]
100005cfc: a9 03 11 f8 	stur	x9, [x29, #-240]
100005d00: aa 03 04 d1 	sub	x10, x29, #256
100005d04: 40 01 80 3d 	str	q0, [x10]
100005d08: 60 03 c0 3d 	ldr	q0, [x27]
100005d0c: 69 0b 40 f9 	ldr	x9, [x27, #16]
100005d10: 09 09 00 f9 	str	x9, [x8, #16]
100005d14: 00 01 80 3d 	str	q0, [x8]
100005d18: 40 01 c0 3d 	ldr	q0, [x10]
100005d1c: a8 03 51 f8 	ldur	x8, [x29, #-240]
100005d20: 68 0b 00 f9 	str	x8, [x27, #16]
100005d24: 60 03 80 3d 	str	q0, [x27]
100005d28: 94 06 00 91 	add	x20, x20, #1
100005d2c: 9b 07 00 d1 	sub	x27, x28, #1
100005d30: 9f 02 1b eb 	cmp	x20, x27
100005d34: e3 f9 ff 54 	b.lo	0x100005c70 <__ZN4core5slice4sort7recurse17he3785d4c3c9fd422E+0x350>
100005d38: df ff ff 17 	b	0x100005cb4 <__ZN4core5slice4sort7recurse17he3785d4c3c9fd422E+0x394>
100005d3c: 80 06 00 91 	add	x0, x20, #1
100005d40: 1a 03 00 f9 	str	x26, [x24]
100005d44: e0 17 c0 3d 	ldr	q0, [sp, #80]
100005d48: 00 83 80 3c 	stur	q0, [x24, #8]
100005d4c: 3a 03 00 eb 	subs	x26, x25, x0
100005d50: c3 32 00 54 	b.lo	0x1000063a8 <__ZN4core5slice4sort7recurse17he3785d4c3c9fd422E+0xa88>
100005d54: 08 03 80 52 	mov	w8, #24
100005d58: 88 62 08 9b 	madd	x8, x20, x8, x24
100005d5c: 18 61 00 91 	add	x24, x8, #24
100005d60: f9 03 1a aa 	mov	x25, x26
100005d64: 5f 57 00 f1 	cmp	x26, #21
100005d68: fc 13 40 f9 	ldr	x28, [sp, #32]
100005d6c: b6 03 04 d1 	sub	x22, x29, #256
100005d70: e2 e8 ff 54 	b.hs	0x100005a8c <__ZN4core5slice4sort7recurse17he3785d4c3c9fd422E+0x16c>
100005d74: f9 fe ff 17 	b	0x100005958 <__ZN4core5slice4sort7recurse17he3785d4c3c9fd422E+0x38>
100005d78: e0 03 18 aa 	mov	x0, x24
100005d7c: e1 03 19 aa 	mov	x1, x25
100005d80: 46 a6 00 94 	bl	0x10002f698 <__ZN4core5slice4sort14break_patterns17hac0213381933f7d8E>
100005d84: e8 47 40 b9 	ldr	w8, [sp, #68]
100005d88: 08 05 00 51 	sub	w8, w8, #1
100005d8c: e8 47 00 b9 	str	w8, [sp, #68]
100005d90: 43 ff ff 17 	b	0x100005a9c <__ZN4core5slice4sort7recurse17he3785d4c3c9fd422E+0x17c>
100005d94: e0 03 18 aa 	mov	x0, x24
100005d98: e1 03 19 aa 	mov	x1, x25
100005d9c: c3 a7 00 94 	bl	0x10002fca8 <__ZN4core5slice4sort22partial_insertion_sort17hea1df12f190e527fE>
100005da0: e0 f1 07 36 	tbz	w0, #0, 0x100005bdc <__ZN4core5slice4sort7recurse17he3785d4c3c9fd422E+0x2bc>
100005da4: 66 01 00 14 	b	0x10000633c <__ZN4core5slice4sort7recurse17he3785d4c3c9fd422E+0xa1c>
100005da8: f8 67 41 a9 	ldp	x24, x25, [sp, #16]
100005dac: 59 2f 00 b4 	cbz	x25, 0x100006394 <__ZN4core5slice4sort7recurse17he3785d4c3c9fd422E+0xa74>
100005db0: 5f 03 19 eb 	cmp	x26, x25
100005db4: e2 2d 00 54 	b.hs	0x100006370 <__ZN4core5slice4sort7recurse17he3785d4c3c9fd422E+0xa50>
100005db8: 15 03 80 52 	mov	w21, #24
100005dbc: 48 63 14 9b 	madd	x8, x26, x20, x24
100005dc0: 00 03 c0 3d 	ldr	q0, [x24]
100005dc4: 09 0b 40 f9 	ldr	x9, [x24, #16]
100005dc8: a9 03 11 f8 	stur	x9, [x29, #-240]
100005dcc: c0 02 80 3d 	str	q0, [x22]
100005dd0: 00 01 c0 3d 	ldr	q0, [x8]
100005dd4: 09 09 40 f9 	ldr	x9, [x8, #16]
100005dd8: 09 0b 00 f9 	str	x9, [x24, #16]
100005ddc: 00 03 80 3d 	str	q0, [x24]
100005de0: c0 02 c0 3d 	ldr	q0, [x22]
100005de4: a9 03 51 f8 	ldur	x9, [x29, #-240]
100005de8: 09 09 00 f9 	str	x9, [x8, #16]
100005dec: 00 01 80 3d 	str	q0, [x8]
100005df0: 08 0b 40 f9 	ldr	x8, [x24, #16]
100005df4: 00 03 c0 3d 	ldr	q0, [x24]
100005df8: e0 23 80 3d 	str	q0, [sp, #128]
100005dfc: e8 4b 00 f9 	str	x8, [sp, #144]
100005e00: fa 5f 48 a9 	ldp	x26, x23, [sp, #128]
100005e04: f9 0f 00 f9 	str	x25, [sp, #24]
100005e08: 3b 07 00 f1 	subs	x27, x25, #1
100005e0c: 40 02 00 54 	b.eq	0x100005e54 <__ZN4core5slice4sort7recurse17he3785d4c3c9fd422E+0x534>
100005e10: 19 00 80 d2 	mov	x25, #0
100005e14: 13 83 00 91 	add	x19, x24, #32
100005e18: 60 a2 7f a9 	ldp	x0, x8, [x19, #-8]
100005e1c: 14 01 17 eb 	subs	x20, x8, x23
100005e20: 02 31 97 9a 	csel	x2, x8, x23, lo
100005e24: e1 03 1a aa 	mov	x1, x26
100005e28: 4f b0 00 94 	bl	0x100031f64 <_writev+0x100031f64>
100005e2c: 08 7c 40 93 	sxtw	x8, w0
100005e30: 1f 00 00 71 	cmp	w0, #0
100005e34: 88 02 88 9a 	csel	x8, x20, x8, eq
100005e38: 08 01 f8 b6 	tbz	x8, #63, 0x100005e58 <__ZN4core5slice4sort7recurse17he3785d4c3c9fd422E+0x538>
100005e3c: 39 07 00 91 	add	x25, x25, #1
100005e40: 73 62 00 91 	add	x19, x19, #24
100005e44: 7f 03 19 eb 	cmp	x27, x25
100005e48: 81 fe ff 54 	b.ne	0x100005e18 <__ZN4core5slice4sort7recurse17he3785d4c3c9fd422E+0x4f8>
100005e4c: f9 03 1b aa 	mov	x25, x27
100005e50: 02 00 00 14 	b	0x100005e58 <__ZN4core5slice4sort7recurse17he3785d4c3c9fd422E+0x538>
100005e54: 19 00 80 d2 	mov	x25, #0
100005e58: 14 63 00 91 	add	x20, x24, #24
100005e5c: 3f 03 1b eb 	cmp	x25, x27
100005e60: 28 33 9b 9a 	csel	x8, x25, x27, lo
100005e64: e8 2b 00 f9 	str	x8, [sp, #80]
100005e68: f3 0f 40 f9 	ldr	x19, [sp, #24]
100005e6c: 68 62 15 9b 	madd	x8, x19, x21, x24
100005e70: 15 61 00 d1 	sub	x21, x8, #24
100005e74: 73 06 00 d1 	sub	x19, x19, #1
100005e78: 7f 02 19 eb 	cmp	x19, x25
100005e7c: 69 01 00 54 	b.ls	0x100005ea8 <__ZN4core5slice4sort7recurse17he3785d4c3c9fd422E+0x588>
100005e80: a0 a2 fe a8 	ldp	x0, x8, [x21], #-24
100005e84: 16 01 17 eb 	subs	x22, x8, x23
100005e88: 02 31 97 9a 	csel	x2, x8, x23, lo
100005e8c: e1 03 1a aa 	mov	x1, x26
100005e90: 35 b0 00 94 	bl	0x100031f64 <_writev+0x100031f64>
100005e94: 08 7c 40 93 	sxtw	x8, w0
100005e98: 1f 00 00 71 	cmp	w0, #0
100005e9c: c8 02 88 9a 	csel	x8, x22, x8, eq
100005ea0: a8 fe ff b6 	tbz	x8, #63, 0x100005e74 <__ZN4core5slice4sort7recurse17he3785d4c3c9fd422E+0x554>
100005ea4: 02 00 00 14 	b	0x100005eac <__ZN4core5slice4sort7recurse17he3785d4c3c9fd422E+0x58c>
100005ea8: f3 2b 40 f9 	ldr	x19, [sp, #80]
100005eac: 68 02 19 eb 	subs	x8, x19, x25
100005eb0: f8 0b 00 f9 	str	x24, [sp, #16]
100005eb4: e3 28 00 54 	b.lo	0x1000063d0 <__ZN4core5slice4sort7recurse17he3785d4c3c9fd422E+0xab0>
100005eb8: f3 03 00 f9 	str	x19, [sp]
100005ebc: 7f 02 1b eb 	cmp	x19, x27
100005ec0: c8 27 00 54 	b.hi	0x1000063b8 <__ZN4core5slice4sort7recurse17he3785d4c3c9fd422E+0xa98>
100005ec4: 15 00 80 d2 	mov	x21, #0
100005ec8: 18 00 80 d2 	mov	x24, #0
100005ecc: 13 00 80 d2 	mov	x19, #0
100005ed0: 1c 00 80 d2 	mov	x28, #0
100005ed4: 09 03 80 52 	mov	w9, #24
100005ed8: 36 53 09 9b 	madd	x22, x25, x9, x20
100005edc: 0e 03 80 52 	mov	w14, #24
100005ee0: 1b 59 0e 9b 	madd	x27, x8, x14, x22
100005ee4: 0f 10 80 52 	mov	w15, #128
100005ee8: 10 10 80 52 	mov	w16, #128
100005eec: f6 07 00 f9 	str	x22, [sp, #8]
100005ef0: f9 1f 00 f9 	str	x25, [sp, #56]
100005ef4: 11 00 00 14 	b	0x100005f38 <__ZN4core5slice4sort7recurse17he3785d4c3c9fd422E+0x618>
100005ef8: a8 03 04 d1 	sub	x8, x29, #256
100005efc: 00 21 c0 3d 	ldr	q0, [x8, #128]
100005f00: a8 03 59 f8 	ldur	x8, [x29, #-112]
100005f04: 29 6d 0e 9b 	madd	x9, x9, x14, x27
100005f08: 28 09 00 f9 	str	x8, [x9, #16]
100005f0c: 20 01 80 3d 	str	q0, [x9]
100005f10: 9c 07 00 91 	add	x28, x28, #1
100005f14: 18 07 00 91 	add	x24, x24, #1
100005f18: 9f 03 13 eb 	cmp	x28, x19
100005f1c: 08 02 9f 9a 	csel	x8, x16, xzr, eq
100005f20: 16 59 0e 9b 	madd	x22, x8, x14, x22
100005f24: 1f 03 15 eb 	cmp	x24, x21
100005f28: e8 17 8f da 	csneg	x8, xzr, x15, ne
100005f2c: 1b 6d 0e 9b 	madd	x27, x8, x14, x27
100005f30: 3f 0e 0c f1 	cmp	x17, #771
100005f34: 63 12 00 54 	b.lo	0x100006180 <__ZN4core5slice4sort7recurse17he3785d4c3c9fd422E+0x860>
100005f38: 68 03 16 cb 	sub	x8, x27, x22
100005f3c: 11 fd 43 d3 	lsr	x17, x8, #3
100005f40: 3f 0e 0c f1 	cmp	x17, #771
100005f44: 62 02 00 54 	b.hs	0x100005f90 <__ZN4core5slice4sort7recurse17he3785d4c3c9fd422E+0x670>
100005f48: 08 3d 00 12 	and	w8, w8, #0xffff
100005f4c: 69 55 95 52 	mov	w9, #43691
100005f50: 08 7d 09 1b 	mul	w8, w8, w9
100005f54: 08 7d 14 53 	lsr	w8, w8, #20
100005f58: 9f 03 13 eb 	cmp	x28, x19
100005f5c: e9 27 9f 1a 	cset	w9, lo
100005f60: 1f 03 15 eb 	cmp	x24, x21
100005f64: ea 27 9f 1a 	cset	w10, lo
100005f68: 29 01 0a 2a 	orr	w9, w9, w10
100005f6c: 0a 01 02 d1 	sub	x10, x8, #128
100005f70: 3f 01 00 71 	cmp	w9, #0
100005f74: 48 11 88 9a 	csel	x8, x10, x8, ne
100005f78: 9f 03 13 eb 	cmp	x28, x19
100005f7c: 0f 31 8f 9a 	csel	x15, x8, x15, lo
100005f80: 10 32 88 9a 	csel	x16, x16, x8, lo
100005f84: 69 00 00 37 	tbnz	w9, #0, 0x100005f90 <__ZN4core5slice4sort7recurse17he3785d4c3c9fd422E+0x670>
100005f88: 10 fd 41 d3 	lsr	x16, x8, #1
100005f8c: 0f 01 10 cb 	sub	x15, x8, x16
100005f90: 9f 03 13 eb 	cmp	x28, x19
100005f94: a0 05 00 54 	b.eq	0x100006048 <__ZN4core5slice4sort7recurse17he3785d4c3c9fd422E+0x728>
100005f98: 1f 03 15 eb 	cmp	x24, x21
100005f9c: c0 09 00 54 	b.eq	0x1000060d4 <__ZN4core5slice4sort7recurse17he3785d4c3c9fd422E+0x7b4>
100005fa0: 68 02 1c cb 	sub	x8, x19, x28
100005fa4: a9 02 18 cb 	sub	x9, x21, x24
100005fa8: 1f 01 09 eb 	cmp	x8, x9
100005fac: 08 31 89 9a 	csel	x8, x8, x9, lo
100005fb0: 48 fb ff b4 	cbz	x8, 0x100005f18 <__ZN4core5slice4sort7recurse17he3785d4c3c9fd422E+0x5f8>
100005fb4: 89 03 40 39 	ldrb	w9, [x28]
100005fb8: 29 59 0e 9b 	madd	x9, x9, x14, x22
100005fbc: 20 01 c0 3d 	ldr	q0, [x9]
100005fc0: 29 09 40 f9 	ldr	x9, [x9, #16]
100005fc4: a9 03 19 f8 	stur	x9, [x29, #-112]
100005fc8: a9 03 04 d1 	sub	x9, x29, #256
100005fcc: 20 21 80 3d 	str	q0, [x9, #128]
100005fd0: 0a 03 40 39 	ldrb	w10, [x24]
100005fd4: e9 03 2a aa 	mvn	x9, x10
100005fd8: 2b 6d 0e 9b 	madd	x11, x9, x14, x27
100005fdc: 8c 03 40 39 	ldrb	w12, [x28]
100005fe0: 8c 59 0e 9b 	madd	x12, x12, x14, x22
100005fe4: 6d 09 40 f9 	ldr	x13, [x11, #16]
100005fe8: 60 01 c0 3d 	ldr	q0, [x11]
100005fec: 80 01 80 3d 	str	q0, [x12]
100005ff0: 8d 09 00 f9 	str	x13, [x12, #16]
100005ff4: 08 05 00 f1 	subs	x8, x8, #1
100005ff8: 00 f8 ff 54 	b.eq	0x100005ef8 <__ZN4core5slice4sort7recurse17he3785d4c3c9fd422E+0x5d8>
100005ffc: 89 1f 40 38 	ldrb	w9, [x28, #1]!
100006000: 2b 59 0e 9b 	madd	x11, x9, x14, x22
100006004: e9 03 2a 2a 	mvn	w9, w10
100006008: 29 dd 78 b2 	orr	x9, x9, #0xffffffffffffff00
10000600c: 29 6d 0e 9b 	madd	x9, x9, x14, x27
100006010: 6a 09 40 f9 	ldr	x10, [x11, #16]
100006014: 60 01 c0 3d 	ldr	q0, [x11]
100006018: 20 01 80 3d 	str	q0, [x9]
10000601c: 2a 09 00 f9 	str	x10, [x9, #16]
100006020: 0a 1f 40 38 	ldrb	w10, [x24, #1]!
100006024: e9 03 2a aa 	mvn	x9, x10
100006028: 2c 6d 0e 9b 	madd	x12, x9, x14, x27
10000602c: 8d 09 40 f9 	ldr	x13, [x12, #16]
100006030: 80 01 c0 3d 	ldr	q0, [x12]
100006034: 60 01 80 3d 	str	q0, [x11]
100006038: 6d 09 00 f9 	str	x13, [x11, #16]
10000603c: 08 05 00 f1 	subs	x8, x8, #1
100006040: e1 fd ff 54 	b.ne	0x100005ffc <__ZN4core5slice4sort7recurse17he3785d4c3c9fd422E+0x6dc>
100006044: ad ff ff 17 	b	0x100005ef8 <__ZN4core5slice4sort7recurse17he3785d4c3c9fd422E+0x5d8>
100006048: f0 03 00 b4 	cbz	x16, 0x1000060c4 <__ZN4core5slice4sort7recurse17he3785d4c3c9fd422E+0x7a4>
10000604c: f1 db 04 a9 	stp	x17, x22, [sp, #72]
100006050: ef 17 00 f9 	str	x15, [sp, #40]
100006054: 08 00 80 d2 	mov	x8, #0
100006058: f3 83 02 91 	add	x19, sp, #160
10000605c: fc 03 16 aa 	mov	x28, x22
100006060: 19 05 00 91 	add	x25, x8, #1
100006064: 68 02 00 39 	strb	w8, [x19]
100006068: 80 a3 c1 a8 	ldp	x0, x8, [x28], #24
10000606c: 14 01 17 eb 	subs	x20, x8, x23
100006070: 02 31 97 9a 	csel	x2, x8, x23, lo
100006074: e1 03 1a aa 	mov	x1, x26
100006078: f6 03 10 aa 	mov	x22, x16
10000607c: ba af 00 94 	bl	0x100031f64 <_writev+0x100031f64>
100006080: f0 03 16 aa 	mov	x16, x22
100006084: 08 7c 40 93 	sxtw	x8, w0
100006088: 1f 00 00 71 	cmp	w0, #0
10000608c: 88 02 88 9a 	csel	x8, x20, x8, eq
100006090: e8 03 28 aa 	mvn	x8, x8
100006094: 73 fe 48 8b 	add	x19, x19, x8, lsr #63
100006098: e8 03 19 aa 	mov	x8, x25
10000609c: df 02 19 eb 	cmp	x22, x25
1000060a0: 01 fe ff 54 	b.ne	0x100006060 <__ZN4core5slice4sort7recurse17he3785d4c3c9fd422E+0x740>
1000060a4: fc 83 02 91 	add	x28, sp, #160
1000060a8: 0e 03 80 52 	mov	w14, #24
1000060ac: f9 1f 40 f9 	ldr	x25, [sp, #56]
1000060b0: ef 17 40 f9 	ldr	x15, [sp, #40]
1000060b4: f1 db 44 a9 	ldp	x17, x22, [sp, #72]
1000060b8: 1f 03 15 eb 	cmp	x24, x21
1000060bc: 21 f7 ff 54 	b.ne	0x100005fa0 <__ZN4core5slice4sort7recurse17he3785d4c3c9fd422E+0x680>
1000060c0: 05 00 00 14 	b	0x1000060d4 <__ZN4core5slice4sort7recurse17he3785d4c3c9fd422E+0x7b4>
1000060c4: f3 83 02 91 	add	x19, sp, #160
1000060c8: fc 83 02 91 	add	x28, sp, #160
1000060cc: 1f 03 15 eb 	cmp	x24, x21
1000060d0: 81 f6 ff 54 	b.ne	0x100005fa0 <__ZN4core5slice4sort7recurse17he3785d4c3c9fd422E+0x680>
1000060d4: 6f 04 00 b4 	cbz	x15, 0x100006160 <__ZN4core5slice4sort7recurse17he3785d4c3c9fd422E+0x840>
1000060d8: f1 db 04 a9 	stp	x17, x22, [sp, #72]
1000060dc: f0 17 00 f9 	str	x16, [sp, #40]
1000060e0: 08 00 80 d2 	mov	x8, #0
1000060e4: 78 63 00 d1 	sub	x24, x27, #24
1000060e8: b5 03 04 d1 	sub	x21, x29, #256
1000060ec: 14 05 00 91 	add	x20, x8, #1
1000060f0: a8 02 00 39 	strb	w8, [x21]
1000060f4: 00 a3 fe a8 	ldp	x0, x8, [x24], #-24
1000060f8: 19 01 17 eb 	subs	x25, x8, x23
1000060fc: 02 31 97 9a 	csel	x2, x8, x23, lo
100006100: e1 03 1a aa 	mov	x1, x26
100006104: f6 03 1a aa 	mov	x22, x26
100006108: fa 03 0f aa 	mov	x26, x15
10000610c: 96 af 00 94 	bl	0x100031f64 <_writev+0x100031f64>
100006110: ef 03 1a aa 	mov	x15, x26
100006114: fa 03 16 aa 	mov	x26, x22
100006118: 08 7c 40 93 	sxtw	x8, w0
10000611c: 1f 00 00 71 	cmp	w0, #0
100006120: 28 03 88 9a 	csel	x8, x25, x8, eq
100006124: b5 fe 48 8b 	add	x21, x21, x8, lsr #63
100006128: e8 03 14 aa 	mov	x8, x20
10000612c: ff 01 14 eb 	cmp	x15, x20
100006130: e1 fd ff 54 	b.ne	0x1000060ec <__ZN4core5slice4sort7recurse17he3785d4c3c9fd422E+0x7cc>
100006134: b8 03 04 d1 	sub	x24, x29, #256
100006138: 0e 03 80 52 	mov	w14, #24
10000613c: f9 1f 40 f9 	ldr	x25, [sp, #56]
100006140: f1 db 44 a9 	ldp	x17, x22, [sp, #72]
100006144: f0 17 40 f9 	ldr	x16, [sp, #40]
100006148: 68 02 1c cb 	sub	x8, x19, x28
10000614c: a9 02 18 cb 	sub	x9, x21, x24
100006150: 1f 01 09 eb 	cmp	x8, x9
100006154: 08 31 89 9a 	csel	x8, x8, x9, lo
100006158: e8 f2 ff b5 	cbnz	x8, 0x100005fb4 <__ZN4core5slice4sort7recurse17he3785d4c3c9fd422E+0x694>
10000615c: 6f ff ff 17 	b	0x100005f18 <__ZN4core5slice4sort7recurse17he3785d4c3c9fd422E+0x5f8>
100006160: b5 03 04 d1 	sub	x21, x29, #256
100006164: b8 03 04 d1 	sub	x24, x29, #256
100006168: 68 02 1c cb 	sub	x8, x19, x28
10000616c: a9 02 18 cb 	sub	x9, x21, x24
100006170: 1f 01 09 eb 	cmp	x8, x9
100006174: 08 31 89 9a 	csel	x8, x8, x9, lo
100006178: e8 f1 ff b5 	cbnz	x8, 0x100005fb4 <__ZN4core5slice4sort7recurse17he3785d4c3c9fd422E+0x694>
10000617c: 67 ff ff 17 	b	0x100005f18 <__ZN4core5slice4sort7recurse17he3785d4c3c9fd422E+0x5f8>
100006180: 9f 03 13 eb 	cmp	x28, x19
100006184: ab 03 04 d1 	sub	x11, x29, #256
100006188: e2 08 00 54 	b.hs	0x1000062a4 <__ZN4core5slice4sort7recurse17he3785d4c3c9fd422E+0x984>
10000618c: 68 fe 5f 38 	ldrb	w8, [x19, #-1]!
100006190: 09 59 0e 9b 	madd	x9, x8, x14, x22
100006194: 68 63 00 d1 	sub	x8, x27, #24
100006198: 20 01 c0 3d 	ldr	q0, [x9]
10000619c: 2a 09 40 f9 	ldr	x10, [x9, #16]
1000061a0: aa 03 19 f8 	stur	x10, [x29, #-112]
1000061a4: 60 21 80 3d 	str	q0, [x11, #128]
1000061a8: 60 83 de 3c 	ldur	q0, [x27, #-24]
1000061ac: 6a 83 5f f8 	ldur	x10, [x27, #-8]
1000061b0: 2a 09 00 f9 	str	x10, [x9, #16]
1000061b4: 20 01 80 3d 	str	q0, [x9]
1000061b8: 60 21 c0 3d 	ldr	q0, [x11, #128]
1000061bc: a9 03 59 f8 	ldur	x9, [x29, #-112]
1000061c0: 69 83 1f f8 	stur	x9, [x27, #-8]
1000061c4: 60 83 9e 3c 	stur	q0, [x27, #-24]
1000061c8: fb 03 08 aa 	mov	x27, x8
1000061cc: 9f 03 13 eb 	cmp	x28, x19
1000061d0: e3 fd ff 54 	b.lo	0x10000618c <__ZN4core5slice4sort7recurse17he3785d4c3c9fd422E+0x86c>
1000061d4: 0a 03 80 52 	mov	w10, #24
1000061d8: e9 d3 40 a9 	ldp	x9, x20, [sp, #8]
1000061dc: 08 01 09 cb 	sub	x8, x8, x9
1000061e0: e9 f3 01 b2 	mov	x9, #-6148914691236517206
1000061e4: 69 55 95 f2 	movk	x9, #43691
1000061e8: 08 7d c9 9b 	umulh	x8, x8, x9
1000061ec: e0 23 c0 3d 	ldr	q0, [sp, #128]
1000061f0: e9 4b 40 f9 	ldr	x9, [sp, #144]
1000061f4: 3a 13 48 8b 	add	x26, x25, x8, lsr #4
1000061f8: 89 0a 00 f9 	str	x9, [x20, #16]
1000061fc: 80 02 80 3d 	str	q0, [x20]
100006200: e1 0f 40 f9 	ldr	x1, [sp, #24]
100006204: 28 00 1a eb 	subs	x8, x1, x26
100006208: e9 0b 00 54 	b.ls	0x100006384 <__ZN4core5slice4sort7recurse17he3785d4c3c9fd422E+0xa64>
10000620c: e9 03 40 f9 	ldr	x9, [sp]
100006210: 3f 01 19 eb 	cmp	x9, x25
100006214: f3 87 9f 1a 	cset	w19, ls
100006218: 5c 53 0a 9b 	madd	x28, x26, x10, x20
10000621c: 80 02 c0 3d 	ldr	q0, [x20]
100006220: 89 0a 40 f9 	ldr	x9, [x20, #16]
100006224: a9 03 11 f8 	stur	x9, [x29, #-240]
100006228: 60 01 80 3d 	str	q0, [x11]
10000622c: 80 03 c0 3d 	ldr	q0, [x28]
100006230: 89 0b 40 f9 	ldr	x9, [x28, #16]
100006234: 89 0a 00 f9 	str	x9, [x20, #16]
100006238: 80 02 80 3d 	str	q0, [x20]
10000623c: 60 01 c0 3d 	ldr	q0, [x11]
100006240: a9 03 51 f8 	ldur	x9, [x29, #-240]
100006244: 89 0b 00 f9 	str	x9, [x28, #16]
100006248: 80 03 80 3d 	str	q0, [x28]
10000624c: 5f 03 08 eb 	cmp	x26, x8
100006250: 49 33 88 9a 	csel	x9, x26, x8, lo
100006254: 3f 0d 41 eb 	cmp	x9, x1, lsr #3
100006258: e9 37 9f 1a 	cset	w9, hs
10000625c: e9 3b 00 b9 	str	w9, [sp, #56]
100006260: 97 63 00 91 	add	x23, x28, #24
100006264: 19 05 00 d1 	sub	x25, x8, #1
100006268: 5f 03 19 eb 	cmp	x26, x25
10000626c: 62 04 00 54 	b.hs	0x1000062f8 <__ZN4core5slice4sort7recurse17he3785d4c3c9fd422E+0x9d8>
100006270: e0 03 14 aa 	mov	x0, x20
100006274: e1 03 1a aa 	mov	x1, x26
100006278: e2 1b 40 f9 	ldr	x2, [sp, #48]
10000627c: e3 13 40 f9 	ldr	x3, [sp, #32]
100006280: e4 47 40 b9 	ldr	w4, [sp, #68]
100006284: a7 fd ff 97 	bl	0x100005920 <__ZN4core5slice4sort7recurse17he3785d4c3c9fd422E>
100006288: fa 03 19 aa 	mov	x26, x25
10000628c: f8 03 17 aa 	mov	x24, x23
100006290: f7 67 01 a9 	stp	x23, x25, [sp, #16]
100006294: 3f 57 00 f1 	cmp	x25, #21
100006298: b6 03 04 d1 	sub	x22, x29, #256
10000629c: e2 be ff 54 	b.hs	0x100005a78 <__ZN4core5slice4sort7recurse17he3785d4c3c9fd422E+0x158>
1000062a0: ae fd ff 17 	b	0x100005958 <__ZN4core5slice4sort7recurse17he3785d4c3c9fd422E+0x38>
1000062a4: e8 03 16 aa 	mov	x8, x22
1000062a8: 1f 03 15 eb 	cmp	x24, x21
1000062ac: 42 f9 ff 54 	b.hs	0x1000061d4 <__ZN4core5slice4sort7recurse17he3785d4c3c9fd422E+0x8b4>
1000062b0: a9 fe 5f 38 	ldrb	w9, [x21, #-1]!
1000062b4: e9 03 29 aa 	mvn	x9, x9
1000062b8: 29 6d 0e 9b 	madd	x9, x9, x14, x27
1000062bc: 00 01 c0 3d 	ldr	q0, [x8]
1000062c0: 0a 09 40 f9 	ldr	x10, [x8, #16]
1000062c4: aa 03 19 f8 	stur	x10, [x29, #-112]
1000062c8: 60 21 80 3d 	str	q0, [x11, #128]
1000062cc: 20 01 c0 3d 	ldr	q0, [x9]
1000062d0: 2a 09 40 f9 	ldr	x10, [x9, #16]
1000062d4: 0a 09 00 f9 	str	x10, [x8, #16]
1000062d8: 00 85 81 3c 	str	q0, [x8], #24
1000062dc: 60 21 c0 3d 	ldr	q0, [x11, #128]
1000062e0: aa 03 59 f8 	ldur	x10, [x29, #-112]
1000062e4: 2a 09 00 f9 	str	x10, [x9, #16]
1000062e8: 20 01 80 3d 	str	q0, [x9]
1000062ec: 1f 03 15 eb 	cmp	x24, x21
1000062f0: 03 fe ff 54 	b.lo	0x1000062b0 <__ZN4core5slice4sort7recurse17he3785d4c3c9fd422E+0x990>
1000062f4: b8 ff ff 17 	b	0x1000061d4 <__ZN4core5slice4sort7recurse17he3785d4c3c9fd422E+0x8b4>
1000062f8: e0 03 17 aa 	mov	x0, x23
1000062fc: e1 03 19 aa 	mov	x1, x25
100006300: e2 1b 40 f9 	ldr	x2, [sp, #48]
100006304: e3 03 1c aa 	mov	x3, x28
100006308: e4 47 40 b9 	ldr	w4, [sp, #68]
10000630c: 85 fd ff 97 	bl	0x100005920 <__ZN4core5slice4sort7recurse17he3785d4c3c9fd422E>
100006310: f8 03 14 aa 	mov	x24, x20
100006314: fc 13 40 f9 	ldr	x28, [sp, #32]
100006318: f4 6b 01 a9 	stp	x20, x26, [sp, #16]
10000631c: 5f 57 00 f1 	cmp	x26, #21
100006320: b6 03 04 d1 	sub	x22, x29, #256
100006324: a2 ba ff 54 	b.hs	0x100005a78 <__ZN4core5slice4sort7recurse17he3785d4c3c9fd422E+0x158>
100006328: 8c fd ff 17 	b	0x100005958 <__ZN4core5slice4sort7recurse17he3785d4c3c9fd422E+0x38>
10000632c: e0 03 18 aa 	mov	x0, x24
100006330: e1 03 19 aa 	mov	x1, x25
100006334: e2 1b 40 f9 	ldr	x2, [sp, #48]
100006338: 73 a8 00 94 	bl	0x100030504 <__ZN4core5slice4sort8heapsort17ha33fc0dfb0fe05abE>
10000633c: ff 43 07 91 	add	sp, sp, #464
100006340: fd 7b 45 a9 	ldp	x29, x30, [sp, #80]
100006344: f4 4f 44 a9 	ldp	x20, x19, [sp, #64]
100006348: f6 57 43 a9 	ldp	x22, x21, [sp, #48]
10000634c: f8 5f 42 a9 	ldp	x24, x23, [sp, #32]
100006350: fa 67 41 a9 	ldp	x26, x25, [sp, #16]
100006354: fc 6f c6 a8 	ldp	x28, x27, [sp], #96
100006358: c0 03 5f d6 	ret
10000635c: e2 0b 1d 10 	adr	x2, #237948
100006360: 1f 20 03 d5 	nop
100006364: e0 03 1a aa 	mov	x0, x26
100006368: e1 03 19 aa 	mov	x1, x25
10000636c: 05 ae 00 94 	bl	0x100031b80 <__ZN4core9panicking18panic_bounds_check17hcd475361ec7b2e52E>
100006370: 02 0f 1d 10 	adr	x2, #238048
100006374: 1f 20 03 d5 	nop
100006378: e0 03 1a aa 	mov	x0, x26
10000637c: e1 03 19 aa 	mov	x1, x25
100006380: 00 ae 00 94 	bl	0x100031b80 <__ZN4core9panicking18panic_bounds_check17hcd475361ec7b2e52E>
100006384: e2 0f 1d 10 	adr	x2, #238076
100006388: 1f 20 03 d5 	nop
10000638c: e0 03 1a aa 	mov	x0, x26
100006390: fc ad 00 94 	bl	0x100031b80 <__ZN4core9panicking18panic_bounds_check17hcd475361ec7b2e52E>
100006394: e2 0d 1d 10 	adr	x2, #238012
100006398: 1f 20 03 d5 	nop
10000639c: 00 00 80 d2 	mov	x0, #0
1000063a0: 01 00 80 d2 	mov	x1, #0
1000063a4: f7 ad 00 94 	bl	0x100031b80 <__ZN4core9panicking18panic_bounds_check17hcd475361ec7b2e52E>
1000063a8: 42 0a 1d 10 	adr	x2, #237896
1000063ac: 1f 20 03 d5 	nop
1000063b0: e1 03 19 aa 	mov	x1, x25
1000063b4: 72 ae 00 94 	bl	0x100031d7c <__ZN4core5slice5index26slice_start_index_len_fail17hb8c5285ad20513d9E>
1000063b8: 82 0d 1d 10 	adr	x2, #238000
1000063bc: 1f 20 03 d5 	nop
1000063c0: e0 03 40 f9 	ldr	x0, [sp]
1000063c4: e1 03 1b aa 	mov	x1, x27
1000063c8: 70 ae 00 94 	bl	0x100031d88 <__ZN4core5slice5index24slice_end_index_len_fail17h315aac587d80b977E>
1000063cc: 06 00 00 14 	b	0x1000063e4 <__ZN4core5slice4sort7recurse17he3785d4c3c9fd422E+0xac4>
1000063d0: c2 0c 1d 10 	adr	x2, #237976
1000063d4: 1f 20 03 d5 	nop
1000063d8: e0 03 19 aa 	mov	x0, x25
1000063dc: e1 03 13 aa 	mov	x1, x19
1000063e0: 6d ae 00 94 	bl	0x100031d94 <__ZN4core5slice5index22slice_index_order_fail17hce7f499093346c93E>
1000063e4: 20 00 20 d4 	brk	#0x1
1000063e8: f4 03 00 aa 	mov	x20, x0
1000063ec: e0 03 02 91 	add	x0, sp, #128
1000063f0: e1 0b 40 f9 	ldr	x1, [sp, #16]
1000063f4: 58 f7 ff 97 	bl	0x100004154 <__ZN4core3ptr88drop_in_place$LT$core..slice..sort..CopyOnDrop$LT$$LP$$RF$$u5b$u8$u5d$$C$u64$RP$$GT$$GT$17hcabf5c41c128e5e8E>
1000063f8: e0 03 14 aa 	mov	x0, x20
1000063fc: 95 ae 00 94 	bl	0x100031e50 <_writev+0x100031e50>

0000000100006400 <__ZN4core5slice4sort8heapsort28_$u7b$$u7b$closure$u7d$$u7d$17hfa333d02e748a94bE>:
100006400: ff c3 01 d1 	sub	sp, sp, #112
100006404: fa 67 02 a9 	stp	x26, x25, [sp, #32]
100006408: f8 5f 03 a9 	stp	x24, x23, [sp, #48]
10000640c: f6 57 04 a9 	stp	x22, x21, [sp, #64]
100006410: f4 4f 05 a9 	stp	x20, x19, [sp, #80]
100006414: fd 7b 06 a9 	stp	x29, x30, [sp, #96]
100006418: fd 83 01 91 	add	x29, sp, #96
10000641c: 38 00 80 52 	mov	w24, #1
100006420: 78 f8 7f b3 	bfi	x24, x3, #1, #63
100006424: 1f 03 02 eb 	cmp	x24, x2
100006428: 82 06 00 54 	b.hs	0x1000064f8 <__ZN4core5slice4sort8heapsort28_$u7b$$u7b$closure$u7d$$u7d$17hfa333d02e748a94bE+0xf8>
10000642c: f5 03 03 aa 	mov	x21, x3
100006430: f3 03 02 aa 	mov	x19, x2
100006434: f4 03 01 aa 	mov	x20, x1
100006438: 68 f8 7f d3 	lsl	x8, x3, #1
10000643c: 17 03 80 52 	mov	w23, #24
100006440: 16 09 00 91 	add	x22, x8, #2
100006444: df 02 13 eb 	cmp	x22, x19
100006448: c2 01 00 54 	b.hs	0x100006480 <__ZN4core5slice4sort8heapsort28_$u7b$$u7b$closure$u7d$$u7d$17hfa333d02e748a94bE+0x80>
10000644c: 09 53 17 9b 	madd	x9, x24, x23, x20
100006450: 08 51 17 9b 	madd	x8, x8, x23, x20
100006454: 20 25 40 a9 	ldp	x0, x9, [x9]
100006458: 01 21 43 a9 	ldp	x1, x8, [x8, #48]
10000645c: 39 01 08 eb 	subs	x25, x9, x8
100006460: 22 31 88 9a 	csel	x2, x9, x8, lo
100006464: c0 ae 00 94 	bl	0x100031f64 <_writev+0x100031f64>
100006468: 08 7c 40 93 	sxtw	x8, w0
10000646c: 1f 00 00 71 	cmp	w0, #0
100006470: 28 03 88 9a 	csel	x8, x25, x8, eq
100006474: 1f 01 00 f1 	cmp	x8, #0
100006478: d6 b2 98 9a 	csel	x22, x22, x24, lt
10000647c: 02 00 00 14 	b	0x100006484 <__ZN4core5slice4sort8heapsort28_$u7b$$u7b$closure$u7d$$u7d$17hfa333d02e748a94bE+0x84>
100006480: f6 03 18 aa 	mov	x22, x24
100006484: bf 02 13 eb 	cmp	x21, x19
100006488: 62 04 00 54 	b.hs	0x100006514 <__ZN4core5slice4sort8heapsort28_$u7b$$u7b$closure$u7d$$u7d$17hfa333d02e748a94bE+0x114>
10000648c: df 02 13 eb 	cmp	x22, x19
100006490: c2 04 00 54 	b.hs	0x100006528 <__ZN4core5slice4sort8heapsort28_$u7b$$u7b$closure$u7d$$u7d$17hfa333d02e748a94bE+0x128>
100006494: b8 52 17 9b 	madd	x24, x21, x23, x20
100006498: d5 52 17 9b 	madd	x21, x22, x23, x20
10000649c: 00 23 40 a9 	ldp	x0, x8, [x24]
1000064a0: a1 26 40 a9 	ldp	x1, x9, [x21]
1000064a4: 19 01 09 eb 	subs	x25, x8, x9
1000064a8: 02 31 89 9a 	csel	x2, x8, x9, lo
1000064ac: ae ae 00 94 	bl	0x100031f64 <_writev+0x100031f64>
1000064b0: 08 7c 40 93 	sxtw	x8, w0
1000064b4: 1f 00 00 71 	cmp	w0, #0
1000064b8: 28 03 88 9a 	csel	x8, x25, x8, eq
1000064bc: e8 01 f8 b6 	tbz	x8, #63, 0x1000064f8 <__ZN4core5slice4sort8heapsort28_$u7b$$u7b$closure$u7d$$u7d$17hfa333d02e748a94bE+0xf8>
1000064c0: 08 0b 40 f9 	ldr	x8, [x24, #16]
1000064c4: 00 03 c0 3d 	ldr	q0, [x24]
1000064c8: a9 0a 40 f9 	ldr	x9, [x21, #16]
1000064cc: a1 02 c0 3d 	ldr	q1, [x21]
1000064d0: 01 03 80 3d 	str	q1, [x24]
1000064d4: 09 0b 00 f9 	str	x9, [x24, #16]
1000064d8: a0 02 80 3d 	str	q0, [x21]
1000064dc: a8 0a 00 f9 	str	x8, [x21, #16]
1000064e0: c8 fa 7f d3 	lsl	x8, x22, #1
1000064e4: 38 00 80 52 	mov	w24, #1
1000064e8: d8 fa 7f b3 	bfi	x24, x22, #1, #63
1000064ec: f5 03 16 aa 	mov	x21, x22
1000064f0: 1f 03 13 eb 	cmp	x24, x19
1000064f4: 63 fa ff 54 	b.lo	0x100006440 <__ZN4core5slice4sort8heapsort28_$u7b$$u7b$closure$u7d$$u7d$17hfa333d02e748a94bE+0x40>
1000064f8: fd 7b 46 a9 	ldp	x29, x30, [sp, #96]
1000064fc: f4 4f 45 a9 	ldp	x20, x19, [sp, #80]
100006500: f6 57 44 a9 	ldp	x22, x21, [sp, #64]
100006504: f8 5f 43 a9 	ldp	x24, x23, [sp, #48]
100006508: fa 67 42 a9 	ldp	x26, x25, [sp, #32]
10000650c: ff c3 01 91 	add	sp, sp, #112
100006510: c0 03 5f d6 	ret
100006514: 62 00 1d 10 	adr	x2, #237580
100006518: 1f 20 03 d5 	nop
10000651c: e0 03 15 aa 	mov	x0, x21
100006520: e1 03 13 aa 	mov	x1, x19
100006524: 97 ad 00 94 	bl	0x100031b80 <__ZN4core9panicking18panic_bounds_check17hcd475361ec7b2e52E>
100006528: 82 00 1d 10 	adr	x2, #237584
10000652c: 1f 20 03 d5 	nop
100006530: e0 03 16 aa 	mov	x0, x22
100006534: e1 03 13 aa 	mov	x1, x19
100006538: 92 ad 00 94 	bl	0x100031b80 <__ZN4core9panicking18panic_bounds_check17hcd475361ec7b2e52E>

000000010000653c <__ZN50_$LT$$BP$mut$u20$T$u20$as$u20$core..fmt..Debug$GT$3fmt17hdaf9786fa5217cb8E>:
10000653c: 00 00 40 f9 	ldr	x0, [x0]
100006540: f6 98 00 14 	b	0x10002c918 <__ZN4core3fmt17pointer_fmt_inner17h954f01253319f01aE>

0000000100006544 <__ZN50_$LT$$RF$mut$u20$W$u20$as$u20$core..fmt..Write$GT$10write_char17h3d0d3c1b4fec4b56E>:
100006544: ff 03 01 d1 	sub	sp, sp, #64
100006548: f6 57 01 a9 	stp	x22, x21, [sp, #16]
10000654c: f4 4f 02 a9 	stp	x20, x19, [sp, #32]
100006550: fd 7b 03 a9 	stp	x29, x30, [sp, #48]
100006554: fd c3 00 91 	add	x29, sp, #48
100006558: f4 03 01 aa 	mov	x20, x1
10000655c: 13 00 40 f9 	ldr	x19, [x0]
100006560: 3f 00 02 71 	cmp	w1, #128
100006564: 82 01 00 54 	b.hs	0x100006594 <__ZN50_$LT$$RF$mut$u20$W$u20$as$u20$core..fmt..Write$GT$10write_char17h3d0d3c1b4fec4b56E+0x50>
100006568: 61 0a 40 f9 	ldr	x1, [x19, #16]
10000656c: 68 02 40 f9 	ldr	x8, [x19]
100006570: 3f 00 08 eb 	cmp	x1, x8
100006574: 81 00 00 54 	b.ne	0x100006584 <__ZN50_$LT$$RF$mut$u20$W$u20$as$u20$core..fmt..Write$GT$10write_char17h3d0d3c1b4fec4b56E+0x40>
100006578: e0 03 13 aa 	mov	x0, x19
10000657c: 01 05 00 94 	bl	0x100007980 <__ZN5alloc7raw_vec19RawVec$LT$T$C$A$GT$16reserve_for_push17hba24b4f46fe5439bE>
100006580: 61 0a 40 f9 	ldr	x1, [x19, #16]
100006584: 68 06 40 f9 	ldr	x8, [x19, #8]
100006588: 14 69 21 38 	strb	w20, [x8, x1]
10000658c: 28 04 00 91 	add	x8, x1, #1
100006590: 31 00 00 14 	b	0x100006654 <__ZN50_$LT$$RF$mut$u20$W$u20$as$u20$core..fmt..Write$GT$10write_char17h3d0d3c1b4fec4b56E+0x110>
100006594: ff 0f 00 b9 	str	wzr, [sp, #12]
100006598: 9f 02 20 71 	cmp	w20, #2048
10000659c: 22 01 00 54 	b.hs	0x1000065c0 <__ZN50_$LT$$RF$mut$u20$W$u20$as$u20$core..fmt..Write$GT$10write_char17h3d0d3c1b4fec4b56E+0x7c>
1000065a0: 88 7e 06 53 	lsr	w8, w20, #6
1000065a4: 08 05 1a 32 	orr	w8, w8, #0xc0
1000065a8: e8 33 00 39 	strb	w8, [sp, #12]
1000065ac: 08 10 80 52 	mov	w8, #128
1000065b0: 88 16 00 33 	bfxil	w8, w20, #0, #6
1000065b4: e8 37 00 39 	strb	w8, [sp, #13]
1000065b8: 54 00 80 52 	mov	w20, #2
1000065bc: 1b 00 00 14 	b	0x100006628 <__ZN50_$LT$$RF$mut$u20$W$u20$as$u20$core..fmt..Write$GT$10write_char17h3d0d3c1b4fec4b56E+0xe4>
1000065c0: 9f 42 40 71 	cmp	w20, #16, lsl #12       ; =65536
1000065c4: 82 01 00 54 	b.hs	0x1000065f4 <__ZN50_$LT$$RF$mut$u20$W$u20$as$u20$core..fmt..Write$GT$10write_char17h3d0d3c1b4fec4b56E+0xb0>
1000065c8: 88 7e 0c 53 	lsr	w8, w20, #12
1000065cc: 08 09 1b 32 	orr	w8, w8, #0xe0
1000065d0: e8 33 00 39 	strb	w8, [sp, #12]
1000065d4: 08 10 80 52 	mov	w8, #128
1000065d8: 09 10 80 52 	mov	w9, #128
1000065dc: 89 2e 06 33 	bfxil	w9, w20, #6, #6
1000065e0: e9 37 00 39 	strb	w9, [sp, #13]
1000065e4: 88 16 00 33 	bfxil	w8, w20, #0, #6
1000065e8: e8 3b 00 39 	strb	w8, [sp, #14]
1000065ec: 74 00 80 52 	mov	w20, #3
1000065f0: 0e 00 00 14 	b	0x100006628 <__ZN50_$LT$$RF$mut$u20$W$u20$as$u20$core..fmt..Write$GT$10write_char17h3d0d3c1b4fec4b56E+0xe4>
1000065f4: 08 1e 80 52 	mov	w8, #240
1000065f8: 88 52 12 33 	bfxil	w8, w20, #18, #3
1000065fc: e8 33 00 39 	strb	w8, [sp, #12]
100006600: 08 10 80 52 	mov	w8, #128
100006604: 09 10 80 52 	mov	w9, #128
100006608: 89 46 0c 33 	bfxil	w9, w20, #12, #6
10000660c: e9 37 00 39 	strb	w9, [sp, #13]
100006610: 09 10 80 52 	mov	w9, #128
100006614: 89 2e 06 33 	bfxil	w9, w20, #6, #6
100006618: e9 3b 00 39 	strb	w9, [sp, #14]
10000661c: 88 16 00 33 	bfxil	w8, w20, #0, #6
100006620: e8 3f 00 39 	strb	w8, [sp, #15]
100006624: 94 00 80 52 	mov	w20, #4
100006628: 75 0a 40 f9 	ldr	x21, [x19, #16]
10000662c: 68 02 40 f9 	ldr	x8, [x19]
100006630: 08 01 15 cb 	sub	x8, x8, x21
100006634: 1f 01 14 eb 	cmp	x8, x20
100006638: c3 01 00 54 	b.lo	0x100006670 <__ZN50_$LT$$RF$mut$u20$W$u20$as$u20$core..fmt..Write$GT$10write_char17h3d0d3c1b4fec4b56E+0x12c>
10000663c: 68 06 40 f9 	ldr	x8, [x19, #8]
100006640: 00 01 15 8b 	add	x0, x8, x21
100006644: e1 33 00 91 	add	x1, sp, #12
100006648: e2 03 14 aa 	mov	x2, x20
10000664c: 49 ae 00 94 	bl	0x100031f70 <_writev+0x100031f70>
100006650: a8 02 14 8b 	add	x8, x21, x20
100006654: 68 0a 00 f9 	str	x8, [x19, #16]
100006658: 00 00 80 52 	mov	w0, #0
10000665c: fd 7b 43 a9 	ldp	x29, x30, [sp, #48]
100006660: f4 4f 42 a9 	ldp	x20, x19, [sp, #32]
100006664: f6 57 41 a9 	ldp	x22, x21, [sp, #16]
100006668: ff 03 01 91 	add	sp, sp, #64
10000666c: c0 03 5f d6 	ret
100006670: e0 03 13 aa 	mov	x0, x19
100006674: e1 03 15 aa 	mov	x1, x21
100006678: e2 03 14 aa 	mov	x2, x20
10000667c: 2a a9 00 94 	bl	0x100030b24 <__ZN5alloc7raw_vec19RawVec$LT$T$C$A$GT$7reserve21do_reserve_and_handle17hb07ee189e9de6e47E>
100006680: 75 0a 40 f9 	ldr	x21, [x19, #16]
100006684: ee ff ff 17 	b	0x10000663c <__ZN50_$LT$$RF$mut$u20$W$u20$as$u20$core..fmt..Write$GT$10write_char17h3d0d3c1b4fec4b56E+0xf8>

0000000100006688 <__ZN50_$LT$$RF$mut$u20$W$u20$as$u20$core..fmt..Write$GT$10write_char17h5d29485b0fe8347fE>:
100006688: ff 83 00 d1 	sub	sp, sp, #32
10000668c: fd 7b 01 a9 	stp	x29, x30, [sp, #16]
100006690: fd 43 00 91 	add	x29, sp, #16
100006694: 00 00 40 f9 	ldr	x0, [x0]
100006698: bf c3 1f b8 	stur	wzr, [x29, #-4]
10000669c: 3f 00 02 71 	cmp	w1, #128
1000066a0: 82 00 00 54 	b.hs	0x1000066b0 <__ZN50_$LT$$RF$mut$u20$W$u20$as$u20$core..fmt..Write$GT$10write_char17h5d29485b0fe8347fE+0x28>
1000066a4: a1 c3 1f 38 	sturb	w1, [x29, #-4]
1000066a8: 22 00 80 52 	mov	w2, #1
1000066ac: 25 00 00 14 	b	0x100006740 <__ZN50_$LT$$RF$mut$u20$W$u20$as$u20$core..fmt..Write$GT$10write_char17h5d29485b0fe8347fE+0xb8>
1000066b0: 3f 00 20 71 	cmp	w1, #2048
1000066b4: 22 01 00 54 	b.hs	0x1000066d8 <__ZN50_$LT$$RF$mut$u20$W$u20$as$u20$core..fmt..Write$GT$10write_char17h5d29485b0fe8347fE+0x50>
1000066b8: 28 7c 06 53 	lsr	w8, w1, #6
1000066bc: 08 05 1a 32 	orr	w8, w8, #0xc0
1000066c0: a8 c3 1f 38 	sturb	w8, [x29, #-4]
1000066c4: 08 10 80 52 	mov	w8, #128
1000066c8: 28 14 00 33 	bfxil	w8, w1, #0, #6
1000066cc: a8 d3 1f 38 	sturb	w8, [x29, #-3]
1000066d0: 42 00 80 52 	mov	w2, #2
1000066d4: 1b 00 00 14 	b	0x100006740 <__ZN50_$LT$$RF$mut$u20$W$u20$as$u20$core..fmt..Write$GT$10write_char17h5d29485b0fe8347fE+0xb8>
1000066d8: 3f 40 40 71 	cmp	w1, #16, lsl #12        ; =65536
1000066dc: 82 01 00 54 	b.hs	0x10000670c <__ZN50_$LT$$RF$mut$u20$W$u20$as$u20$core..fmt..Write$GT$10write_char17h5d29485b0fe8347fE+0x84>
1000066e0: 28 7c 0c 53 	lsr	w8, w1, #12
1000066e4: 08 09 1b 32 	orr	w8, w8, #0xe0
1000066e8: a8 c3 1f 38 	sturb	w8, [x29, #-4]
1000066ec: 08 10 80 52 	mov	w8, #128
1000066f0: 09 10 80 52 	mov	w9, #128
1000066f4: 29 2c 06 33 	bfxil	w9, w1, #6, #6
1000066f8: a9 d3 1f 38 	sturb	w9, [x29, #-3]
1000066fc: 28 14 00 33 	bfxil	w8, w1, #0, #6
100006700: a8 e3 1f 38 	sturb	w8, [x29, #-2]
100006704: 62 00 80 52 	mov	w2, #3
100006708: 0e 00 00 14 	b	0x100006740 <__ZN50_$LT$$RF$mut$u20$W$u20$as$u20$core..fmt..Write$GT$10write_char17h5d29485b0fe8347fE+0xb8>
10000670c: 08 1e 80 52 	mov	w8, #240
100006710: 28 50 12 33 	bfxil	w8, w1, #18, #3
100006714: a8 c3 1f 38 	sturb	w8, [x29, #-4]
100006718: 08 10 80 52 	mov	w8, #128
10000671c: 09 10 80 52 	mov	w9, #128
100006720: 29 44 0c 33 	bfxil	w9, w1, #12, #6
100006724: a9 d3 1f 38 	sturb	w9, [x29, #-3]
100006728: 09 10 80 52 	mov	w9, #128
10000672c: 29 2c 06 33 	bfxil	w9, w1, #6, #6
100006730: a9 e3 1f 38 	sturb	w9, [x29, #-2]
100006734: 28 14 00 33 	bfxil	w8, w1, #0, #6
100006738: a8 f3 1f 38 	sturb	w8, [x29, #-1]
10000673c: 82 00 80 52 	mov	w2, #4
100006740: a1 13 00 d1 	sub	x1, x29, #4
100006744: ca 45 00 94 	bl	0x100017e6c <__ZN80_$LT$std..io..Write..write_fmt..Adapter$LT$T$GT$$u20$as$u20$core..fmt..Write$GT$9write_str17hd01c4300791cc948E>
100006748: fd 7b 41 a9 	ldp	x29, x30, [sp, #16]
10000674c: ff 83 00 91 	add	sp, sp, #32
100006750: c0 03 5f d6 	ret

0000000100006754 <__ZN50_$LT$$RF$mut$u20$W$u20$as$u20$core..fmt..Write$GT$10write_char17h9d7702b39a875344E>:
100006754: fd 7b bf a9 	stp	x29, x30, [sp, #-16]!
100006758: fd 03 00 91 	mov	x29, sp
10000675c: 00 00 40 f9 	ldr	x0, [x0]
100006760: 42 ef ff 97 	bl	0x100002468 <__ZN4core3fmt5Write10write_char17h855b479caea4b42eE>
100006764: 00 00 80 52 	mov	w0, #0
100006768: fd 7b c1 a8 	ldp	x29, x30, [sp], #16
10000676c: c0 03 5f d6 	ret

0000000100006770 <__ZN50_$LT$$RF$mut$u20$W$u20$as$u20$core..fmt..Write$GT$10write_char17hbb75717cbe0e71a5E>:
100006770: ff 83 00 d1 	sub	sp, sp, #32
100006774: fd 7b 01 a9 	stp	x29, x30, [sp, #16]
100006778: fd 43 00 91 	add	x29, sp, #16
10000677c: 00 00 40 f9 	ldr	x0, [x0]
100006780: bf c3 1f b8 	stur	wzr, [x29, #-4]
100006784: 3f 00 02 71 	cmp	w1, #128
100006788: 82 00 00 54 	b.hs	0x100006798 <__ZN50_$LT$$RF$mut$u20$W$u20$as$u20$core..fmt..Write$GT$10write_char17hbb75717cbe0e71a5E+0x28>
10000678c: a1 c3 1f 38 	sturb	w1, [x29, #-4]
100006790: 22 00 80 52 	mov	w2, #1
100006794: 25 00 00 14 	b	0x100006828 <__ZN50_$LT$$RF$mut$u20$W$u20$as$u20$core..fmt..Write$GT$10write_char17hbb75717cbe0e71a5E+0xb8>
100006798: 3f 00 20 71 	cmp	w1, #2048
10000679c: 22 01 00 54 	b.hs	0x1000067c0 <__ZN50_$LT$$RF$mut$u20$W$u20$as$u20$core..fmt..Write$GT$10write_char17hbb75717cbe0e71a5E+0x50>
1000067a0: 28 7c 06 53 	lsr	w8, w1, #6
1000067a4: 08 05 1a 32 	orr	w8, w8, #0xc0
1000067a8: a8 c3 1f 38 	sturb	w8, [x29, #-4]
1000067ac: 08 10 80 52 	mov	w8, #128
1000067b0: 28 14 00 33 	bfxil	w8, w1, #0, #6
1000067b4: a8 d3 1f 38 	sturb	w8, [x29, #-3]
1000067b8: 42 00 80 52 	mov	w2, #2
1000067bc: 1b 00 00 14 	b	0x100006828 <__ZN50_$LT$$RF$mut$u20$W$u20$as$u20$core..fmt..Write$GT$10write_char17hbb75717cbe0e71a5E+0xb8>
1000067c0: 3f 40 40 71 	cmp	w1, #16, lsl #12        ; =65536
1000067c4: 82 01 00 54 	b.hs	0x1000067f4 <__ZN50_$LT$$RF$mut$u20$W$u20$as$u20$core..fmt..Write$GT$10write_char17hbb75717cbe0e71a5E+0x84>
1000067c8: 28 7c 0c 53 	lsr	w8, w1, #12
1000067cc: 08 09 1b 32 	orr	w8, w8, #0xe0
1000067d0: a8 c3 1f 38 	sturb	w8, [x29, #-4]
1000067d4: 08 10 80 52 	mov	w8, #128
1000067d8: 09 10 80 52 	mov	w9, #128
1000067dc: 29 2c 06 33 	bfxil	w9, w1, #6, #6
1000067e0: a9 d3 1f 38 	sturb	w9, [x29, #-3]
1000067e4: 28 14 00 33 	bfxil	w8, w1, #0, #6
1000067e8: a8 e3 1f 38 	sturb	w8, [x29, #-2]
1000067ec: 62 00 80 52 	mov	w2, #3
1000067f0: 0e 00 00 14 	b	0x100006828 <__ZN50_$LT$$RF$mut$u20$W$u20$as$u20$core..fmt..Write$GT$10write_char17hbb75717cbe0e71a5E+0xb8>
1000067f4: 08 1e 80 52 	mov	w8, #240
1000067f8: 28 50 12 33 	bfxil	w8, w1, #18, #3
1000067fc: a8 c3 1f 38 	sturb	w8, [x29, #-4]
100006800: 08 10 80 52 	mov	w8, #128
100006804: 09 10 80 52 	mov	w9, #128
100006808: 29 44 0c 33 	bfxil	w9, w1, #12, #6
10000680c: a9 d3 1f 38 	sturb	w9, [x29, #-3]
100006810: 09 10 80 52 	mov	w9, #128
100006814: 29 2c 06 33 	bfxil	w9, w1, #6, #6
100006818: a9 e3 1f 38 	sturb	w9, [x29, #-2]
10000681c: 28 14 00 33 	bfxil	w8, w1, #0, #6
100006820: a8 f3 1f 38 	sturb	w8, [x29, #-1]
100006824: 82 00 80 52 	mov	w2, #4
100006828: a1 13 00 d1 	sub	x1, x29, #4
10000682c: 61 45 00 94 	bl	0x100017db0 <__ZN80_$LT$std..io..Write..write_fmt..Adapter$LT$T$GT$$u20$as$u20$core..fmt..Write$GT$9write_str17h86ae27ce2c3ce074E>
100006830: fd 7b 41 a9 	ldp	x29, x30, [sp, #16]
100006834: ff 83 00 91 	add	sp, sp, #32
100006838: c0 03 5f d6 	ret

000000010000683c <__ZN50_$LT$$RF$mut$u20$W$u20$as$u20$core..fmt..Write$GT$9write_fmt17h0de61236bf2de40dE>:
10000683c: ff 43 01 d1 	sub	sp, sp, #80
100006840: fd 7b 04 a9 	stp	x29, x30, [sp, #64]
100006844: fd 03 01 91 	add	x29, sp, #64
100006848: 08 00 40 f9 	ldr	x8, [x0]
10000684c: e8 07 00 f9 	str	x8, [sp, #8]
100006850: 20 04 40 ad 	ldp	q0, q1, [x1]
100006854: e0 87 00 ad 	stp	q0, q1, [sp, #16]
100006858: 20 08 c0 3d 	ldr	q0, [x1, #32]
10000685c: e0 0f 80 3d 	str	q0, [sp, #48]
100006860: 81 d8 1c 10 	adr	x1, #236304
100006864: 1f 20 03 d5 	nop
100006868: e0 23 00 91 	add	x0, sp, #8
10000686c: e2 43 00 91 	add	x2, sp, #16
100006870: 5b 92 00 94 	bl	0x10002b1dc <__ZN4core3fmt5write17hb60cc483d75d6594E>
100006874: fd 7b 44 a9 	ldp	x29, x30, [sp, #64]
100006878: ff 43 01 91 	add	sp, sp, #80
10000687c: c0 03 5f d6 	ret

0000000100006880 <__ZN50_$LT$$RF$mut$u20$W$u20$as$u20$core..fmt..Write$GT$9write_fmt17hac32147ae6410544E>:
100006880: ff 43 01 d1 	sub	sp, sp, #80
100006884: fd 7b 04 a9 	stp	x29, x30, [sp, #64]
100006888: fd 03 01 91 	add	x29, sp, #64
10000688c: 08 00 40 f9 	ldr	x8, [x0]
100006890: e8 07 00 f9 	str	x8, [sp, #8]
100006894: 20 04 40 ad 	ldp	q0, q1, [x1]
100006898: e0 87 00 ad 	stp	q0, q1, [sp, #16]
10000689c: 20 08 c0 3d 	ldr	q0, [x1, #32]
1000068a0: e0 0f 80 3d 	str	q0, [sp, #48]
1000068a4: e1 d4 1c 10 	adr	x1, #236188
1000068a8: 1f 20 03 d5 	nop
1000068ac: e0 23 00 91 	add	x0, sp, #8
1000068b0: e2 43 00 91 	add	x2, sp, #16
1000068b4: 4a 92 00 94 	bl	0x10002b1dc <__ZN4core3fmt5write17hb60cc483d75d6594E>
1000068b8: fd 7b 44 a9 	ldp	x29, x30, [sp, #64]
1000068bc: ff 43 01 91 	add	sp, sp, #80
1000068c0: c0 03 5f d6 	ret

00000001000068c4 <__ZN50_$LT$$RF$mut$u20$W$u20$as$u20$core..fmt..Write$GT$9write_fmt17hb4fcabb099693f2eE>:
1000068c4: ff 43 01 d1 	sub	sp, sp, #80
1000068c8: fd 7b 04 a9 	stp	x29, x30, [sp, #64]
1000068cc: fd 03 01 91 	add	x29, sp, #64
1000068d0: 08 00 40 f9 	ldr	x8, [x0]
1000068d4: e8 07 00 f9 	str	x8, [sp, #8]
1000068d8: 20 04 40 ad 	ldp	q0, q1, [x1]
1000068dc: e0 87 00 ad 	stp	q0, q1, [sp, #16]
1000068e0: 20 08 c0 3d 	ldr	q0, [x1, #32]
1000068e4: e0 0f 80 3d 	str	q0, [sp, #48]
1000068e8: 41 d7 1c 10 	adr	x1, #236264
1000068ec: 1f 20 03 d5 	nop
1000068f0: e0 23 00 91 	add	x0, sp, #8
1000068f4: e2 43 00 91 	add	x2, sp, #16
1000068f8: 39 92 00 94 	bl	0x10002b1dc <__ZN4core3fmt5write17hb60cc483d75d6594E>
1000068fc: fd 7b 44 a9 	ldp	x29, x30, [sp, #64]
100006900: ff 43 01 91 	add	sp, sp, #80
100006904: c0 03 5f d6 	ret

0000000100006908 <__ZN50_$LT$$RF$mut$u20$W$u20$as$u20$core..fmt..Write$GT$9write_fmt17hfcf36d9c089cac8bE>:
100006908: ff 43 01 d1 	sub	sp, sp, #80
10000690c: fd 7b 04 a9 	stp	x29, x30, [sp, #64]
100006910: fd 03 01 91 	add	x29, sp, #64
100006914: 08 00 40 f9 	ldr	x8, [x0]
100006918: e8 07 00 f9 	str	x8, [sp, #8]
10000691c: 20 04 40 ad 	ldp	q0, q1, [x1]
100006920: e0 87 00 ad 	stp	q0, q1, [sp, #16]
100006924: 20 08 c0 3d 	ldr	q0, [x1, #32]
100006928: e0 0f 80 3d 	str	q0, [sp, #48]
10000692c: a1 d3 1c 10 	adr	x1, #236148
100006930: 1f 20 03 d5 	nop
100006934: e0 23 00 91 	add	x0, sp, #8
100006938: e2 43 00 91 	add	x2, sp, #16
10000693c: 28 92 00 94 	bl	0x10002b1dc <__ZN4core3fmt5write17hb60cc483d75d6594E>
100006940: fd 7b 44 a9 	ldp	x29, x30, [sp, #64]
100006944: ff 43 01 91 	add	sp, sp, #80
100006948: c0 03 5f d6 	ret

000000010000694c <__ZN50_$LT$$RF$mut$u20$W$u20$as$u20$core..fmt..Write$GT$9write_str17h31271f73b05eb2fbE>:
10000694c: f6 57 bd a9 	stp	x22, x21, [sp, #-48]!
100006950: f4 4f 01 a9 	stp	x20, x19, [sp, #16]
100006954: fd 7b 02 a9 	stp	x29, x30, [sp, #32]
100006958: fd 83 00 91 	add	x29, sp, #32
10000695c: f3 03 02 aa 	mov	x19, x2
100006960: f5 03 01 aa 	mov	x21, x1
100006964: 08 00 40 f9 	ldr	x8, [x0]
100006968: 14 05 40 f9 	ldr	x20, [x8, #8]
10000696c: 96 0a 40 f9 	ldr	x22, [x20, #16]
100006970: 88 02 40 f9 	ldr	x8, [x20]
100006974: 08 01 16 cb 	sub	x8, x8, x22
100006978: 1f 01 02 eb 	cmp	x8, x2
10000697c: a3 01 00 54 	b.lo	0x1000069b0 <__ZN50_$LT$$RF$mut$u20$W$u20$as$u20$core..fmt..Write$GT$9write_str17h31271f73b05eb2fbE+0x64>
100006980: 88 06 40 f9 	ldr	x8, [x20, #8]
100006984: 00 01 16 8b 	add	x0, x8, x22
100006988: e1 03 15 aa 	mov	x1, x21
10000698c: e2 03 13 aa 	mov	x2, x19
100006990: 78 ad 00 94 	bl	0x100031f70 <_writev+0x100031f70>
100006994: c8 02 13 8b 	add	x8, x22, x19
100006998: 88 0a 00 f9 	str	x8, [x20, #16]
10000699c: 00 00 80 52 	mov	w0, #0
1000069a0: fd 7b 42 a9 	ldp	x29, x30, [sp, #32]
1000069a4: f4 4f 41 a9 	ldp	x20, x19, [sp, #16]
1000069a8: f6 57 c3 a8 	ldp	x22, x21, [sp], #48
1000069ac: c0 03 5f d6 	ret
1000069b0: e0 03 14 aa 	mov	x0, x20
1000069b4: e1 03 16 aa 	mov	x1, x22
1000069b8: e2 03 13 aa 	mov	x2, x19
1000069bc: 5a a8 00 94 	bl	0x100030b24 <__ZN5alloc7raw_vec19RawVec$LT$T$C$A$GT$7reserve21do_reserve_and_handle17hb07ee189e9de6e47E>
1000069c0: 96 0a 40 f9 	ldr	x22, [x20, #16]
1000069c4: ef ff ff 17 	b	0x100006980 <__ZN50_$LT$$RF$mut$u20$W$u20$as$u20$core..fmt..Write$GT$9write_str17h31271f73b05eb2fbE+0x34>

00000001000069c8 <__ZN50_$LT$$RF$mut$u20$W$u20$as$u20$core..fmt..Write$GT$9write_str17h6d02ddb63e200e77E>:
1000069c8: 00 00 40 f9 	ldr	x0, [x0]
1000069cc: f9 44 00 14 	b	0x100017db0 <__ZN80_$LT$std..io..Write..write_fmt..Adapter$LT$T$GT$$u20$as$u20$core..fmt..Write$GT$9write_str17h86ae27ce2c3ce074E>

00000001000069d0 <__ZN50_$LT$$RF$mut$u20$W$u20$as$u20$core..fmt..Write$GT$9write_str17h6fcfba8f64839b83E>:
1000069d0: 00 00 40 f9 	ldr	x0, [x0]
1000069d4: 26 45 00 14 	b	0x100017e6c <__ZN80_$LT$std..io..Write..write_fmt..Adapter$LT$T$GT$$u20$as$u20$core..fmt..Write$GT$9write_str17hd01c4300791cc948E>

00000001000069d8 <__ZN50_$LT$$RF$mut$u20$W$u20$as$u20$core..fmt..Write$GT$9write_str17heabd73f5f238cf2fE>:
1000069d8: f6 57 bd a9 	stp	x22, x21, [sp, #-48]!
1000069dc: f4 4f 01 a9 	stp	x20, x19, [sp, #16]
1000069e0: fd 7b 02 a9 	stp	x29, x30, [sp, #32]
1000069e4: fd 83 00 91 	add	x29, sp, #32
1000069e8: f3 03 02 aa 	mov	x19, x2
1000069ec: f5 03 01 aa 	mov	x21, x1
1000069f0: 14 00 40 f9 	ldr	x20, [x0]
1000069f4: 96 0a 40 f9 	ldr	x22, [x20, #16]
1000069f8: 88 02 40 f9 	ldr	x8, [x20]
1000069fc: 08 01 16 cb 	sub	x8, x8, x22
100006a00: 1f 01 02 eb 	cmp	x8, x2
100006a04: a3 01 00 54 	b.lo	0x100006a38 <__ZN50_$LT$$RF$mut$u20$W$u20$as$u20$core..fmt..Write$GT$9write_str17heabd73f5f238cf2fE+0x60>
100006a08: 88 06 40 f9 	ldr	x8, [x20, #8]
100006a0c: 00 01 16 8b 	add	x0, x8, x22
100006a10: e1 03 15 aa 	mov	x1, x21
100006a14: e2 03 13 aa 	mov	x2, x19
100006a18: 56 ad 00 94 	bl	0x100031f70 <_writev+0x100031f70>
100006a1c: c8 02 13 8b 	add	x8, x22, x19
100006a20: 88 0a 00 f9 	str	x8, [x20, #16]
100006a24: 00 00 80 52 	mov	w0, #0
100006a28: fd 7b 42 a9 	ldp	x29, x30, [sp, #32]
100006a2c: f4 4f 41 a9 	ldp	x20, x19, [sp, #16]
100006a30: f6 57 c3 a8 	ldp	x22, x21, [sp], #48
100006a34: c0 03 5f d6 	ret
100006a38: e0 03 14 aa 	mov	x0, x20
100006a3c: e1 03 16 aa 	mov	x1, x22
100006a40: e2 03 13 aa 	mov	x2, x19
100006a44: 38 a8 00 94 	bl	0x100030b24 <__ZN5alloc7raw_vec19RawVec$LT$T$C$A$GT$7reserve21do_reserve_and_handle17hb07ee189e9de6e47E>
100006a48: 96 0a 40 f9 	ldr	x22, [x20, #16]
100006a4c: ef ff ff 17 	b	0x100006a08 <__ZN50_$LT$$RF$mut$u20$W$u20$as$u20$core..fmt..Write$GT$9write_str17heabd73f5f238cf2fE+0x30>

0000000100006a50 <__ZN55_$LT$$RF$str$u20$as$u20$core..str..pattern..Pattern$GT$15is_contained_in17h975271349cee59ddE>:
100006a50: ff 43 02 d1 	sub	sp, sp, #144
100006a54: f4 4f 07 a9 	stp	x20, x19, [sp, #112]
100006a58: fd 7b 08 a9 	stp	x29, x30, [sp, #128]
100006a5c: fd 03 02 91 	add	x29, sp, #128
100006a60: ea 03 01 aa 	mov	x10, x1
100006a64: e9 03 00 aa 	mov	x9, x0
100006a68: 3f 00 03 eb 	cmp	x1, x3
100006a6c: 02 03 00 54 	b.hs	0x100006acc <__ZN55_$LT$$RF$str$u20$as$u20$core..str..pattern..Pattern$GT$15is_contained_in17h975271349cee59ddE+0x7c>
100006a70: e8 23 00 91 	add	x8, sp, #8
100006a74: e0 03 02 aa 	mov	x0, x2
100006a78: e1 03 03 aa 	mov	x1, x3
100006a7c: e2 03 09 aa 	mov	x2, x9
100006a80: e3 03 0a aa 	mov	x3, x10
100006a84: 5d 9b 00 94 	bl	0x10002d7f8 <__ZN4core3str7pattern11StrSearcher3new17hb10414211b4bf5e8E>
100006a88: e8 17 40 f9 	ldr	x8, [sp, #40]
100006a8c: c8 08 00 b4 	cbz	x8, 0x100006ba4 <__ZN55_$LT$$RF$str$u20$as$u20$core..str..pattern..Pattern$GT$15is_contained_in17h975271349cee59ddE+0x154>
100006a90: ec 33 40 f9 	ldr	x12, [sp, #96]
100006a94: ea 87 40 a9 	ldp	x10, x1, [sp, #8]
100006a98: eb a3 41 a9 	ldp	x11, x8, [sp, #24]
100006a9c: 9f 05 00 b1 	cmn	x12, #1
100006aa0: e0 0f 00 54 	b.eq	0x100006c9c <__ZN55_$LT$$RF$str$u20$as$u20$core..str..pattern..Pattern$GT$15is_contained_in17h975271349cee59ddE+0x24c>
100006aa4: ed 2b 40 f9 	ldr	x13, [sp, #80]
100006aa8: 0e 05 00 d1 	sub	x14, x8, #1
100006aac: c9 01 0d 8b 	add	x9, x14, x13
100006ab0: 3f 01 01 eb 	cmp	x9, x1
100006ab4: c2 16 00 54 	b.hs	0x100006d8c <__ZN55_$LT$$RF$str$u20$as$u20$core..str..pattern..Pattern$GT$15is_contained_in17h975271349cee59ddE+0x33c>
100006ab8: f1 3f 44 a9 	ldp	x17, x15, [sp, #64]
100006abc: f0 1b 40 f9 	ldr	x16, [sp, #48]
100006ac0: 02 01 11 cb 	sub	x2, x8, x17
100006ac4: 03 06 00 d1 	sub	x3, x16, #1
100006ac8: 0e 00 00 14 	b	0x100006b00 <__ZN55_$LT$$RF$str$u20$as$u20$core..str..pattern..Pattern$GT$15is_contained_in17h975271349cee59ddE+0xb0>
100006acc: 01 16 00 54 	b.ne	0x100006d8c <__ZN55_$LT$$RF$str$u20$as$u20$core..str..pattern..Pattern$GT$15is_contained_in17h975271349cee59ddE+0x33c>
100006ad0: e0 03 09 aa 	mov	x0, x9
100006ad4: e1 03 02 aa 	mov	x1, x2
100006ad8: e2 03 0a aa 	mov	x2, x10
100006adc: 22 ad 00 94 	bl	0x100031f64 <_writev+0x100031f64>
100006ae0: 1f 00 00 71 	cmp	w0, #0
100006ae4: e0 17 9f 1a 	cset	w0, eq
100006ae8: aa 00 00 14 	b	0x100006d90 <__ZN55_$LT$$RF$str$u20$as$u20$core..str..pattern..Pattern$GT$15is_contained_in17h975271349cee59ddE+0x340>
100006aec: 0c 00 80 d2 	mov	x12, #0
100006af0: ad 01 08 8b 	add	x13, x13, x8
100006af4: c9 01 0d 8b 	add	x9, x14, x13
100006af8: 3f 01 01 eb 	cmp	x9, x1
100006afc: 22 15 00 54 	b.hs	0x100006da0 <__ZN55_$LT$$RF$str$u20$as$u20$core..str..pattern..Pattern$GT$15is_contained_in17h975271349cee59ddE+0x350>
100006b00: 49 69 69 38 	ldrb	w9, [x10, x9]
100006b04: e9 25 c9 9a 	lsr	x9, x15, x9
100006b08: 29 ff 07 36 	tbz	w9, #0, 0x100006aec <__ZN55_$LT$$RF$str$u20$as$u20$core..str..pattern..Pattern$GT$15is_contained_in17h975271349cee59ddE+0x9c>
100006b0c: 1f 02 0c eb 	cmp	x16, x12
100006b10: 09 82 8c 9a 	csel	x9, x16, x12, hi
100006b14: 60 01 09 8b 	add	x0, x11, x9
100006b18: a6 01 09 8b 	add	x6, x13, x9
100006b1c: 04 01 09 eb 	subs	x4, x8, x9
100006b20: e4 33 84 9a 	csel	x4, xzr, x4, lo
100006b24: c4 01 00 b4 	cbz	x4, 0x100006b5c <__ZN55_$LT$$RF$str$u20$as$u20$core..str..pattern..Pattern$GT$15is_contained_in17h975271349cee59ddE+0x10c>
100006b28: e5 03 06 aa 	mov	x5, x6
100006b2c: df 00 01 eb 	cmp	x6, x1
100006b30: 02 14 00 54 	b.hs	0x100006db0 <__ZN55_$LT$$RF$str$u20$as$u20$core..str..pattern..Pattern$GT$15is_contained_in17h975271349cee59ddE+0x360>
100006b34: 07 14 40 38 	ldrb	w7, [x0], #1
100006b38: 53 69 65 38 	ldrb	w19, [x10, x5]
100006b3c: a6 04 00 91 	add	x6, x5, #1
100006b40: 84 04 00 d1 	sub	x4, x4, #1
100006b44: ff 00 13 6b 	cmp	w7, w19
100006b48: e0 fe ff 54 	b.eq	0x100006b24 <__ZN55_$LT$$RF$str$u20$as$u20$core..str..pattern..Pattern$GT$15is_contained_in17h975271349cee59ddE+0xd4>
100006b4c: 0c 00 80 d2 	mov	x12, #0
100006b50: a9 00 10 cb 	sub	x9, x5, x16
100006b54: 2d 05 00 91 	add	x13, x9, #1
100006b58: e7 ff ff 17 	b	0x100006af4 <__ZN55_$LT$$RF$str$u20$as$u20$core..str..pattern..Pattern$GT$15is_contained_in17h975271349cee59ddE+0xa4>
100006b5c: 44 01 0d 8b 	add	x4, x10, x13
100006b60: e0 03 03 aa 	mov	x0, x3
100006b64: 09 04 00 91 	add	x9, x0, #1
100006b68: 9f 01 09 eb 	cmp	x12, x9
100006b6c: 02 10 00 54 	b.hs	0x100006d6c <__ZN55_$LT$$RF$str$u20$as$u20$core..str..pattern..Pattern$GT$15is_contained_in17h975271349cee59ddE+0x31c>
100006b70: 1f 00 08 eb 	cmp	x0, x8
100006b74: 22 12 00 54 	b.hs	0x100006db8 <__ZN55_$LT$$RF$str$u20$as$u20$core..str..pattern..Pattern$GT$15is_contained_in17h975271349cee59ddE+0x368>
100006b78: a9 01 00 8b 	add	x9, x13, x0
100006b7c: 3f 01 01 eb 	cmp	x9, x1
100006b80: 42 12 00 54 	b.hs	0x100006dc8 <__ZN55_$LT$$RF$str$u20$as$u20$core..str..pattern..Pattern$GT$15is_contained_in17h975271349cee59ddE+0x378>
100006b84: 69 69 60 38 	ldrb	w9, [x11, x0]
100006b88: 85 68 60 38 	ldrb	w5, [x4, x0]
100006b8c: 00 04 00 d1 	sub	x0, x0, #1
100006b90: 3f 01 05 6b 	cmp	w9, w5
100006b94: 80 fe ff 54 	b.eq	0x100006b64 <__ZN55_$LT$$RF$str$u20$as$u20$core..str..pattern..Pattern$GT$15is_contained_in17h975271349cee59ddE+0x114>
100006b98: ad 01 11 8b 	add	x13, x13, x17
100006b9c: ec 03 02 aa 	mov	x12, x2
100006ba0: d5 ff ff 17 	b	0x100006af4 <__ZN55_$LT$$RF$str$u20$as$u20$core..str..pattern..Pattern$GT$15is_contained_in17h975271349cee59ddE+0xa4>
100006ba4: e8 0b 41 39 	ldrb	w8, [sp, #66]
100006ba8: 28 0f 00 35 	cbnz	w8, 0x100006d8c <__ZN55_$LT$$RF$str$u20$as$u20$core..str..pattern..Pattern$GT$15is_contained_in17h975271349cee59ddE+0x33c>
100006bac: e0 87 40 a9 	ldp	x0, x1, [sp, #8]
100006bb0: e8 03 41 39 	ldrb	w8, [sp, #64]
100006bb4: e2 1b 40 f9 	ldr	x2, [sp, #48]
100006bb8: 1f 01 00 71 	cmp	w8, #0
100006bbc: e9 17 9f 1a 	cset	w9, eq
100006bc0: 68 00 80 52 	mov	w8, #3
100006bc4: 04 00 00 14 	b	0x100006bd4 <__ZN55_$LT$$RF$str$u20$as$u20$core..str..pattern..Pattern$GT$15is_contained_in17h975271349cee59ddE+0x184>
100006bc8: 2a 00 80 52 	mov	w10, #1
100006bcc: 09 00 80 52 	mov	w9, #0
100006bd0: 42 01 02 8b 	add	x2, x10, x2
100006bd4: 02 01 00 b4 	cbz	x2, 0x100006bf4 <__ZN55_$LT$$RF$str$u20$as$u20$core..str..pattern..Pattern$GT$15is_contained_in17h975271349cee59ddE+0x1a4>
100006bd8: 3f 00 02 eb 	cmp	x1, x2
100006bdc: a9 00 00 54 	b.ls	0x100006bf0 <__ZN55_$LT$$RF$str$u20$as$u20$core..str..pattern..Pattern$GT$15is_contained_in17h975271349cee59ddE+0x1a0>
100006be0: 0a 68 e2 38 	ldrsb	w10, [x0, x2]
100006be4: 5f 01 01 31 	cmn	w10, #64
100006be8: 6a 00 00 54 	b.ge	0x100006bf4 <__ZN55_$LT$$RF$str$u20$as$u20$core..str..pattern..Pattern$GT$15is_contained_in17h975271349cee59ddE+0x1a4>
100006bec: 81 00 00 14 	b	0x100006df0 <__ZN55_$LT$$RF$str$u20$as$u20$core..str..pattern..Pattern$GT$15is_contained_in17h975271349cee59ddE+0x3a0>
100006bf0: 01 10 00 54 	b.ne	0x100006df0 <__ZN55_$LT$$RF$str$u20$as$u20$core..str..pattern..Pattern$GT$15is_contained_in17h975271349cee59ddE+0x3a0>
100006bf4: 5f 00 01 eb 	cmp	x2, x1
100006bf8: 20 0c 00 54 	b.eq	0x100006d7c <__ZN55_$LT$$RF$str$u20$as$u20$core..str..pattern..Pattern$GT$15is_contained_in17h975271349cee59ddE+0x32c>
100006bfc: 0c 00 02 8b 	add	x12, x0, x2
100006c00: 8a 01 c0 39 	ldrsb	w10, [x12]
100006c04: 4d 1d 00 12 	and	w13, w10, #0xff
100006c08: 8a 00 f8 37 	tbnz	w10, #31, 0x100006c18 <__ZN55_$LT$$RF$str$u20$as$u20$core..str..pattern..Pattern$GT$15is_contained_in17h975271349cee59ddE+0x1c8>
100006c0c: ea 03 0d aa 	mov	x10, x13
100006c10: 09 03 00 37 	tbnz	w9, #0, 0x100006c70 <__ZN55_$LT$$RF$str$u20$as$u20$core..str..pattern..Pattern$GT$15is_contained_in17h975271349cee59ddE+0x220>
100006c14: 5b 00 00 14 	b	0x100006d80 <__ZN55_$LT$$RF$str$u20$as$u20$core..str..pattern..Pattern$GT$15is_contained_in17h975271349cee59ddE+0x330>
100006c18: ab 11 00 12 	and	w11, w13, #0x1f
100006c1c: 8a 05 40 39 	ldrb	w10, [x12, #1]
100006c20: 4a 15 00 12 	and	w10, w10, #0x3f
100006c24: bf 81 03 71 	cmp	w13, #224
100006c28: 83 01 00 54 	b.lo	0x100006c58 <__ZN55_$LT$$RF$str$u20$as$u20$core..str..pattern..Pattern$GT$15is_contained_in17h975271349cee59ddE+0x208>
100006c2c: 8e 09 40 39 	ldrb	w14, [x12, #2]
100006c30: ce 15 00 12 	and	w14, w14, #0x3f
100006c34: 4e 15 1a 33 	bfi	w14, w10, #6, #6
100006c38: bf c1 03 71 	cmp	w13, #240
100006c3c: 43 01 00 54 	b.lo	0x100006c64 <__ZN55_$LT$$RF$str$u20$as$u20$core..str..pattern..Pattern$GT$15is_contained_in17h975271349cee59ddE+0x214>
100006c40: 8a 0d 40 39 	ldrb	w10, [x12, #3]
100006c44: 4a 15 00 12 	and	w10, w10, #0x3f
100006c48: ca 2d 1a 33 	bfi	w10, w14, #6, #12
100006c4c: 6a 09 0e 33 	bfi	w10, w11, #18, #3
100006c50: 09 01 00 37 	tbnz	w9, #0, 0x100006c70 <__ZN55_$LT$$RF$str$u20$as$u20$core..str..pattern..Pattern$GT$15is_contained_in17h975271349cee59ddE+0x220>
100006c54: 4b 00 00 14 	b	0x100006d80 <__ZN55_$LT$$RF$str$u20$as$u20$core..str..pattern..Pattern$GT$15is_contained_in17h975271349cee59ddE+0x330>
100006c58: 6a 11 1a 33 	bfi	w10, w11, #6, #5
100006c5c: a9 00 00 37 	tbnz	w9, #0, 0x100006c70 <__ZN55_$LT$$RF$str$u20$as$u20$core..str..pattern..Pattern$GT$15is_contained_in17h975271349cee59ddE+0x220>
100006c60: 48 00 00 14 	b	0x100006d80 <__ZN55_$LT$$RF$str$u20$as$u20$core..str..pattern..Pattern$GT$15is_contained_in17h975271349cee59ddE+0x330>
100006c64: 6e 11 14 33 	bfi	w14, w11, #12, #5
100006c68: ea 03 0e aa 	mov	x10, x14
100006c6c: a9 08 00 36 	tbz	w9, #0, 0x100006d80 <__ZN55_$LT$$RF$str$u20$as$u20$core..str..pattern..Pattern$GT$15is_contained_in17h975271349cee59ddE+0x330>
100006c70: 5f 41 44 71 	cmp	w10, #272, lsl #12      ; =1114112
100006c74: a0 08 00 54 	b.eq	0x100006d88 <__ZN55_$LT$$RF$str$u20$as$u20$core..str..pattern..Pattern$GT$15is_contained_in17h975271349cee59ddE+0x338>
100006c78: 5f 01 02 71 	cmp	w10, #128
100006c7c: 63 fa ff 54 	b.lo	0x100006bc8 <__ZN55_$LT$$RF$str$u20$as$u20$core..str..pattern..Pattern$GT$15is_contained_in17h975271349cee59ddE+0x178>
100006c80: 5f 01 20 71 	cmp	w10, #2048
100006c84: 62 00 00 54 	b.hs	0x100006c90 <__ZN55_$LT$$RF$str$u20$as$u20$core..str..pattern..Pattern$GT$15is_contained_in17h975271349cee59ddE+0x240>
100006c88: 4a 00 80 52 	mov	w10, #2
100006c8c: d0 ff ff 17 	b	0x100006bcc <__ZN55_$LT$$RF$str$u20$as$u20$core..str..pattern..Pattern$GT$15is_contained_in17h975271349cee59ddE+0x17c>
100006c90: 5f 41 40 71 	cmp	w10, #16, lsl #12       ; =65536
100006c94: 0a 35 88 9a 	cinc	x10, x8, hs
100006c98: cd ff ff 17 	b	0x100006bcc <__ZN55_$LT$$RF$str$u20$as$u20$core..str..pattern..Pattern$GT$15is_contained_in17h975271349cee59ddE+0x17c>
100006c9c: ec 2b 40 f9 	ldr	x12, [sp, #80]
100006ca0: 0d 05 00 d1 	sub	x13, x8, #1
100006ca4: a9 01 0c 8b 	add	x9, x13, x12
100006ca8: 3f 01 01 eb 	cmp	x9, x1
100006cac: 02 07 00 54 	b.hs	0x100006d8c <__ZN55_$LT$$RF$str$u20$as$u20$core..str..pattern..Pattern$GT$15is_contained_in17h975271349cee59ddE+0x33c>
100006cb0: f0 3f 44 a9 	ldp	x16, x15, [sp, #64]
100006cb4: ee 1b 40 f9 	ldr	x14, [sp, #48]
100006cb8: d1 05 00 d1 	sub	x17, x14, #1
100006cbc: 62 01 0e 8b 	add	x2, x11, x14
100006cc0: 00 01 0e eb 	subs	x0, x8, x14
100006cc4: e3 33 80 9a 	csel	x3, xzr, x0, lo
100006cc8: 06 00 00 14 	b	0x100006ce0 <__ZN55_$LT$$RF$str$u20$as$u20$core..str..pattern..Pattern$GT$15is_contained_in17h975271349cee59ddE+0x290>
100006ccc: 8c 01 08 8b 	add	x12, x12, x8
100006cd0: 00 00 80 52 	mov	w0, #0
100006cd4: a9 01 0c 8b 	add	x9, x13, x12
100006cd8: 3f 01 01 eb 	cmp	x9, x1
100006cdc: a2 05 00 54 	b.hs	0x100006d90 <__ZN55_$LT$$RF$str$u20$as$u20$core..str..pattern..Pattern$GT$15is_contained_in17h975271349cee59ddE+0x340>
100006ce0: 49 69 69 38 	ldrb	w9, [x10, x9]
100006ce4: e9 25 c9 9a 	lsr	x9, x15, x9
100006ce8: 29 ff 07 36 	tbz	w9, #0, 0x100006ccc <__ZN55_$LT$$RF$str$u20$as$u20$core..str..pattern..Pattern$GT$15is_contained_in17h975271349cee59ddE+0x27c>
100006cec: c5 01 0c 8b 	add	x5, x14, x12
100006cf0: e9 03 03 aa 	mov	x9, x3
100006cf4: e0 03 02 aa 	mov	x0, x2
100006cf8: a9 01 00 b4 	cbz	x9, 0x100006d2c <__ZN55_$LT$$RF$str$u20$as$u20$core..str..pattern..Pattern$GT$15is_contained_in17h975271349cee59ddE+0x2dc>
100006cfc: e4 03 05 aa 	mov	x4, x5
100006d00: bf 00 01 eb 	cmp	x5, x1
100006d04: a2 06 00 54 	b.hs	0x100006dd8 <__ZN55_$LT$$RF$str$u20$as$u20$core..str..pattern..Pattern$GT$15is_contained_in17h975271349cee59ddE+0x388>
100006d08: 06 14 40 38 	ldrb	w6, [x0], #1
100006d0c: 47 69 64 38 	ldrb	w7, [x10, x4]
100006d10: 85 04 00 91 	add	x5, x4, #1
100006d14: 29 05 00 d1 	sub	x9, x9, #1
100006d18: df 00 07 6b 	cmp	w6, w7
100006d1c: e0 fe ff 54 	b.eq	0x100006cf8 <__ZN55_$LT$$RF$str$u20$as$u20$core..str..pattern..Pattern$GT$15is_contained_in17h975271349cee59ddE+0x2a8>
100006d20: 89 00 0e cb 	sub	x9, x4, x14
100006d24: 2c 05 00 91 	add	x12, x9, #1
100006d28: ea ff ff 17 	b	0x100006cd0 <__ZN55_$LT$$RF$str$u20$as$u20$core..str..pattern..Pattern$GT$15is_contained_in17h975271349cee59ddE+0x280>
100006d2c: 44 01 0c 8b 	add	x4, x10, x12
100006d30: e0 03 11 aa 	mov	x0, x17
100006d34: 1f 04 00 b1 	cmn	x0, #1
100006d38: 40 02 00 54 	b.eq	0x100006d80 <__ZN55_$LT$$RF$str$u20$as$u20$core..str..pattern..Pattern$GT$15is_contained_in17h975271349cee59ddE+0x330>
100006d3c: 3f 02 08 eb 	cmp	x17, x8
100006d40: c2 03 00 54 	b.hs	0x100006db8 <__ZN55_$LT$$RF$str$u20$as$u20$core..str..pattern..Pattern$GT$15is_contained_in17h975271349cee59ddE+0x368>
100006d44: 89 01 00 8b 	add	x9, x12, x0
100006d48: 3f 01 01 eb 	cmp	x9, x1
100006d4c: e2 03 00 54 	b.hs	0x100006dc8 <__ZN55_$LT$$RF$str$u20$as$u20$core..str..pattern..Pattern$GT$15is_contained_in17h975271349cee59ddE+0x378>
100006d50: 69 69 60 38 	ldrb	w9, [x11, x0]
100006d54: 85 68 60 38 	ldrb	w5, [x4, x0]
100006d58: 00 04 00 d1 	sub	x0, x0, #1
100006d5c: 3f 01 05 6b 	cmp	w9, w5
100006d60: a0 fe ff 54 	b.eq	0x100006d34 <__ZN55_$LT$$RF$str$u20$as$u20$core..str..pattern..Pattern$GT$15is_contained_in17h975271349cee59ddE+0x2e4>
100006d64: 8c 01 10 8b 	add	x12, x12, x16
100006d68: da ff ff 17 	b	0x100006cd0 <__ZN55_$LT$$RF$str$u20$as$u20$core..str..pattern..Pattern$GT$15is_contained_in17h975271349cee59ddE+0x280>
100006d6c: ed 2b 00 f9 	str	x13, [sp, #80]
100006d70: ec 33 00 f9 	str	x12, [sp, #96]
100006d74: 20 00 80 52 	mov	w0, #1
100006d78: 06 00 00 14 	b	0x100006d90 <__ZN55_$LT$$RF$str$u20$as$u20$core..str..pattern..Pattern$GT$15is_contained_in17h975271349cee59ddE+0x340>
100006d7c: 89 00 00 37 	tbnz	w9, #0, 0x100006d8c <__ZN55_$LT$$RF$str$u20$as$u20$core..str..pattern..Pattern$GT$15is_contained_in17h975271349cee59ddE+0x33c>
100006d80: 20 00 80 52 	mov	w0, #1
100006d84: 03 00 00 14 	b	0x100006d90 <__ZN55_$LT$$RF$str$u20$as$u20$core..str..pattern..Pattern$GT$15is_contained_in17h975271349cee59ddE+0x340>
100006d88: e2 1b 00 f9 	str	x2, [sp, #48]
100006d8c: 00 00 80 52 	mov	w0, #0
100006d90: fd 7b 48 a9 	ldp	x29, x30, [sp, #128]
100006d94: f4 4f 47 a9 	ldp	x20, x19, [sp, #112]
100006d98: ff 43 02 91 	add	sp, sp, #144
100006d9c: c0 03 5f d6 	ret
100006da0: 00 00 80 52 	mov	w0, #0
100006da4: ed 2b 00 f9 	str	x13, [sp, #80]
100006da8: ec 33 00 f9 	str	x12, [sp, #96]
100006dac: f9 ff ff 17 	b	0x100006d90 <__ZN55_$LT$$RF$str$u20$as$u20$core..str..pattern..Pattern$GT$15is_contained_in17h975271349cee59ddE+0x340>
100006db0: a8 01 09 8b 	add	x8, x13, x9
100006db4: 0a 00 00 14 	b	0x100006ddc <__ZN55_$LT$$RF$str$u20$as$u20$core..str..pattern..Pattern$GT$15is_contained_in17h975271349cee59ddE+0x38c>
100006db8: 02 b3 1c 10 	adr	x2, #235104
100006dbc: 1f 20 03 d5 	nop
100006dc0: e1 03 08 aa 	mov	x1, x8
100006dc4: 6f ab 00 94 	bl	0x100031b80 <__ZN4core9panicking18panic_bounds_check17hcd475361ec7b2e52E>
100006dc8: 42 b3 1c 10 	adr	x2, #235112
100006dcc: 1f 20 03 d5 	nop
100006dd0: e0 03 09 aa 	mov	x0, x9
100006dd4: 6b ab 00 94 	bl	0x100031b80 <__ZN4core9panicking18panic_bounds_check17hcd475361ec7b2e52E>
100006dd8: 88 01 0e 8b 	add	x8, x12, x14
100006ddc: 3f 00 08 eb 	cmp	x1, x8
100006de0: 20 80 88 9a 	csel	x0, x1, x8, hi
100006de4: e2 b0 1c 10 	adr	x2, #235036
100006de8: 1f 20 03 d5 	nop
100006dec: 65 ab 00 94 	bl	0x100031b80 <__ZN4core9panicking18panic_bounds_check17hcd475361ec7b2e52E>
100006df0: 04 ce 1c 10 	adr	x4, #235968
100006df4: 1f 20 03 d5 	nop
100006df8: e3 03 01 aa 	mov	x3, x1
100006dfc: f7 ab 00 94 	bl	0x100031dd8 <__ZN4core3str16slice_error_fail17h20482a8df8848b02E>

0000000100006e00 <__ZN58_$LT$alloc..string..String$u20$as$u20$core..fmt..Debug$GT$3fmt17h55a28eab30e5b0e6E>:
100006e00: e2 03 01 aa 	mov	x2, x1
100006e04: 08 84 40 a9 	ldp	x8, x1, [x0, #8]
100006e08: e0 03 08 aa 	mov	x0, x8
100006e0c: de 94 00 14 	b	0x10002c184 <__ZN40_$LT$str$u20$as$u20$core..fmt..Debug$GT$3fmt17hbac9cad13cd39d40E>

0000000100006e10 <__ZN5alloc11collections5btree3map25IntoIter$LT$K$C$V$C$A$GT$10dying_next17h30368679ac90142fE>:
100006e10: ff 83 01 d1 	sub	sp, sp, #96
100006e14: fa 67 01 a9 	stp	x26, x25, [sp, #16]
100006e18: f8 5f 02 a9 	stp	x24, x23, [sp, #32]
100006e1c: f6 57 03 a9 	stp	x22, x21, [sp, #48]
100006e20: f4 4f 04 a9 	stp	x20, x19, [sp, #64]
100006e24: fd 7b 05 a9 	stp	x29, x30, [sp, #80]
100006e28: fd 43 01 91 	add	x29, sp, #80
100006e2c: f4 03 01 aa 	mov	x20, x1
100006e30: f3 03 00 aa 	mov	x19, x0
100006e34: 28 20 40 f9 	ldr	x8, [x1, #64]
100006e38: 88 04 00 b4 	cbz	x8, 0x100006ec8 <__ZN5alloc11collections5btree3map25IntoIter$LT$K$C$V$C$A$GT$10dying_next17h30368679ac90142fE+0xb8>
100006e3c: 08 05 00 d1 	sub	x8, x8, #1
100006e40: 88 22 00 f9 	str	x8, [x20, #64]
100006e44: 88 02 40 f9 	ldr	x8, [x20]
100006e48: 28 05 00 b4 	cbz	x8, 0x100006eec <__ZN5alloc11collections5btree3map25IntoIter$LT$K$C$V$C$A$GT$10dying_next17h30368679ac90142fE+0xdc>
100006e4c: 1f 09 00 f1 	cmp	x8, #2
100006e50: 60 0c 00 54 	b.eq	0x100006fdc <__ZN5alloc11collections5btree3map25IntoIter$LT$K$C$V$C$A$GT$10dying_next17h30368679ac90142fE+0x1cc>
100006e54: 88 82 40 a9 	ldp	x8, x0, [x20, #8]
100006e58: 95 0e 40 f9 	ldr	x21, [x20, #24]
100006e5c: 09 64 4a 79 	ldrh	w9, [x0, #1330]
100006e60: bf 02 09 eb 	cmp	x21, x9
100006e64: 03 06 00 54 	b.lo	0x100006f24 <__ZN5alloc11collections5btree3map25IntoIter$LT$K$C$V$C$A$GT$10dying_next17h30368679ac90142fE+0x114>
100006e68: 18 b3 80 52 	mov	w24, #1432
100006e6c: 19 a7 80 52 	mov	w25, #1336
100006e70: 16 68 42 f9 	ldr	x22, [x0, #1232]
100006e74: b6 09 00 b4 	cbz	x22, 0x100006fa8 <__ZN5alloc11collections5btree3map25IntoIter$LT$K$C$V$C$A$GT$10dying_next17h30368679ac90142fE+0x198>
100006e78: 15 60 4a 79 	ldrh	w21, [x0, #1328]
100006e7c: 17 05 00 91 	add	x23, x8, #1
100006e80: 1f 01 00 f1 	cmp	x8, #0
100006e84: 21 03 98 9a 	csel	x1, x25, x24, eq
100006e88: 02 01 80 52 	mov	w2, #8
100006e8c: f5 ec ff 97 	bl	0x100002260 <___rust_dealloc>
100006e90: c9 66 4a 79 	ldrh	w9, [x22, #1330]
100006e94: e8 03 17 aa 	mov	x8, x23
100006e98: e0 03 16 aa 	mov	x0, x22
100006e9c: bf 02 09 6b 	cmp	w21, w9
100006ea0: 82 fe ff 54 	b.hs	0x100006e70 <__ZN5alloc11collections5btree3map25IntoIter$LT$K$C$V$C$A$GT$10dying_next17h30368679ac90142fE+0x60>
100006ea4: 77 04 00 b4 	cbz	x23, 0x100006f30 <__ZN5alloc11collections5btree3map25IntoIter$LT$K$C$V$C$A$GT$10dying_next17h30368679ac90142fE+0x120>
100006ea8: c8 0e 15 8b 	add	x8, x22, x21, lsl #3
100006eac: 08 a1 42 f9 	ldr	x8, [x8, #1344]
100006eb0: e9 06 00 f1 	subs	x9, x23, #1
100006eb4: 20 04 00 54 	b.eq	0x100006f38 <__ZN5alloc11collections5btree3map25IntoIter$LT$K$C$V$C$A$GT$10dying_next17h30368679ac90142fE+0x128>
100006eb8: 08 9d 42 f9 	ldr	x8, [x8, #1336]
100006ebc: 29 05 00 f1 	subs	x9, x9, #1
100006ec0: c1 ff ff 54 	b.ne	0x100006eb8 <__ZN5alloc11collections5btree3map25IntoIter$LT$K$C$V$C$A$GT$10dying_next17h30368679ac90142fE+0xa8>
100006ec4: 1d 00 00 14 	b	0x100006f38 <__ZN5alloc11collections5btree3map25IntoIter$LT$K$C$V$C$A$GT$10dying_next17h30368679ac90142fE+0x128>
100006ec8: 89 22 40 a9 	ldp	x9, x8, [x20]
100006ecc: 80 0a 40 f9 	ldr	x0, [x20, #16]
100006ed0: 4a 00 80 52 	mov	w10, #2
100006ed4: 8a 02 00 f9 	str	x10, [x20]
100006ed8: a9 03 00 b4 	cbz	x9, 0x100006f4c <__ZN5alloc11collections5btree3map25IntoIter$LT$K$C$V$C$A$GT$10dying_next17h30368679ac90142fE+0x13c>
100006edc: 3f 05 00 f1 	cmp	x9, #1
100006ee0: 04 08 40 fa 	ccmp	x0, #0, #4, eq
100006ee4: 20 05 00 54 	b.eq	0x100006f88 <__ZN5alloc11collections5btree3map25IntoIter$LT$K$C$V$C$A$GT$10dying_next17h30368679ac90142fE+0x178>
100006ee8: 1d 00 00 14 	b	0x100006f5c <__ZN5alloc11collections5btree3map25IntoIter$LT$K$C$V$C$A$GT$10dying_next17h30368679ac90142fE+0x14c>
100006eec: 88 82 40 a9 	ldp	x8, x0, [x20, #8]
100006ef0: 88 00 00 b4 	cbz	x8, 0x100006f00 <__ZN5alloc11collections5btree3map25IntoIter$LT$K$C$V$C$A$GT$10dying_next17h30368679ac90142fE+0xf0>
100006ef4: 00 9c 42 f9 	ldr	x0, [x0, #1336]
100006ef8: 08 05 00 f1 	subs	x8, x8, #1
100006efc: c1 ff ff 54 	b.ne	0x100006ef4 <__ZN5alloc11collections5btree3map25IntoIter$LT$K$C$V$C$A$GT$10dying_next17h30368679ac90142fE+0xe4>
100006f00: 15 00 80 d2 	mov	x21, #0
100006f04: 08 00 80 d2 	mov	x8, #0
100006f08: 1f 20 03 d5 	nop
100006f0c: 20 11 16 9c 	ldr	q0, 0x100033130 <_writev+0x100033130>
100006f10: 80 02 80 3d 	str	q0, [x20]
100006f14: 80 7e 01 a9 	stp	x0, xzr, [x20, #16]
100006f18: 09 64 4a 79 	ldrh	w9, [x0, #1330]
100006f1c: bf 02 09 eb 	cmp	x21, x9
100006f20: 42 fa ff 54 	b.hs	0x100006e68 <__ZN5alloc11collections5btree3map25IntoIter$LT$K$C$V$C$A$GT$10dying_next17h30368679ac90142fE+0x58>
100006f24: f6 03 00 aa 	mov	x22, x0
100006f28: f7 03 08 aa 	mov	x23, x8
100006f2c: e8 fb ff b5 	cbnz	x8, 0x100006ea8 <__ZN5alloc11collections5btree3map25IntoIter$LT$K$C$V$C$A$GT$10dying_next17h30368679ac90142fE+0x98>
100006f30: a9 06 00 91 	add	x9, x21, #1
100006f34: e8 03 16 aa 	mov	x8, x22
100006f38: 9f a2 00 a9 	stp	xzr, x8, [x20, #8]
100006f3c: 89 0e 00 f9 	str	x9, [x20, #24]
100006f40: 77 5a 00 a9 	stp	x23, x22, [x19]
100006f44: 75 0a 00 f9 	str	x21, [x19, #16]
100006f48: 11 00 00 14 	b	0x100006f8c <__ZN5alloc11collections5btree3map25IntoIter$LT$K$C$V$C$A$GT$10dying_next17h30368679ac90142fE+0x17c>
100006f4c: 88 00 00 b4 	cbz	x8, 0x100006f5c <__ZN5alloc11collections5btree3map25IntoIter$LT$K$C$V$C$A$GT$10dying_next17h30368679ac90142fE+0x14c>
100006f50: 00 9c 42 f9 	ldr	x0, [x0, #1336]
100006f54: 08 05 00 f1 	subs	x8, x8, #1
100006f58: c1 ff ff 54 	b.ne	0x100006f50 <__ZN5alloc11collections5btree3map25IntoIter$LT$K$C$V$C$A$GT$10dying_next17h30368679ac90142fE+0x140>
100006f5c: 14 b3 80 52 	mov	w20, #1432
100006f60: 15 a7 80 52 	mov	w21, #1336
100006f64: 16 68 42 f9 	ldr	x22, [x0, #1232]
100006f68: 17 05 00 91 	add	x23, x8, #1
100006f6c: 1f 01 00 f1 	cmp	x8, #0
100006f70: a1 02 94 9a 	csel	x1, x21, x20, eq
100006f74: 02 01 80 52 	mov	w2, #8
100006f78: ba ec ff 97 	bl	0x100002260 <___rust_dealloc>
100006f7c: e0 03 16 aa 	mov	x0, x22
100006f80: e8 03 17 aa 	mov	x8, x23
100006f84: 16 ff ff b5 	cbnz	x22, 0x100006f64 <__ZN5alloc11collections5btree3map25IntoIter$LT$K$C$V$C$A$GT$10dying_next17h30368679ac90142fE+0x154>
100006f88: 7f 06 00 f9 	str	xzr, [x19, #8]
100006f8c: fd 7b 45 a9 	ldp	x29, x30, [sp, #80]
100006f90: f4 4f 44 a9 	ldp	x20, x19, [sp, #64]
100006f94: f6 57 43 a9 	ldp	x22, x21, [sp, #48]
100006f98: f8 5f 42 a9 	ldp	x24, x23, [sp, #32]
100006f9c: fa 67 41 a9 	ldp	x26, x25, [sp, #16]
100006fa0: ff 83 01 91 	add	sp, sp, #96
100006fa4: c0 03 5f d6 	ret
100006fa8: 09 b3 80 52 	mov	w9, #1432
100006fac: 0a a7 80 52 	mov	w10, #1336
100006fb0: 1f 01 00 f1 	cmp	x8, #0
100006fb4: 41 01 89 9a 	csel	x1, x10, x9, eq
100006fb8: 02 01 80 52 	mov	w2, #8
100006fbc: a9 ec ff 97 	bl	0x100002260 <___rust_dealloc>
100006fc0: 20 3f 16 30 	adr	x0, #182245
100006fc4: 1f 20 03 d5 	nop
100006fc8: 82 b3 1c 10 	adr	x2, #235120
100006fcc: 1f 20 03 d5 	nop
100006fd0: 61 05 80 52 	mov	w1, #43
100006fd4: ce aa 00 94 	bl	0x100031b0c <__ZN4core9panicking5panic17h38074b3ed47cd9d2E>
100006fd8: 20 00 20 d4 	brk	#0x1
100006fdc: 40 3e 16 30 	adr	x0, #182217
100006fe0: 1f 20 03 d5 	nop
100006fe4: 62 b3 1c 10 	adr	x2, #235116
100006fe8: 1f 20 03 d5 	nop
100006fec: 61 05 80 52 	mov	w1, #43
100006ff0: c7 aa 00 94 	bl	0x100031b0c <__ZN4core9panicking5panic17h38074b3ed47cd9d2E>
100006ff4: f3 03 00 aa 	mov	x19, x0
100006ff8: e0 23 00 91 	add	x0, sp, #8
100006ffc: 49 f3 ff 97 	bl	0x100003d20 <__ZN4core3ptr72drop_in_place$LT$alloc..collections..btree..mem..replace..PanicGuard$GT$17h2a83984c9a399b72E>
100007000: e0 03 13 aa 	mov	x0, x19
100007004: 93 ab 00 94 	bl	0x100031e50 <_writev+0x100031e50>
100007008: f2 aa 00 94 	bl	0x100031bd0 <__ZN4core9panicking19panic_cannot_unwind17h7ea28f7e8ef3b392E>

000000010000700c <__ZN5alloc4sync12Arc$LT$T$GT$9drop_slow17h2f45d96fe8874f36E>:
10000700c: f4 4f be a9 	stp	x20, x19, [sp, #-32]!
100007010: fd 7b 01 a9 	stp	x29, x30, [sp, #16]
100007014: fd 43 00 91 	add	x29, sp, #16
100007018: f3 03 00 aa 	mov	x19, x0
10000701c: 00 40 00 91 	add	x0, x0, #16
100007020: fb 53 00 94 	bl	0x10001c00c <__ZN65_$LT$std..sys..unix..fs..Dir$u20$as$u20$core..ops..drop..Drop$GT$4drop17h1ae6570c330b3460E>
100007024: 61 0e 40 f9 	ldr	x1, [x19, #24]
100007028: a1 00 00 b4 	cbz	x1, 0x10000703c <__ZN5alloc4sync12Arc$LT$T$GT$9drop_slow17h2f45d96fe8874f36E+0x30>
10000702c: 60 12 40 f9 	ldr	x0, [x19, #32]
100007030: e8 03 21 aa 	mvn	x8, x1
100007034: 02 fd 7f d3 	lsr	x2, x8, #63
100007038: 8a ec ff 97 	bl	0x100002260 <___rust_dealloc>
10000703c: 7f 06 00 b1 	cmn	x19, #1
100007040: a0 01 00 54 	b.eq	0x100007074 <__ZN5alloc4sync12Arc$LT$T$GT$9drop_slow17h2f45d96fe8874f36E+0x68>
100007044: 68 22 00 91 	add	x8, x19, #8
100007048: 09 00 80 92 	mov	x9, #-1
10000704c: 08 01 69 f8 	<unknown>
100007050: 1f 05 00 f1 	cmp	x8, #1
100007054: 01 01 00 54 	b.ne	0x100007074 <__ZN5alloc4sync12Arc$LT$T$GT$9drop_slow17h2f45d96fe8874f36E+0x68>
100007058: bf 39 03 d5 	dmb	ishld
10000705c: e0 03 13 aa 	mov	x0, x19
100007060: 01 06 80 52 	mov	w1, #48
100007064: 02 01 80 52 	mov	w2, #8
100007068: fd 7b 41 a9 	ldp	x29, x30, [sp, #16]
10000706c: f4 4f c2 a8 	ldp	x20, x19, [sp], #32
100007070: 7c ec ff 17 	b	0x100002260 <___rust_dealloc>
100007074: fd 7b 41 a9 	ldp	x29, x30, [sp, #16]
100007078: f4 4f c2 a8 	ldp	x20, x19, [sp], #32
10000707c: c0 03 5f d6 	ret
100007080: f4 03 00 aa 	mov	x20, x0
100007084: 60 62 00 91 	add	x0, x19, #24
100007088: 5f f0 ff 97 	bl	0x100003204 <__ZN4core3ptr205drop_in_place$LT$$LT$alloc..boxed..Box$LT$dyn$u20$core..error..Error$u2b$core..marker..Sync$u2b$core..marker..Send$GT$$u20$as$u20$core..convert..From$LT$alloc..string..String$GT$$GT$..from..StringError$GT$17hebbabeed7594fdacE>
10000708c: e0 03 14 aa 	mov	x0, x20
100007090: 70 ab 00 94 	bl	0x100031e50 <_writev+0x100031e50>

0000000100007094 <__ZN5alloc4sync12Arc$LT$T$GT$9drop_slow17h535f0dc62d8af681E>:
100007094: f4 4f be a9 	stp	x20, x19, [sp, #-32]!
100007098: fd 7b 01 a9 	stp	x29, x30, [sp, #16]
10000709c: fd 43 00 91 	add	x29, sp, #16
1000070a0: f3 03 00 aa 	mov	x19, x0
1000070a4: 08 08 40 f9 	ldr	x8, [x0, #16]
1000070a8: e8 00 00 b4 	cbz	x8, 0x1000070c4 <__ZN5alloc4sync12Arc$LT$T$GT$9drop_slow17h535f0dc62d8af681E+0x30>
1000070ac: 1f 01 00 39 	strb	wzr, [x8]
1000070b0: 61 0e 40 f9 	ldr	x1, [x19, #24]
1000070b4: 81 00 00 b4 	cbz	x1, 0x1000070c4 <__ZN5alloc4sync12Arc$LT$T$GT$9drop_slow17h535f0dc62d8af681E+0x30>
1000070b8: 60 0a 40 f9 	ldr	x0, [x19, #16]
1000070bc: 22 00 80 52 	mov	w2, #1
1000070c0: 68 ec ff 97 	bl	0x100002260 <___rust_dealloc>
1000070c4: 60 12 40 f9 	ldr	x0, [x19, #32]
1000070c8: 89 ab 00 94 	bl	0x100031eec <_writev+0x100031eec>
1000070cc: 7f 06 00 b1 	cmn	x19, #1
1000070d0: a0 01 00 54 	b.eq	0x100007104 <__ZN5alloc4sync12Arc$LT$T$GT$9drop_slow17h535f0dc62d8af681E+0x70>
1000070d4: 68 22 00 91 	add	x8, x19, #8
1000070d8: 09 00 80 92 	mov	x9, #-1
1000070dc: 08 01 69 f8 	<unknown>
1000070e0: 1f 05 00 f1 	cmp	x8, #1
1000070e4: 01 01 00 54 	b.ne	0x100007104 <__ZN5alloc4sync12Arc$LT$T$GT$9drop_slow17h535f0dc62d8af681E+0x70>
1000070e8: bf 39 03 d5 	dmb	ishld
1000070ec: e0 03 13 aa 	mov	x0, x19
1000070f0: 01 07 80 52 	mov	w1, #56
1000070f4: 02 01 80 52 	mov	w2, #8
1000070f8: fd 7b 41 a9 	ldp	x29, x30, [sp, #16]
1000070fc: f4 4f c2 a8 	ldp	x20, x19, [sp], #32
100007100: 58 ec ff 17 	b	0x100002260 <___rust_dealloc>
100007104: fd 7b 41 a9 	ldp	x29, x30, [sp, #16]
100007108: f4 4f c2 a8 	ldp	x20, x19, [sp], #32
10000710c: c0 03 5f d6 	ret

0000000100007110 <__ZN5alloc4sync12Arc$LT$T$GT$9drop_slow17h9a0ebd199faea9e7E>:
100007110: f4 4f be a9 	stp	x20, x19, [sp, #-32]!
100007114: fd 7b 01 a9 	stp	x29, x30, [sp, #16]
100007118: fd 43 00 91 	add	x29, sp, #16
10000711c: f3 03 00 aa 	mov	x19, x0
100007120: 14 08 40 f9 	ldr	x20, [x0, #16]
100007124: 94 00 00 b4 	cbz	x20, 0x100007134 <__ZN5alloc4sync12Arc$LT$T$GT$9drop_slow17h9a0ebd199faea9e7E+0x24>
100007128: e0 03 14 aa 	mov	x0, x20
10000712c: b8 ab 00 94 	bl	0x10003200c <_writev+0x10003200c>
100007130: 00 03 00 34 	cbz	w0, 0x100007190 <__ZN5alloc4sync12Arc$LT$T$GT$9drop_slow17h9a0ebd199faea9e7E+0x80>
100007134: 61 12 40 f9 	ldr	x1, [x19, #32]
100007138: a1 00 00 b4 	cbz	x1, 0x10000714c <__ZN5alloc4sync12Arc$LT$T$GT$9drop_slow17h9a0ebd199faea9e7E+0x3c>
10000713c: 60 16 40 f9 	ldr	x0, [x19, #40]
100007140: e8 03 21 aa 	mvn	x8, x1
100007144: 02 fd 7f d3 	lsr	x2, x8, #63
100007148: 46 ec ff 97 	bl	0x100002260 <___rust_dealloc>
10000714c: 7f 06 00 b1 	cmn	x19, #1
100007150: a0 01 00 54 	b.eq	0x100007184 <__ZN5alloc4sync12Arc$LT$T$GT$9drop_slow17h9a0ebd199faea9e7E+0x74>
100007154: 68 22 00 91 	add	x8, x19, #8
100007158: 09 00 80 92 	mov	x9, #-1
10000715c: 08 01 69 f8 	<unknown>
100007160: 1f 05 00 f1 	cmp	x8, #1
100007164: 01 01 00 54 	b.ne	0x100007184 <__ZN5alloc4sync12Arc$LT$T$GT$9drop_slow17h9a0ebd199faea9e7E+0x74>
100007168: bf 39 03 d5 	dmb	ishld
10000716c: e0 03 13 aa 	mov	x0, x19
100007170: 01 07 80 52 	mov	w1, #56
100007174: 02 01 80 52 	mov	w2, #8
100007178: fd 7b 41 a9 	ldp	x29, x30, [sp, #16]
10000717c: f4 4f c2 a8 	ldp	x20, x19, [sp], #32
100007180: 38 ec ff 17 	b	0x100002260 <___rust_dealloc>
100007184: fd 7b 41 a9 	ldp	x29, x30, [sp, #16]
100007188: f4 4f c2 a8 	ldp	x20, x19, [sp], #32
10000718c: c0 03 5f d6 	ret
100007190: e0 03 14 aa 	mov	x0, x20
100007194: a1 ab 00 94 	bl	0x100032018 <_writev+0x100032018>
100007198: e0 03 14 aa 	mov	x0, x20
10000719c: 93 ab 00 94 	bl	0x100031fe8 <_writev+0x100031fe8>
1000071a0: e0 03 14 aa 	mov	x0, x20
1000071a4: 01 08 80 52 	mov	w1, #64
1000071a8: 02 01 80 52 	mov	w2, #8
1000071ac: 2d ec ff 97 	bl	0x100002260 <___rust_dealloc>
1000071b0: 61 12 40 f9 	ldr	x1, [x19, #32]
1000071b4: 41 fc ff b5 	cbnz	x1, 0x10000713c <__ZN5alloc4sync12Arc$LT$T$GT$9drop_slow17h9a0ebd199faea9e7E+0x2c>
1000071b8: e5 ff ff 17 	b	0x10000714c <__ZN5alloc4sync12Arc$LT$T$GT$9drop_slow17h9a0ebd199faea9e7E+0x3c>

00000001000071bc <__ZN5alloc4sync12Arc$LT$T$GT$9drop_slow17hbb5e13a52ef41baaE>:
1000071bc: 1f 04 00 b1 	cmn	x0, #1
1000071c0: 40 01 00 54 	b.eq	0x1000071e8 <__ZN5alloc4sync12Arc$LT$T$GT$9drop_slow17hbb5e13a52ef41baaE+0x2c>
1000071c4: 08 20 00 91 	add	x8, x0, #8
1000071c8: 09 00 80 92 	mov	x9, #-1
1000071cc: 08 01 69 f8 	<unknown>
1000071d0: 1f 05 00 f1 	cmp	x8, #1
1000071d4: a1 00 00 54 	b.ne	0x1000071e8 <__ZN5alloc4sync12Arc$LT$T$GT$9drop_slow17hbb5e13a52ef41baaE+0x2c>
1000071d8: bf 39 03 d5 	dmb	ishld
1000071dc: 01 07 80 52 	mov	w1, #56
1000071e0: 02 01 80 52 	mov	w2, #8
1000071e4: 1f ec ff 17 	b	0x100002260 <___rust_dealloc>
1000071e8: c0 03 5f d6 	ret

00000001000071ec <__ZN5alloc4sync12Arc$LT$T$GT$9drop_slow17hd071309caeca8fecE>:
1000071ec: f4 4f be a9 	stp	x20, x19, [sp, #-32]!
1000071f0: fd 7b 01 a9 	stp	x29, x30, [sp, #16]
1000071f4: fd 43 00 91 	add	x29, sp, #16
1000071f8: 13 00 40 f9 	ldr	x19, [x0]
1000071fc: e0 03 13 aa 	mov	x0, x19
100007200: 08 0c 4e f8 	ldr	x8, [x0, #224]!
100007204: e8 00 00 b4 	cbz	x8, 0x100007220 <__ZN5alloc4sync12Arc$LT$T$GT$9drop_slow17hd071309caeca8fecE+0x34>
100007208: 09 00 80 92 	mov	x9, #-1
10000720c: 08 01 69 f8 	<unknown>
100007210: 1f 05 00 f1 	cmp	x8, #1
100007214: 61 00 00 54 	b.ne	0x100007220 <__ZN5alloc4sync12Arc$LT$T$GT$9drop_slow17hd071309caeca8fecE+0x34>
100007218: bf 39 03 d5 	dmb	ishld
10000721c: f4 ff ff 97 	bl	0x1000071ec <__ZN5alloc4sync12Arc$LT$T$GT$9drop_slow17hd071309caeca8fecE>
100007220: 7f 06 00 b1 	cmn	x19, #1
100007224: a0 01 00 54 	b.eq	0x100007258 <__ZN5alloc4sync12Arc$LT$T$GT$9drop_slow17hd071309caeca8fecE+0x6c>
100007228: 68 22 00 91 	add	x8, x19, #8
10000722c: 09 00 80 92 	mov	x9, #-1
100007230: 08 01 69 f8 	<unknown>
100007234: 1f 05 00 f1 	cmp	x8, #1
100007238: 01 01 00 54 	b.ne	0x100007258 <__ZN5alloc4sync12Arc$LT$T$GT$9drop_slow17hd071309caeca8fecE+0x6c>
10000723c: bf 39 03 d5 	dmb	ishld
100007240: e0 03 13 aa 	mov	x0, x19
100007244: 01 1e 80 52 	mov	w1, #240
100007248: 02 01 80 52 	mov	w2, #8
10000724c: fd 7b 41 a9 	ldp	x29, x30, [sp, #16]
100007250: f4 4f c2 a8 	ldp	x20, x19, [sp], #32
100007254: 03 ec ff 17 	b	0x100002260 <___rust_dealloc>
100007258: fd 7b 41 a9 	ldp	x29, x30, [sp, #16]
10000725c: f4 4f c2 a8 	ldp	x20, x19, [sp], #32
100007260: c0 03 5f d6 	ret

0000000100007264 <__ZN5alloc5alloc8box_free17h451b979ec62a4309E>:
100007264: 41 00 00 b4 	cbz	x1, 0x10000726c <__ZN5alloc5alloc8box_free17h451b979ec62a4309E+0x8>
100007268: fe eb ff 17 	b	0x100002260 <___rust_dealloc>
10000726c: c0 03 5f d6 	ret

0000000100007270 <__ZN5alloc5alloc8box_free17h4e3a6f0dfabbfae2E>:
100007270: 81 00 00 b4 	cbz	x1, 0x100007280 <__ZN5alloc5alloc8box_free17h4e3a6f0dfabbfae2E+0x10>
100007274: 21 dc 78 d3 	lsl	x1, x1, #8
100007278: 02 01 80 52 	mov	w2, #8
10000727c: f9 eb ff 17 	b	0x100002260 <___rust_dealloc>
100007280: c0 03 5f d6 	ret

0000000100007284 <__ZN5alloc5alloc8box_free17h9541dd9cfd3eeff6E>:
100007284: 01 08 80 52 	mov	w1, #64
100007288: 02 01 80 52 	mov	w2, #8
10000728c: f5 eb ff 17 	b	0x100002260 <___rust_dealloc>

0000000100007290 <__ZN5alloc5alloc8box_free17hc8cb259e0594c028E>:
100007290: 01 03 80 52 	mov	w1, #24
100007294: 02 01 80 52 	mov	w2, #8
100007298: f2 eb ff 17 	b	0x100002260 <___rust_dealloc>

000000010000729c <__ZN5alloc7raw_vec11finish_grow17ha0ccd9aa4f3888c2E>:
10000729c: f6 57 bd a9 	stp	x22, x21, [sp, #-48]!
1000072a0: f4 4f 01 a9 	stp	x20, x19, [sp, #16]
1000072a4: fd 7b 02 a9 	stp	x29, x30, [sp, #32]
1000072a8: fd 83 00 91 	add	x29, sp, #32
1000072ac: f4 03 01 aa 	mov	x20, x1
1000072b0: f3 03 00 aa 	mov	x19, x0
1000072b4: a2 02 00 b4 	cbz	x2, 0x100007308 <__ZN5alloc7raw_vec11finish_grow17ha0ccd9aa4f3888c2E+0x6c>
1000072b8: f5 03 02 aa 	mov	x21, x2
1000072bc: 68 08 40 f9 	ldr	x8, [x3, #16]
1000072c0: 48 01 00 b4 	cbz	x8, 0x1000072e8 <__ZN5alloc7raw_vec11finish_grow17ha0ccd9aa4f3888c2E+0x4c>
1000072c4: 61 04 40 f9 	ldr	x1, [x3, #8]
1000072c8: 01 01 00 b4 	cbz	x1, 0x1000072e8 <__ZN5alloc7raw_vec11finish_grow17ha0ccd9aa4f3888c2E+0x4c>
1000072cc: 60 00 40 f9 	ldr	x0, [x3]
1000072d0: e2 03 15 aa 	mov	x2, x21
1000072d4: e3 03 14 aa 	mov	x3, x20
1000072d8: e3 eb ff 97 	bl	0x100002264 <___rust_realloc>
1000072dc: 00 01 00 b5 	cbnz	x0, 0x1000072fc <__ZN5alloc7raw_vec11finish_grow17ha0ccd9aa4f3888c2E+0x60>
1000072e0: 74 d6 00 a9 	stp	x20, x21, [x19, #8]
1000072e4: 0a 00 00 14 	b	0x10000730c <__ZN5alloc7raw_vec11finish_grow17ha0ccd9aa4f3888c2E+0x70>
1000072e8: f4 01 00 b4 	cbz	x20, 0x100007324 <__ZN5alloc7raw_vec11finish_grow17ha0ccd9aa4f3888c2E+0x88>
1000072ec: e0 03 14 aa 	mov	x0, x20
1000072f0: e1 03 15 aa 	mov	x1, x21
1000072f4: da eb ff 97 	bl	0x10000225c <___rust_alloc>
1000072f8: 40 ff ff b4 	cbz	x0, 0x1000072e0 <__ZN5alloc7raw_vec11finish_grow17ha0ccd9aa4f3888c2E+0x44>
1000072fc: 08 00 80 d2 	mov	x8, #0
100007300: 60 d2 00 a9 	stp	x0, x20, [x19, #8]
100007304: 03 00 00 14 	b	0x100007310 <__ZN5alloc7raw_vec11finish_grow17ha0ccd9aa4f3888c2E+0x74>
100007308: 74 fe 00 a9 	stp	x20, xzr, [x19, #8]
10000730c: 28 00 80 52 	mov	w8, #1
100007310: 68 02 00 f9 	str	x8, [x19]
100007314: fd 7b 42 a9 	ldp	x29, x30, [sp, #32]
100007318: f4 4f 41 a9 	ldp	x20, x19, [sp, #16]
10000731c: f6 57 c3 a8 	ldp	x22, x21, [sp], #48
100007320: c0 03 5f d6 	ret
100007324: e0 03 15 aa 	mov	x0, x21
100007328: b5 fe ff b5 	cbnz	x21, 0x1000072fc <__ZN5alloc7raw_vec11finish_grow17ha0ccd9aa4f3888c2E+0x60>
10000732c: ed ff ff 17 	b	0x1000072e0 <__ZN5alloc7raw_vec11finish_grow17ha0ccd9aa4f3888c2E+0x44>

0000000100007330 <__ZN5alloc7raw_vec19RawVec$LT$T$C$A$GT$16reserve_for_push17h2a340fe70d1d8f4fE>:
100007330: ff 43 01 d1 	sub	sp, sp, #80
100007334: f4 4f 03 a9 	stp	x20, x19, [sp, #48]
100007338: fd 7b 04 a9 	stp	x29, x30, [sp, #64]
10000733c: fd 03 01 91 	add	x29, sp, #64
100007340: 29 04 00 b1 	adds	x9, x1, #1
100007344: c2 03 00 54 	b.hs	0x1000073bc <__ZN5alloc7raw_vec19RawVec$LT$T$C$A$GT$16reserve_for_push17h2a340fe70d1d8f4fE+0x8c>
100007348: f3 03 00 aa 	mov	x19, x0
10000734c: 08 00 40 f9 	ldr	x8, [x0]
100007350: 0a f9 7f d3 	lsl	x10, x8, #1
100007354: 5f 01 09 eb 	cmp	x10, x9
100007358: 49 81 89 9a 	csel	x9, x10, x9, hi
10000735c: 8a 00 80 52 	mov	w10, #4
100007360: 3f 11 00 f1 	cmp	x9, #4
100007364: 34 81 8a 9a 	csel	x20, x9, x10, hi
100007368: 81 ee 7c d3 	lsl	x1, x20, #4
10000736c: 89 fe 7b d3 	lsr	x9, x20, #59
100007370: 3f 01 00 f1 	cmp	x9, #0
100007374: e9 17 9f 1a 	cset	w9, eq
100007378: 22 f1 7d d3 	lsl	x2, x9, #3
10000737c: 28 02 00 b4 	cbz	x8, 0x1000073c0 <__ZN5alloc7raw_vec19RawVec$LT$T$C$A$GT$16reserve_for_push17h2a340fe70d1d8f4fE+0x90>
100007380: 69 06 40 f9 	ldr	x9, [x19, #8]
100007384: 08 ed 7c d3 	lsl	x8, x8, #4
100007388: e9 a3 01 a9 	stp	x9, x8, [sp, #24]
10000738c: 08 01 80 52 	mov	w8, #8
100007390: e8 17 00 f9 	str	x8, [sp, #40]
100007394: e0 03 00 91 	mov	x0, sp
100007398: e3 63 00 91 	add	x3, sp, #24
10000739c: c0 ff ff 97 	bl	0x10000729c <__ZN5alloc7raw_vec11finish_grow17ha0ccd9aa4f3888c2E>
1000073a0: e8 03 40 a9 	ldp	x8, x0, [sp]
1000073a4: a8 01 00 b4 	cbz	x8, 0x1000073d8 <__ZN5alloc7raw_vec19RawVec$LT$T$C$A$GT$16reserve_for_push17h2a340fe70d1d8f4fE+0xa8>
1000073a8: e1 0b 40 f9 	ldr	x1, [sp, #16]
1000073ac: e8 07 41 b2 	mov	x8, #-9223372036854775807
1000073b0: 3f 00 08 eb 	cmp	x1, x8
1000073b4: 40 01 00 54 	b.eq	0x1000073dc <__ZN5alloc7raw_vec19RawVec$LT$T$C$A$GT$16reserve_for_push17h2a340fe70d1d8f4fE+0xac>
1000073b8: a1 01 00 b5 	cbnz	x1, 0x1000073ec <__ZN5alloc7raw_vec19RawVec$LT$T$C$A$GT$16reserve_for_push17h2a340fe70d1d8f4fE+0xbc>
1000073bc: 6c 89 00 94 	bl	0x10002996c <__ZN5alloc7raw_vec17capacity_overflow17hae9a8565fffb202aE>
1000073c0: ff 17 00 f9 	str	xzr, [sp, #40]
1000073c4: e0 03 00 91 	mov	x0, sp
1000073c8: e3 63 00 91 	add	x3, sp, #24
1000073cc: b4 ff ff 97 	bl	0x10000729c <__ZN5alloc7raw_vec11finish_grow17ha0ccd9aa4f3888c2E>
1000073d0: e8 03 40 a9 	ldp	x8, x0, [sp]
1000073d4: a8 fe ff b5 	cbnz	x8, 0x1000073a8 <__ZN5alloc7raw_vec19RawVec$LT$T$C$A$GT$16reserve_for_push17h2a340fe70d1d8f4fE+0x78>
1000073d8: 74 02 00 a9 	stp	x20, x0, [x19]
1000073dc: fd 7b 44 a9 	ldp	x29, x30, [sp, #64]
1000073e0: f4 4f 43 a9 	ldp	x20, x19, [sp, #48]
1000073e4: ff 43 01 91 	add	sp, sp, #80
1000073e8: c0 03 5f d6 	ret
1000073ec: a7 a9 00 94 	bl	0x100031a88 <__ZN5alloc5alloc18handle_alloc_error17h98ae248b28eb0c8fE>

00000001000073f0 <__ZN5alloc7raw_vec19RawVec$LT$T$C$A$GT$16reserve_for_push17h2bcc29e950a80178E>:
1000073f0: ff 43 01 d1 	sub	sp, sp, #80
1000073f4: f4 4f 03 a9 	stp	x20, x19, [sp, #48]
1000073f8: fd 7b 04 a9 	stp	x29, x30, [sp, #64]
1000073fc: fd 03 01 91 	add	x29, sp, #64
100007400: 29 04 00 b1 	adds	x9, x1, #1
100007404: c2 03 00 54 	b.hs	0x10000747c <__ZN5alloc7raw_vec19RawVec$LT$T$C$A$GT$16reserve_for_push17h2bcc29e950a80178E+0x8c>
100007408: f3 03 00 aa 	mov	x19, x0
10000740c: 08 00 40 f9 	ldr	x8, [x0]
100007410: 0a f9 7f d3 	lsl	x10, x8, #1
100007414: 5f 01 09 eb 	cmp	x10, x9
100007418: 49 81 89 9a 	csel	x9, x10, x9, hi
10000741c: 8a 00 80 52 	mov	w10, #4
100007420: 3f 11 00 f1 	cmp	x9, #4
100007424: 34 81 8a 9a 	csel	x20, x9, x10, hi
100007428: 81 f2 7d d3 	lsl	x1, x20, #3
10000742c: 89 fe 7c d3 	lsr	x9, x20, #60
100007430: 3f 01 00 f1 	cmp	x9, #0
100007434: e9 17 9f 1a 	cset	w9, eq
100007438: 22 f1 7d d3 	lsl	x2, x9, #3
10000743c: 28 02 00 b4 	cbz	x8, 0x100007480 <__ZN5alloc7raw_vec19RawVec$LT$T$C$A$GT$16reserve_for_push17h2bcc29e950a80178E+0x90>
100007440: 69 06 40 f9 	ldr	x9, [x19, #8]
100007444: 08 f1 7d d3 	lsl	x8, x8, #3
100007448: e9 a3 01 a9 	stp	x9, x8, [sp, #24]
10000744c: 08 01 80 52 	mov	w8, #8
100007450: e8 17 00 f9 	str	x8, [sp, #40]
100007454: e0 03 00 91 	mov	x0, sp
100007458: e3 63 00 91 	add	x3, sp, #24
10000745c: 90 ff ff 97 	bl	0x10000729c <__ZN5alloc7raw_vec11finish_grow17ha0ccd9aa4f3888c2E>
100007460: e8 03 40 a9 	ldp	x8, x0, [sp]
100007464: a8 01 00 b4 	cbz	x8, 0x100007498 <__ZN5alloc7raw_vec19RawVec$LT$T$C$A$GT$16reserve_for_push17h2bcc29e950a80178E+0xa8>
100007468: e1 0b 40 f9 	ldr	x1, [sp, #16]
10000746c: e8 07 41 b2 	mov	x8, #-9223372036854775807
100007470: 3f 00 08 eb 	cmp	x1, x8
100007474: 40 01 00 54 	b.eq	0x10000749c <__ZN5alloc7raw_vec19RawVec$LT$T$C$A$GT$16reserve_for_push17h2bcc29e950a80178E+0xac>
100007478: a1 01 00 b5 	cbnz	x1, 0x1000074ac <__ZN5alloc7raw_vec19RawVec$LT$T$C$A$GT$16reserve_for_push17h2bcc29e950a80178E+0xbc>
10000747c: 3c 89 00 94 	bl	0x10002996c <__ZN5alloc7raw_vec17capacity_overflow17hae9a8565fffb202aE>
100007480: ff 17 00 f9 	str	xzr, [sp, #40]
100007484: e0 03 00 91 	mov	x0, sp
100007488: e3 63 00 91 	add	x3, sp, #24
10000748c: 84 ff ff 97 	bl	0x10000729c <__ZN5alloc7raw_vec11finish_grow17ha0ccd9aa4f3888c2E>
100007490: e8 03 40 a9 	ldp	x8, x0, [sp]
100007494: a8 fe ff b5 	cbnz	x8, 0x100007468 <__ZN5alloc7raw_vec19RawVec$LT$T$C$A$GT$16reserve_for_push17h2bcc29e950a80178E+0x78>
100007498: 74 02 00 a9 	stp	x20, x0, [x19]
10000749c: fd 7b 44 a9 	ldp	x29, x30, [sp, #64]
1000074a0: f4 4f 43 a9 	ldp	x20, x19, [sp, #48]
1000074a4: ff 43 01 91 	add	sp, sp, #80
1000074a8: c0 03 5f d6 	ret
1000074ac: 77 a9 00 94 	bl	0x100031a88 <__ZN5alloc5alloc18handle_alloc_error17h98ae248b28eb0c8fE>

00000001000074b0 <__ZN5alloc7raw_vec19RawVec$LT$T$C$A$GT$16reserve_for_push17h4423f95c865920e3E>:
1000074b0: ff 43 01 d1 	sub	sp, sp, #80
1000074b4: f4 4f 03 a9 	stp	x20, x19, [sp, #48]
1000074b8: fd 7b 04 a9 	stp	x29, x30, [sp, #64]
1000074bc: fd 03 01 91 	add	x29, sp, #64
1000074c0: 29 04 00 b1 	adds	x9, x1, #1
1000074c4: c2 03 00 54 	b.hs	0x10000753c <__ZN5alloc7raw_vec19RawVec$LT$T$C$A$GT$16reserve_for_push17h4423f95c865920e3E+0x8c>
1000074c8: f3 03 00 aa 	mov	x19, x0
1000074cc: 08 00 40 f9 	ldr	x8, [x0]
1000074d0: 0a f9 7f d3 	lsl	x10, x8, #1
1000074d4: 5f 01 09 eb 	cmp	x10, x9
1000074d8: 49 81 89 9a 	csel	x9, x10, x9, hi
1000074dc: 8a 00 80 52 	mov	w10, #4
1000074e0: 3f 11 00 f1 	cmp	x9, #4
1000074e4: 34 81 8a 9a 	csel	x20, x9, x10, hi
1000074e8: 81 ea 7b d3 	lsl	x1, x20, #5
1000074ec: 89 fe 7a d3 	lsr	x9, x20, #58
1000074f0: 3f 01 00 f1 	cmp	x9, #0
1000074f4: e9 17 9f 1a 	cset	w9, eq
1000074f8: 22 f1 7d d3 	lsl	x2, x9, #3
1000074fc: 28 02 00 b4 	cbz	x8, 0x100007540 <__ZN5alloc7raw_vec19RawVec$LT$T$C$A$GT$16reserve_for_push17h4423f95c865920e3E+0x90>
100007500: 69 06 40 f9 	ldr	x9, [x19, #8]
100007504: 08 e9 7b d3 	lsl	x8, x8, #5
100007508: e9 a3 01 a9 	stp	x9, x8, [sp, #24]
10000750c: 08 01 80 52 	mov	w8, #8
100007510: e8 17 00 f9 	str	x8, [sp, #40]
100007514: e0 03 00 91 	mov	x0, sp
100007518: e3 63 00 91 	add	x3, sp, #24
10000751c: 60 ff ff 97 	bl	0x10000729c <__ZN5alloc7raw_vec11finish_grow17ha0ccd9aa4f3888c2E>
100007520: e8 03 40 a9 	ldp	x8, x0, [sp]
100007524: a8 01 00 b4 	cbz	x8, 0x100007558 <__ZN5alloc7raw_vec19RawVec$LT$T$C$A$GT$16reserve_for_push17h4423f95c865920e3E+0xa8>
100007528: e1 0b 40 f9 	ldr	x1, [sp, #16]
10000752c: e8 07 41 b2 	mov	x8, #-9223372036854775807
100007530: 3f 00 08 eb 	cmp	x1, x8
100007534: 40 01 00 54 	b.eq	0x10000755c <__ZN5alloc7raw_vec19RawVec$LT$T$C$A$GT$16reserve_for_push17h4423f95c865920e3E+0xac>
100007538: a1 01 00 b5 	cbnz	x1, 0x10000756c <__ZN5alloc7raw_vec19RawVec$LT$T$C$A$GT$16reserve_for_push17h4423f95c865920e3E+0xbc>
10000753c: 0c 89 00 94 	bl	0x10002996c <__ZN5alloc7raw_vec17capacity_overflow17hae9a8565fffb202aE>
100007540: ff 17 00 f9 	str	xzr, [sp, #40]
100007544: e0 03 00 91 	mov	x0, sp
100007548: e3 63 00 91 	add	x3, sp, #24
10000754c: 54 ff ff 97 	bl	0x10000729c <__ZN5alloc7raw_vec11finish_grow17ha0ccd9aa4f3888c2E>
100007550: e8 03 40 a9 	ldp	x8, x0, [sp]
100007554: a8 fe ff b5 	cbnz	x8, 0x100007528 <__ZN5alloc7raw_vec19RawVec$LT$T$C$A$GT$16reserve_for_push17h4423f95c865920e3E+0x78>
100007558: 74 02 00 a9 	stp	x20, x0, [x19]
10000755c: fd 7b 44 a9 	ldp	x29, x30, [sp, #64]
100007560: f4 4f 43 a9 	ldp	x20, x19, [sp, #48]
100007564: ff 43 01 91 	add	sp, sp, #80
100007568: c0 03 5f d6 	ret
10000756c: 47 a9 00 94 	bl	0x100031a88 <__ZN5alloc5alloc18handle_alloc_error17h98ae248b28eb0c8fE>

0000000100007570 <__ZN5alloc7raw_vec19RawVec$LT$T$C$A$GT$16reserve_for_push17h44808664a55457bcE>:
100007570: ff 43 01 d1 	sub	sp, sp, #80
100007574: f4 4f 03 a9 	stp	x20, x19, [sp, #48]
100007578: fd 7b 04 a9 	stp	x29, x30, [sp, #64]
10000757c: fd 03 01 91 	add	x29, sp, #64
100007580: 29 04 00 b1 	adds	x9, x1, #1
100007584: 62 04 00 54 	b.hs	0x100007610 <__ZN5alloc7raw_vec19RawVec$LT$T$C$A$GT$16reserve_for_push17h44808664a55457bcE+0xa0>
100007588: f3 03 00 aa 	mov	x19, x0
10000758c: 08 00 40 f9 	ldr	x8, [x0]
100007590: 0a f9 7f d3 	lsl	x10, x8, #1
100007594: 5f 01 09 eb 	cmp	x10, x9
100007598: 49 81 89 9a 	csel	x9, x10, x9, hi
10000759c: 8a 00 80 52 	mov	w10, #4
1000075a0: 3f 11 00 f1 	cmp	x9, #4
1000075a4: 34 81 8a 9a 	csel	x20, x9, x10, hi
1000075a8: e9 e7 00 b2 	mov	x9, #3689348814741910323
1000075ac: 89 66 86 f2 	movk	x9, #13108
1000075b0: 69 66 e0 f2 	movk	x9, #819, lsl #48
1000075b4: 29 05 00 d1 	sub	x9, x9, #1
1000075b8: 9f 02 09 eb 	cmp	x20, x9
1000075bc: 89 0a 14 8b 	add	x9, x20, x20, lsl #2
1000075c0: ea 87 9f 1a 	cset	w10, ls
1000075c4: 21 f1 7d d3 	lsl	x1, x9, #3
1000075c8: 42 f1 7d d3 	lsl	x2, x10, #3
1000075cc: 48 02 00 b4 	cbz	x8, 0x100007614 <__ZN5alloc7raw_vec19RawVec$LT$T$C$A$GT$16reserve_for_push17h44808664a55457bcE+0xa4>
1000075d0: 69 06 40 f9 	ldr	x9, [x19, #8]
1000075d4: 08 09 08 8b 	add	x8, x8, x8, lsl #2
1000075d8: 08 f1 7d d3 	lsl	x8, x8, #3
1000075dc: e9 a3 01 a9 	stp	x9, x8, [sp, #24]
1000075e0: 08 01 80 52 	mov	w8, #8
1000075e4: e8 17 00 f9 	str	x8, [sp, #40]
1000075e8: e0 03 00 91 	mov	x0, sp
1000075ec: e3 63 00 91 	add	x3, sp, #24
1000075f0: 2b ff ff 97 	bl	0x10000729c <__ZN5alloc7raw_vec11finish_grow17ha0ccd9aa4f3888c2E>
1000075f4: e8 03 40 a9 	ldp	x8, x0, [sp]
1000075f8: a8 01 00 b4 	cbz	x8, 0x10000762c <__ZN5alloc7raw_vec19RawVec$LT$T$C$A$GT$16reserve_for_push17h44808664a55457bcE+0xbc>
1000075fc: e1 0b 40 f9 	ldr	x1, [sp, #16]
100007600: e8 07 41 b2 	mov	x8, #-9223372036854775807
100007604: 3f 00 08 eb 	cmp	x1, x8
100007608: 40 01 00 54 	b.eq	0x100007630 <__ZN5alloc7raw_vec19RawVec$LT$T$C$A$GT$16reserve_for_push17h44808664a55457bcE+0xc0>
10000760c: a1 01 00 b5 	cbnz	x1, 0x100007640 <__ZN5alloc7raw_vec19RawVec$LT$T$C$A$GT$16reserve_for_push17h44808664a55457bcE+0xd0>
100007610: d7 88 00 94 	bl	0x10002996c <__ZN5alloc7raw_vec17capacity_overflow17hae9a8565fffb202aE>
100007614: ff 17 00 f9 	str	xzr, [sp, #40]
100007618: e0 03 00 91 	mov	x0, sp
10000761c: e3 63 00 91 	add	x3, sp, #24
100007620: 1f ff ff 97 	bl	0x10000729c <__ZN5alloc7raw_vec11finish_grow17ha0ccd9aa4f3888c2E>
100007624: e8 03 40 a9 	ldp	x8, x0, [sp]
100007628: a8 fe ff b5 	cbnz	x8, 0x1000075fc <__ZN5alloc7raw_vec19RawVec$LT$T$C$A$GT$16reserve_for_push17h44808664a55457bcE+0x8c>
10000762c: 74 02 00 a9 	stp	x20, x0, [x19]
100007630: fd 7b 44 a9 	ldp	x29, x30, [sp, #64]
100007634: f4 4f 43 a9 	ldp	x20, x19, [sp, #48]
100007638: ff 43 01 91 	add	sp, sp, #80
10000763c: c0 03 5f d6 	ret
100007640: 12 a9 00 94 	bl	0x100031a88 <__ZN5alloc5alloc18handle_alloc_error17h98ae248b28eb0c8fE>

0000000100007644 <__ZN5alloc7raw_vec19RawVec$LT$T$C$A$GT$16reserve_for_push17h5892fb1a519e4384E>:
100007644: ff 43 01 d1 	sub	sp, sp, #80
100007648: f4 4f 03 a9 	stp	x20, x19, [sp, #48]
10000764c: fd 7b 04 a9 	stp	x29, x30, [sp, #64]
100007650: fd 03 01 91 	add	x29, sp, #64
100007654: 29 04 00 b1 	adds	x9, x1, #1
100007658: c2 03 00 54 	b.hs	0x1000076d0 <__ZN5alloc7raw_vec19RawVec$LT$T$C$A$GT$16reserve_for_push17h5892fb1a519e4384E+0x8c>
10000765c: f3 03 00 aa 	mov	x19, x0
100007660: 08 00 40 f9 	ldr	x8, [x0]
100007664: 0a f9 7f d3 	lsl	x10, x8, #1
100007668: 5f 01 09 eb 	cmp	x10, x9
10000766c: 49 81 89 9a 	csel	x9, x10, x9, hi
100007670: 8a 00 80 52 	mov	w10, #4
100007674: 3f 11 00 f1 	cmp	x9, #4
100007678: 34 81 8a 9a 	csel	x20, x9, x10, hi
10000767c: 81 f6 7e d3 	lsl	x1, x20, #2
100007680: 89 fe 7d d3 	lsr	x9, x20, #61
100007684: 3f 01 00 f1 	cmp	x9, #0
100007688: e9 17 9f 1a 	cset	w9, eq
10000768c: 22 f9 7f d3 	lsl	x2, x9, #1
100007690: 28 02 00 b4 	cbz	x8, 0x1000076d4 <__ZN5alloc7raw_vec19RawVec$LT$T$C$A$GT$16reserve_for_push17h5892fb1a519e4384E+0x90>
100007694: 69 06 40 f9 	ldr	x9, [x19, #8]
100007698: 08 f5 7e d3 	lsl	x8, x8, #2
10000769c: e9 a3 01 a9 	stp	x9, x8, [sp, #24]
1000076a0: 48 00 80 52 	mov	w8, #2
1000076a4: e8 17 00 f9 	str	x8, [sp, #40]
1000076a8: e0 03 00 91 	mov	x0, sp
1000076ac: e3 63 00 91 	add	x3, sp, #24
1000076b0: fb fe ff 97 	bl	0x10000729c <__ZN5alloc7raw_vec11finish_grow17ha0ccd9aa4f3888c2E>
1000076b4: e8 03 40 a9 	ldp	x8, x0, [sp]
1000076b8: a8 01 00 b4 	cbz	x8, 0x1000076ec <__ZN5alloc7raw_vec19RawVec$LT$T$C$A$GT$16reserve_for_push17h5892fb1a519e4384E+0xa8>
1000076bc: e1 0b 40 f9 	ldr	x1, [sp, #16]
1000076c0: e8 07 41 b2 	mov	x8, #-9223372036854775807
1000076c4: 3f 00 08 eb 	cmp	x1, x8
1000076c8: 40 01 00 54 	b.eq	0x1000076f0 <__ZN5alloc7raw_vec19RawVec$LT$T$C$A$GT$16reserve_for_push17h5892fb1a519e4384E+0xac>
1000076cc: a1 01 00 b5 	cbnz	x1, 0x100007700 <__ZN5alloc7raw_vec19RawVec$LT$T$C$A$GT$16reserve_for_push17h5892fb1a519e4384E+0xbc>
1000076d0: a7 88 00 94 	bl	0x10002996c <__ZN5alloc7raw_vec17capacity_overflow17hae9a8565fffb202aE>
1000076d4: ff 17 00 f9 	str	xzr, [sp, #40]
1000076d8: e0 03 00 91 	mov	x0, sp
1000076dc: e3 63 00 91 	add	x3, sp, #24
1000076e0: ef fe ff 97 	bl	0x10000729c <__ZN5alloc7raw_vec11finish_grow17ha0ccd9aa4f3888c2E>
1000076e4: e8 03 40 a9 	ldp	x8, x0, [sp]
1000076e8: a8 fe ff b5 	cbnz	x8, 0x1000076bc <__ZN5alloc7raw_vec19RawVec$LT$T$C$A$GT$16reserve_for_push17h5892fb1a519e4384E+0x78>
1000076ec: 74 02 00 a9 	stp	x20, x0, [x19]
1000076f0: fd 7b 44 a9 	ldp	x29, x30, [sp, #64]
1000076f4: f4 4f 43 a9 	ldp	x20, x19, [sp, #48]
1000076f8: ff 43 01 91 	add	sp, sp, #80
1000076fc: c0 03 5f d6 	ret
100007700: e2 a8 00 94 	bl	0x100031a88 <__ZN5alloc5alloc18handle_alloc_error17h98ae248b28eb0c8fE>

0000000100007704 <__ZN5alloc7raw_vec19RawVec$LT$T$C$A$GT$16reserve_for_push17h6b9270ac20d89df3E>:
100007704: ff 43 01 d1 	sub	sp, sp, #80
100007708: f4 4f 03 a9 	stp	x20, x19, [sp, #48]
10000770c: fd 7b 04 a9 	stp	x29, x30, [sp, #64]
100007710: fd 03 01 91 	add	x29, sp, #64
100007714: 29 04 00 b1 	adds	x9, x1, #1
100007718: 62 04 00 54 	b.hs	0x1000077a4 <__ZN5alloc7raw_vec19RawVec$LT$T$C$A$GT$16reserve_for_push17h6b9270ac20d89df3E+0xa0>
10000771c: f3 03 00 aa 	mov	x19, x0
100007720: 08 00 40 f9 	ldr	x8, [x0]
100007724: 0a f9 7f d3 	lsl	x10, x8, #1
100007728: 5f 01 09 eb 	cmp	x10, x9
10000772c: 49 81 89 9a 	csel	x9, x10, x9, hi
100007730: 8a 00 80 52 	mov	w10, #4
100007734: 3f 11 00 f1 	cmp	x9, #4
100007738: 34 81 8a 9a 	csel	x20, x9, x10, hi
10000773c: e9 f3 00 b2 	mov	x9, #6148914691236517205
100007740: c9 aa 8a f2 	movk	x9, #21846
100007744: a9 aa e0 f2 	movk	x9, #1365, lsl #48
100007748: 29 05 00 d1 	sub	x9, x9, #1
10000774c: 9f 02 09 eb 	cmp	x20, x9
100007750: 89 06 14 8b 	add	x9, x20, x20, lsl #1
100007754: ea 87 9f 1a 	cset	w10, ls
100007758: 21 f1 7d d3 	lsl	x1, x9, #3
10000775c: 42 f1 7d d3 	lsl	x2, x10, #3
100007760: 48 02 00 b4 	cbz	x8, 0x1000077a8 <__ZN5alloc7raw_vec19RawVec$LT$T$C$A$GT$16reserve_for_push17h6b9270ac20d89df3E+0xa4>
100007764: 69 06 40 f9 	ldr	x9, [x19, #8]
100007768: 08 05 08 8b 	add	x8, x8, x8, lsl #1
10000776c: 08 f1 7d d3 	lsl	x8, x8, #3
100007770: e9 a3 01 a9 	stp	x9, x8, [sp, #24]
100007774: 08 01 80 52 	mov	w8, #8
100007778: e8 17 00 f9 	str	x8, [sp, #40]
10000777c: e0 03 00 91 	mov	x0, sp
100007780: e3 63 00 91 	add	x3, sp, #24
100007784: c6 fe ff 97 	bl	0x10000729c <__ZN5alloc7raw_vec11finish_grow17ha0ccd9aa4f3888c2E>
100007788: e8 03 40 a9 	ldp	x8, x0, [sp]
10000778c: a8 01 00 b4 	cbz	x8, 0x1000077c0 <__ZN5alloc7raw_vec19RawVec$LT$T$C$A$GT$16reserve_for_push17h6b9270ac20d89df3E+0xbc>
100007790: e1 0b 40 f9 	ldr	x1, [sp, #16]
100007794: e8 07 41 b2 	mov	x8, #-9223372036854775807
100007798: 3f 00 08 eb 	cmp	x1, x8
10000779c: 40 01 00 54 	b.eq	0x1000077c4 <__ZN5alloc7raw_vec19RawVec$LT$T$C$A$GT$16reserve_for_push17h6b9270ac20d89df3E+0xc0>
1000077a0: a1 01 00 b5 	cbnz	x1, 0x1000077d4 <__ZN5alloc7raw_vec19RawVec$LT$T$C$A$GT$16reserve_for_push17h6b9270ac20d89df3E+0xd0>
1000077a4: 72 88 00 94 	bl	0x10002996c <__ZN5alloc7raw_vec17capacity_overflow17hae9a8565fffb202aE>
1000077a8: ff 17 00 f9 	str	xzr, [sp, #40]
1000077ac: e0 03 00 91 	mov	x0, sp
1000077b0: e3 63 00 91 	add	x3, sp, #24
1000077b4: ba fe ff 97 	bl	0x10000729c <__ZN5alloc7raw_vec11finish_grow17ha0ccd9aa4f3888c2E>
1000077b8: e8 03 40 a9 	ldp	x8, x0, [sp]
1000077bc: a8 fe ff b5 	cbnz	x8, 0x100007790 <__ZN5alloc7raw_vec19RawVec$LT$T$C$A$GT$16reserve_for_push17h6b9270ac20d89df3E+0x8c>
1000077c0: 74 02 00 a9 	stp	x20, x0, [x19]
1000077c4: fd 7b 44 a9 	ldp	x29, x30, [sp, #64]
1000077c8: f4 4f 43 a9 	ldp	x20, x19, [sp, #48]
1000077cc: ff 43 01 91 	add	sp, sp, #80
1000077d0: c0 03 5f d6 	ret
1000077d4: ad a8 00 94 	bl	0x100031a88 <__ZN5alloc5alloc18handle_alloc_error17h98ae248b28eb0c8fE>

00000001000077d8 <__ZN5alloc7raw_vec19RawVec$LT$T$C$A$GT$16reserve_for_push17h82d9cad47ca1c942E>:
1000077d8: ff 43 01 d1 	sub	sp, sp, #80
1000077dc: f4 4f 03 a9 	stp	x20, x19, [sp, #48]
1000077e0: fd 7b 04 a9 	stp	x29, x30, [sp, #64]
1000077e4: fd 03 01 91 	add	x29, sp, #64
1000077e8: 29 04 00 b1 	adds	x9, x1, #1
1000077ec: 62 04 00 54 	b.hs	0x100007878 <__ZN5alloc7raw_vec19RawVec$LT$T$C$A$GT$16reserve_for_push17h82d9cad47ca1c942E+0xa0>
1000077f0: f3 03 00 aa 	mov	x19, x0
1000077f4: 08 00 40 f9 	ldr	x8, [x0]
1000077f8: 0a f9 7f d3 	lsl	x10, x8, #1
1000077fc: 5f 01 09 eb 	cmp	x10, x9
100007800: 49 81 89 9a 	csel	x9, x10, x9, hi
100007804: 8a 00 80 52 	mov	w10, #4
100007808: 3f 11 00 f1 	cmp	x9, #4
10000780c: 34 81 8a 9a 	csel	x20, x9, x10, hi
100007810: 49 07 95 d2 	mov	x9, #43066
100007814: 69 50 a7 f2 	movk	x9, #14979, lsl #16
100007818: 09 75 d0 f2 	movk	x9, #33704, lsl #32
10000781c: 49 07 e0 f2 	movk	x9, #58, lsl #48
100007820: 9f 02 09 eb 	cmp	x20, x9
100007824: e9 87 9f 1a 	cset	w9, ls
100007828: 0a 46 80 52 	mov	w10, #560
10000782c: 81 7e 0a 9b 	mul	x1, x20, x10
100007830: 22 f1 7d d3 	lsl	x2, x9, #3
100007834: 48 02 00 b4 	cbz	x8, 0x10000787c <__ZN5alloc7raw_vec19RawVec$LT$T$C$A$GT$16reserve_for_push17h82d9cad47ca1c942E+0xa4>
100007838: 69 06 40 f9 	ldr	x9, [x19, #8]
10000783c: 0a 46 80 52 	mov	w10, #560
100007840: 08 7d 0a 9b 	mul	x8, x8, x10
100007844: e9 a3 01 a9 	stp	x9, x8, [sp, #24]
100007848: 08 01 80 52 	mov	w8, #8
10000784c: e8 17 00 f9 	str	x8, [sp, #40]
100007850: e0 03 00 91 	mov	x0, sp
100007854: e3 63 00 91 	add	x3, sp, #24
100007858: 91 fe ff 97 	bl	0x10000729c <__ZN5alloc7raw_vec11finish_grow17ha0ccd9aa4f3888c2E>
10000785c: e8 03 40 a9 	ldp	x8, x0, [sp]
100007860: a8 01 00 b4 	cbz	x8, 0x100007894 <__ZN5alloc7raw_vec19RawVec$LT$T$C$A$GT$16reserve_for_push17h82d9cad47ca1c942E+0xbc>
100007864: e1 0b 40 f9 	ldr	x1, [sp, #16]
100007868: e8 07 41 b2 	mov	x8, #-9223372036854775807
10000786c: 3f 00 08 eb 	cmp	x1, x8
100007870: 40 01 00 54 	b.eq	0x100007898 <__ZN5alloc7raw_vec19RawVec$LT$T$C$A$GT$16reserve_for_push17h82d9cad47ca1c942E+0xc0>
100007874: a1 01 00 b5 	cbnz	x1, 0x1000078a8 <__ZN5alloc7raw_vec19RawVec$LT$T$C$A$GT$16reserve_for_push17h82d9cad47ca1c942E+0xd0>
100007878: 3d 88 00 94 	bl	0x10002996c <__ZN5alloc7raw_vec17capacity_overflow17hae9a8565fffb202aE>
10000787c: ff 17 00 f9 	str	xzr, [sp, #40]
100007880: e0 03 00 91 	mov	x0, sp
100007884: e3 63 00 91 	add	x3, sp, #24
100007888: 85 fe ff 97 	bl	0x10000729c <__ZN5alloc7raw_vec11finish_grow17ha0ccd9aa4f3888c2E>
10000788c: e8 03 40 a9 	ldp	x8, x0, [sp]
100007890: a8 fe ff b5 	cbnz	x8, 0x100007864 <__ZN5alloc7raw_vec19RawVec$LT$T$C$A$GT$16reserve_for_push17h82d9cad47ca1c942E+0x8c>
100007894: 74 02 00 a9 	stp	x20, x0, [x19]
100007898: fd 7b 44 a9 	ldp	x29, x30, [sp, #64]
10000789c: f4 4f 43 a9 	ldp	x20, x19, [sp, #48]
1000078a0: ff 43 01 91 	add	sp, sp, #80
1000078a4: c0 03 5f d6 	ret
1000078a8: 78 a8 00 94 	bl	0x100031a88 <__ZN5alloc5alloc18handle_alloc_error17h98ae248b28eb0c8fE>

00000001000078ac <__ZN5alloc7raw_vec19RawVec$LT$T$C$A$GT$16reserve_for_push17h91973dbf9a84da70E>:
1000078ac: ff 43 01 d1 	sub	sp, sp, #80
1000078b0: f4 4f 03 a9 	stp	x20, x19, [sp, #48]
1000078b4: fd 7b 04 a9 	stp	x29, x30, [sp, #64]
1000078b8: fd 03 01 91 	add	x29, sp, #64
1000078bc: 29 04 00 b1 	adds	x9, x1, #1
1000078c0: 62 04 00 54 	b.hs	0x10000794c <__ZN5alloc7raw_vec19RawVec$LT$T$C$A$GT$16reserve_for_push17h91973dbf9a84da70E+0xa0>
1000078c4: f3 03 00 aa 	mov	x19, x0
1000078c8: 08 00 40 f9 	ldr	x8, [x0]
1000078cc: 0a f9 7f d3 	lsl	x10, x8, #1
1000078d0: 5f 01 09 eb 	cmp	x10, x9
1000078d4: 49 81 89 9a 	csel	x9, x10, x9, hi
1000078d8: 8a 00 80 52 	mov	w10, #4
1000078dc: 3f 11 00 f1 	cmp	x9, #4
1000078e0: 34 81 8a 9a 	csel	x20, x9, x10, hi
1000078e4: e9 38 8e d2 	mov	x9, #29127
1000078e8: 89 e3 b8 f2 	movk	x9, #50972, lsl #16
1000078ec: 29 8e c3 f2 	movk	x9, #7281, lsl #32
1000078f0: e9 38 e0 f2 	movk	x9, #455, lsl #48
1000078f4: 9f 02 09 eb 	cmp	x20, x9
1000078f8: 89 0e 14 8b 	add	x9, x20, x20, lsl #3
1000078fc: ea 87 9f 1a 	cset	w10, ls
100007900: 21 f1 7d d3 	lsl	x1, x9, #3
100007904: 42 f1 7d d3 	lsl	x2, x10, #3
100007908: 48 02 00 b4 	cbz	x8, 0x100007950 <__ZN5alloc7raw_vec19RawVec$LT$T$C$A$GT$16reserve_for_push17h91973dbf9a84da70E+0xa4>
10000790c: 69 06 40 f9 	ldr	x9, [x19, #8]
100007910: 08 0d 08 8b 	add	x8, x8, x8, lsl #3
100007914: 08 f1 7d d3 	lsl	x8, x8, #3
100007918: e9 a3 01 a9 	stp	x9, x8, [sp, #24]
10000791c: 08 01 80 52 	mov	w8, #8
100007920: e8 17 00 f9 	str	x8, [sp, #40]
100007924: e0 03 00 91 	mov	x0, sp
100007928: e3 63 00 91 	add	x3, sp, #24
10000792c: 5c fe ff 97 	bl	0x10000729c <__ZN5alloc7raw_vec11finish_grow17ha0ccd9aa4f3888c2E>
100007930: e8 03 40 a9 	ldp	x8, x0, [sp]
100007934: a8 01 00 b4 	cbz	x8, 0x100007968 <__ZN5alloc7raw_vec19RawVec$LT$T$C$A$GT$16reserve_for_push17h91973dbf9a84da70E+0xbc>
100007938: e1 0b 40 f9 	ldr	x1, [sp, #16]
10000793c: e8 07 41 b2 	mov	x8, #-9223372036854775807
100007940: 3f 00 08 eb 	cmp	x1, x8
100007944: 40 01 00 54 	b.eq	0x10000796c <__ZN5alloc7raw_vec19RawVec$LT$T$C$A$GT$16reserve_for_push17h91973dbf9a84da70E+0xc0>
100007948: a1 01 00 b5 	cbnz	x1, 0x10000797c <__ZN5alloc7raw_vec19RawVec$LT$T$C$A$GT$16reserve_for_push17h91973dbf9a84da70E+0xd0>
10000794c: 08 88 00 94 	bl	0x10002996c <__ZN5alloc7raw_vec17capacity_overflow17hae9a8565fffb202aE>
100007950: ff 17 00 f9 	str	xzr, [sp, #40]
100007954: e0 03 00 91 	mov	x0, sp
100007958: e3 63 00 91 	add	x3, sp, #24
10000795c: 50 fe ff 97 	bl	0x10000729c <__ZN5alloc7raw_vec11finish_grow17ha0ccd9aa4f3888c2E>
100007960: e8 03 40 a9 	ldp	x8, x0, [sp]
100007964: a8 fe ff b5 	cbnz	x8, 0x100007938 <__ZN5alloc7raw_vec19RawVec$LT$T$C$A$GT$16reserve_for_push17h91973dbf9a84da70E+0x8c>
100007968: 74 02 00 a9 	stp	x20, x0, [x19]
10000796c: fd 7b 44 a9 	ldp	x29, x30, [sp, #64]
100007970: f4 4f 43 a9 	ldp	x20, x19, [sp, #48]
100007974: ff 43 01 91 	add	sp, sp, #80
100007978: c0 03 5f d6 	ret
10000797c: 43 a8 00 94 	bl	0x100031a88 <__ZN5alloc5alloc18handle_alloc_error17h98ae248b28eb0c8fE>

0000000100007980 <__ZN5alloc7raw_vec19RawVec$LT$T$C$A$GT$16reserve_for_push17hba24b4f46fe5439bE>:
100007980: ff 43 01 d1 	sub	sp, sp, #80
100007984: f4 4f 03 a9 	stp	x20, x19, [sp, #48]
100007988: fd 7b 04 a9 	stp	x29, x30, [sp, #64]
10000798c: fd 03 01 91 	add	x29, sp, #64
100007990: 29 04 00 b1 	adds	x9, x1, #1
100007994: 82 03 00 54 	b.hs	0x100007a04 <__ZN5alloc7raw_vec19RawVec$LT$T$C$A$GT$16reserve_for_push17hba24b4f46fe5439bE+0x84>
100007998: f3 03 00 aa 	mov	x19, x0
10000799c: 08 00 40 f9 	ldr	x8, [x0]
1000079a0: 0a f9 7f d3 	lsl	x10, x8, #1
1000079a4: 5f 01 09 eb 	cmp	x10, x9
1000079a8: 49 81 89 9a 	csel	x9, x10, x9, hi
1000079ac: 0a 01 80 52 	mov	w10, #8
1000079b0: 3f 21 00 f1 	cmp	x9, #8
1000079b4: 34 81 8a 9a 	csel	x20, x9, x10, hi
1000079b8: e9 03 34 aa 	mvn	x9, x20
1000079bc: 22 fd 7f d3 	lsr	x2, x9, #63
1000079c0: 48 02 00 b4 	cbz	x8, 0x100007a08 <__ZN5alloc7raw_vec19RawVec$LT$T$C$A$GT$16reserve_for_push17hba24b4f46fe5439bE+0x88>
1000079c4: 69 06 40 f9 	ldr	x9, [x19, #8]
1000079c8: ea 03 28 aa 	mvn	x10, x8
1000079cc: 4a fd 7f d3 	lsr	x10, x10, #63
1000079d0: e9 a3 01 a9 	stp	x9, x8, [sp, #24]
1000079d4: ea 17 00 f9 	str	x10, [sp, #40]
1000079d8: e0 03 00 91 	mov	x0, sp
1000079dc: e3 63 00 91 	add	x3, sp, #24
1000079e0: e1 03 14 aa 	mov	x1, x20
1000079e4: 2e fe ff 97 	bl	0x10000729c <__ZN5alloc7raw_vec11finish_grow17ha0ccd9aa4f3888c2E>
1000079e8: e8 03 40 a9 	ldp	x8, x0, [sp]
1000079ec: c8 01 00 b4 	cbz	x8, 0x100007a24 <__ZN5alloc7raw_vec19RawVec$LT$T$C$A$GT$16reserve_for_push17hba24b4f46fe5439bE+0xa4>
1000079f0: e1 0b 40 f9 	ldr	x1, [sp, #16]
1000079f4: e8 07 41 b2 	mov	x8, #-9223372036854775807
1000079f8: 3f 00 08 eb 	cmp	x1, x8
1000079fc: 60 01 00 54 	b.eq	0x100007a28 <__ZN5alloc7raw_vec19RawVec$LT$T$C$A$GT$16reserve_for_push17hba24b4f46fe5439bE+0xa8>
100007a00: c1 01 00 b5 	cbnz	x1, 0x100007a38 <__ZN5alloc7raw_vec19RawVec$LT$T$C$A$GT$16reserve_for_push17hba24b4f46fe5439bE+0xb8>
100007a04: da 87 00 94 	bl	0x10002996c <__ZN5alloc7raw_vec17capacity_overflow17hae9a8565fffb202aE>
100007a08: ff 17 00 f9 	str	xzr, [sp, #40]
100007a0c: e0 03 00 91 	mov	x0, sp
100007a10: e3 63 00 91 	add	x3, sp, #24
100007a14: e1 03 14 aa 	mov	x1, x20
100007a18: 21 fe ff 97 	bl	0x10000729c <__ZN5alloc7raw_vec11finish_grow17ha0ccd9aa4f3888c2E>
100007a1c: e8 03 40 a9 	ldp	x8, x0, [sp]
100007a20: 88 fe ff b5 	cbnz	x8, 0x1000079f0 <__ZN5alloc7raw_vec19RawVec$LT$T$C$A$GT$16reserve_for_push17hba24b4f46fe5439bE+0x70>
100007a24: 74 02 00 a9 	stp	x20, x0, [x19]
100007a28: fd 7b 44 a9 	ldp	x29, x30, [sp, #64]
100007a2c: f4 4f 43 a9 	ldp	x20, x19, [sp, #48]
100007a30: ff 43 01 91 	add	sp, sp, #80
100007a34: c0 03 5f d6 	ret
100007a38: 14 a8 00 94 	bl	0x100031a88 <__ZN5alloc5alloc18handle_alloc_error17h98ae248b28eb0c8fE>

0000000100007a3c <__ZN5alloc7raw_vec19RawVec$LT$T$C$A$GT$16reserve_for_push17hc57569975bde6bd2E>:
100007a3c: ff 43 01 d1 	sub	sp, sp, #80
100007a40: f4 4f 03 a9 	stp	x20, x19, [sp, #48]
100007a44: fd 7b 04 a9 	stp	x29, x30, [sp, #64]
100007a48: fd 03 01 91 	add	x29, sp, #64
100007a4c: 29 04 00 b1 	adds	x9, x1, #1
100007a50: c2 03 00 54 	b.hs	0x100007ac8 <__ZN5alloc7raw_vec19RawVec$LT$T$C$A$GT$16reserve_for_push17hc57569975bde6bd2E+0x8c>
100007a54: f3 03 00 aa 	mov	x19, x0
100007a58: 08 00 40 f9 	ldr	x8, [x0]
100007a5c: 0a f9 7f d3 	lsl	x10, x8, #1
100007a60: 5f 01 09 eb 	cmp	x10, x9
100007a64: 49 81 89 9a 	csel	x9, x10, x9, hi
100007a68: 8a 00 80 52 	mov	w10, #4
100007a6c: 3f 11 00 f1 	cmp	x9, #4
100007a70: 34 81 8a 9a 	csel	x20, x9, x10, hi
100007a74: 81 e6 7a d3 	lsl	x1, x20, #6
100007a78: 89 fe 79 d3 	lsr	x9, x20, #57
100007a7c: 3f 01 00 f1 	cmp	x9, #0
100007a80: e9 17 9f 1a 	cset	w9, eq
100007a84: 22 f1 7d d3 	lsl	x2, x9, #3
100007a88: 28 02 00 b4 	cbz	x8, 0x100007acc <__ZN5alloc7raw_vec19RawVec$LT$T$C$A$GT$16reserve_for_push17hc57569975bde6bd2E+0x90>
100007a8c: 69 06 40 f9 	ldr	x9, [x19, #8]
100007a90: 08 e5 7a d3 	lsl	x8, x8, #6
100007a94: e9 a3 01 a9 	stp	x9, x8, [sp, #24]
100007a98: 08 01 80 52 	mov	w8, #8
100007a9c: e8 17 00 f9 	str	x8, [sp, #40]
100007aa0: e0 03 00 91 	mov	x0, sp
100007aa4: e3 63 00 91 	add	x3, sp, #24
100007aa8: fd fd ff 97 	bl	0x10000729c <__ZN5alloc7raw_vec11finish_grow17ha0ccd9aa4f3888c2E>
100007aac: e8 03 40 a9 	ldp	x8, x0, [sp]
100007ab0: a8 01 00 b4 	cbz	x8, 0x100007ae4 <__ZN5alloc7raw_vec19RawVec$LT$T$C$A$GT$16reserve_for_push17hc57569975bde6bd2E+0xa8>
100007ab4: e1 0b 40 f9 	ldr	x1, [sp, #16]
100007ab8: e8 07 41 b2 	mov	x8, #-9223372036854775807
100007abc: 3f 00 08 eb 	cmp	x1, x8
100007ac0: 40 01 00 54 	b.eq	0x100007ae8 <__ZN5alloc7raw_vec19RawVec$LT$T$C$A$GT$16reserve_for_push17hc57569975bde6bd2E+0xac>
100007ac4: a1 01 00 b5 	cbnz	x1, 0x100007af8 <__ZN5alloc7raw_vec19RawVec$LT$T$C$A$GT$16reserve_for_push17hc57569975bde6bd2E+0xbc>
100007ac8: a9 87 00 94 	bl	0x10002996c <__ZN5alloc7raw_vec17capacity_overflow17hae9a8565fffb202aE>
100007acc: ff 17 00 f9 	str	xzr, [sp, #40]
100007ad0: e0 03 00 91 	mov	x0, sp
100007ad4: e3 63 00 91 	add	x3, sp, #24
100007ad8: f1 fd ff 97 	bl	0x10000729c <__ZN5alloc7raw_vec11finish_grow17ha0ccd9aa4f3888c2E>
100007adc: e8 03 40 a9 	ldp	x8, x0, [sp]
100007ae0: a8 fe ff b5 	cbnz	x8, 0x100007ab4 <__ZN5alloc7raw_vec19RawVec$LT$T$C$A$GT$16reserve_for_push17hc57569975bde6bd2E+0x78>
100007ae4: 74 02 00 a9 	stp	x20, x0, [x19]
100007ae8: fd 7b 44 a9 	ldp	x29, x30, [sp, #64]
100007aec: f4 4f 43 a9 	ldp	x20, x19, [sp, #48]
100007af0: ff 43 01 91 	add	sp, sp, #80
100007af4: c0 03 5f d6 	ret
100007af8: e4 a7 00 94 	bl	0x100031a88 <__ZN5alloc5alloc18handle_alloc_error17h98ae248b28eb0c8fE>

0000000100007afc <__ZN5gimli4read4line15FileEntryFormat5parse17h2275715be8ee50a7E>:
100007afc: ff 03 02 d1 	sub	sp, sp, #128
100007b00: fc 6f 02 a9 	stp	x28, x27, [sp, #32]
100007b04: fa 67 03 a9 	stp	x26, x25, [sp, #48]
100007b08: f8 5f 04 a9 	stp	x24, x23, [sp, #64]
100007b0c: f6 57 05 a9 	stp	x22, x21, [sp, #80]
100007b10: f4 4f 06 a9 	stp	x20, x19, [sp, #96]
100007b14: fd 7b 07 a9 	stp	x29, x30, [sp, #112]
100007b18: fd c3 01 91 	add	x29, sp, #112
100007b1c: f3 03 00 aa 	mov	x19, x0
100007b20: 36 20 40 a9 	ldp	x22, x8, [x1]
100007b24: e8 0b 00 b4 	cbz	x8, 0x100007ca0 <__ZN5gimli4read4line15FileEntryFormat5parse17h2275715be8ee50a7E+0x1a4>
100007b28: f4 03 01 aa 	mov	x20, x1
100007b2c: d7 16 40 38 	ldrb	w23, [x22], #1
100007b30: 1a 05 00 d1 	sub	x26, x8, #1
100007b34: 36 68 00 a9 	stp	x22, x26, [x1]
100007b38: 57 0c 00 b4 	cbz	x23, 0x100007cc0 <__ZN5gimli4read4line15FileEntryFormat5parse17h2275715be8ee50a7E+0x1c4>
100007b3c: f5 f6 7e d3 	lsl	x21, x23, #2
100007b40: e0 03 15 aa 	mov	x0, x21
100007b44: 41 00 80 52 	mov	w1, #2
100007b48: c5 e9 ff 97 	bl	0x10000225c <___rust_alloc>
100007b4c: 40 12 00 b4 	cbz	x0, 0x100007d94 <__ZN5gimli4read4line15FileEntryFormat5parse17h2275715be8ee50a7E+0x298>
100007b50: 01 00 80 d2 	mov	x1, #0
100007b54: 18 00 80 52 	mov	w24, #0
100007b58: 19 00 80 d2 	mov	x25, #0
100007b5c: f7 83 00 a9 	stp	x23, x0, [sp, #8]
100007b60: ee ff 9f 52 	mov	w14, #65535
100007b64: ff 0f 00 f9 	str	xzr, [sp, #24]
100007b68: 09 00 80 d2 	mov	x9, #0
100007b6c: 0a 00 80 52 	mov	w10, #0
100007b70: e8 03 1c aa 	mov	x8, x28
100007b74: 39 07 00 91 	add	x25, x25, #1
100007b78: eb 03 1a aa 	mov	x11, x26
100007b7c: 1c 00 80 d2 	mov	x28, #0
100007b80: 07 00 00 14 	b	0x100007b9c <__ZN5gimli4read4line15FileEntryFormat5parse17h2275715be8ee50a7E+0xa0>
100007b84: 8d 19 40 92 	and	x13, x12, #0x7f
100007b88: ad 21 ca 9a 	lsl	x13, x13, x10
100007b8c: bc 01 1c aa 	orr	x28, x13, x28
100007b90: 4a 1d 00 11 	add	w10, w10, #7
100007b94: 29 05 00 91 	add	x9, x9, #1
100007b98: 8c 01 38 36 	tbz	w12, #7, 0x100007bc8 <__ZN5gimli4read4line15FileEntryFormat5parse17h2275715be8ee50a7E+0xcc>
100007b9c: cd 02 09 8b 	add	x13, x22, x9
100007ba0: 5f 03 09 eb 	cmp	x26, x9
100007ba4: 20 0a 00 54 	b.eq	0x100007ce8 <__ZN5gimli4read4line15FileEntryFormat5parse17h2275715be8ee50a7E+0x1ec>
100007ba8: ac 15 40 38 	ldrb	w12, [x13], #1
100007bac: 6b 05 00 d1 	sub	x11, x11, #1
100007bb0: 8d 2e 00 a9 	stp	x13, x11, [x20]
100007bb4: 5f fd 00 71 	cmp	w10, #63
100007bb8: 61 fe ff 54 	b.ne	0x100007b84 <__ZN5gimli4read4line15FileEntryFormat5parse17h2275715be8ee50a7E+0x88>
100007bbc: 9f 09 00 71 	cmp	w12, #2
100007bc0: 23 fe ff 54 	b.lo	0x100007b84 <__ZN5gimli4read4line15FileEntryFormat5parse17h2275715be8ee50a7E+0x88>
100007bc4: 4c 00 00 14 	b	0x100007cf4 <__ZN5gimli4read4line15FileEntryFormat5parse17h2275715be8ee50a7E+0x1f8>
100007bc8: c8 02 09 8b 	add	x8, x22, x9
100007bcc: 9f 03 0e eb 	cmp	x28, x14
100007bd0: e9 ff 9f 52 	mov	w9, #65535
100007bd4: 95 33 89 9a 	csel	x21, x28, x9, lo
100007bd8: bf 06 00 71 	cmp	w21, #1
100007bdc: 18 17 98 1a 	cinc	w24, w24, eq
100007be0: 6b 0b 00 b4 	cbz	x11, 0x100007d4c <__ZN5gimli4read4line15FileEntryFormat5parse17h2275715be8ee50a7E+0x250>
100007be4: 09 05 00 d1 	sub	x9, x8, #1
100007be8: 6a 05 00 91 	add	x10, x11, #1
100007bec: 36 09 00 91 	add	x22, x9, #2
100007bf0: 5a 09 00 d1 	sub	x26, x10, #2
100007bf4: 96 6a 00 a9 	stp	x22, x26, [x20]
100007bf8: 0b 01 40 39 	ldrb	w11, [x8]
100007bfc: 68 19 00 12 	and	w8, w11, #0x7f
100007c00: 2b 02 38 36 	tbz	w11, #7, 0x100007c44 <__ZN5gimli4read4line15FileEntryFormat5parse17h2275715be8ee50a7E+0x148>
100007c04: ba 0a 00 b4 	cbz	x26, 0x100007d58 <__ZN5gimli4read4line15FileEntryFormat5parse17h2275715be8ee50a7E+0x25c>
100007c08: 36 0d 00 91 	add	x22, x9, #3
100007c0c: 5a 0d 00 d1 	sub	x26, x10, #3
100007c10: 96 6a 00 a9 	stp	x22, x26, [x20]
100007c14: 2b 09 40 39 	ldrb	w11, [x9, #2]
100007c18: 6c 19 00 12 	and	w12, w11, #0x7f
100007c1c: 88 19 19 33 	bfi	w8, w12, #7, #7
100007c20: 2b 01 38 36 	tbz	w11, #7, 0x100007c44 <__ZN5gimli4read4line15FileEntryFormat5parse17h2275715be8ee50a7E+0x148>
100007c24: ba 09 00 b4 	cbz	x26, 0x100007d58 <__ZN5gimli4read4line15FileEntryFormat5parse17h2275715be8ee50a7E+0x25c>
100007c28: 36 11 00 91 	add	x22, x9, #4
100007c2c: 5a 11 00 d1 	sub	x26, x10, #4
100007c30: 96 6a 00 a9 	stp	x22, x26, [x20]
100007c34: 29 0d 40 39 	ldrb	w9, [x9, #3]
100007c38: 3f 0d 00 71 	cmp	w9, #3
100007c3c: 68 09 00 54 	b.hi	0x100007d68 <__ZN5gimli4read4line15FileEntryFormat5parse17h2275715be8ee50a7E+0x26c>
100007c40: 28 1d 12 33 	bfi	w8, w9, #14, #8
100007c44: fb 03 08 aa 	mov	x27, x8
100007c48: e8 07 40 f9 	ldr	x8, [sp, #8]
100007c4c: 3f 00 08 eb 	cmp	x1, x8
100007c50: 81 00 00 54 	b.ne	0x100007c60 <__ZN5gimli4read4line15FileEntryFormat5parse17h2275715be8ee50a7E+0x164>
100007c54: e0 23 00 91 	add	x0, sp, #8
100007c58: 7b fe ff 97 	bl	0x100007644 <__ZN5alloc7raw_vec19RawVec$LT$T$C$A$GT$16reserve_for_push17h5892fb1a519e4384E>
100007c5c: e0 07 41 a9 	ldp	x0, x1, [sp, #16]
100007c60: 08 08 01 8b 	add	x8, x0, x1, lsl #2
100007c64: 15 01 00 79 	strh	w21, [x8]
100007c68: 1b 05 00 79 	strh	w27, [x8, #2]
100007c6c: 21 04 00 91 	add	x1, x1, #1
100007c70: e1 0f 00 f9 	str	x1, [sp, #24]
100007c74: 3f 03 17 eb 	cmp	x25, x23
100007c78: ee ff 9f 52 	mov	w14, #65535
100007c7c: 61 f7 ff 54 	b.ne	0x100007b68 <__ZN5gimli4read4line15FileEntryFormat5parse17h2275715be8ee50a7E+0x6c>
100007c80: 1f 07 00 71 	cmp	w24, #1
100007c84: 41 02 00 54 	b.ne	0x100007ccc <__ZN5gimli4read4line15FileEntryFormat5parse17h2275715be8ee50a7E+0x1d0>
100007c88: e0 83 c0 3c 	ldur	q0, [sp, #8]
100007c8c: 60 82 80 3c 	stur	q0, [x19, #8]
100007c90: e8 0f 40 f9 	ldr	x8, [sp, #24]
100007c94: 68 0e 00 f9 	str	x8, [x19, #24]
100007c98: 7f 02 00 f9 	str	xzr, [x19]
100007c9c: 24 00 00 14 	b	0x100007d2c <__ZN5gimli4read4line15FileEntryFormat5parse17h2275715be8ee50a7E+0x230>
100007ca0: 68 02 80 52 	mov	w8, #19
100007ca4: 68 12 00 79 	strh	w8, [x19, #8]
100007ca8: 7f 1e 00 79 	strh	wzr, [x19, #14]
100007cac: 7f a2 00 b8 	stur	wzr, [x19, #10]
100007cb0: 76 0a 00 f9 	str	x22, [x19, #16]
100007cb4: 28 00 80 52 	mov	w8, #1
100007cb8: 68 02 00 f9 	str	x8, [x19]
100007cbc: 1c 00 00 14 	b	0x100007d2c <__ZN5gimli4read4line15FileEntryFormat5parse17h2275715be8ee50a7E+0x230>
100007cc0: 48 00 80 52 	mov	w8, #2
100007cc4: f7 a3 00 a9 	stp	x23, x8, [sp, #8]
100007cc8: ff 0f 00 f9 	str	xzr, [sp, #24]
100007ccc: 88 08 80 52 	mov	w8, #68
100007cd0: 68 22 00 39 	strb	w8, [x19, #8]
100007cd4: 28 00 80 52 	mov	w8, #1
100007cd8: 68 02 00 f9 	str	x8, [x19]
100007cdc: e8 07 40 f9 	ldr	x8, [sp, #8]
100007ce0: e8 01 00 b5 	cbnz	x8, 0x100007d1c <__ZN5gimli4read4line15FileEntryFormat5parse17h2275715be8ee50a7E+0x220>
100007ce4: 12 00 00 14 	b	0x100007d2c <__ZN5gimli4read4line15FileEntryFormat5parse17h2275715be8ee50a7E+0x230>
100007ce8: 69 02 80 52 	mov	w9, #19
100007cec: e8 03 0d aa 	mov	x8, x13
100007cf0: 02 00 00 14 	b	0x100007cf8 <__ZN5gimli4read4line15FileEntryFormat5parse17h2275715be8ee50a7E+0x1fc>
100007cf4: c9 00 80 52 	mov	w9, #6
100007cf8: 69 22 00 39 	strb	w9, [x19, #8]
100007cfc: 7f 26 00 39 	strb	wzr, [x19, #9]
100007d00: 7f 1e 00 79 	strh	wzr, [x19, #14]
100007d04: 7f a2 00 b8 	stur	wzr, [x19, #10]
100007d08: 68 0a 00 f9 	str	x8, [x19, #16]
100007d0c: 28 00 80 52 	mov	w8, #1
100007d10: 68 02 00 f9 	str	x8, [x19]
100007d14: e8 07 40 f9 	ldr	x8, [sp, #8]
100007d18: a8 00 00 b4 	cbz	x8, 0x100007d2c <__ZN5gimli4read4line15FileEntryFormat5parse17h2275715be8ee50a7E+0x230>
100007d1c: e0 0b 40 f9 	ldr	x0, [sp, #16]
100007d20: 01 f5 7e d3 	lsl	x1, x8, #2
100007d24: 42 00 80 52 	mov	w2, #2
100007d28: 4e e9 ff 97 	bl	0x100002260 <___rust_dealloc>
100007d2c: fd 7b 47 a9 	ldp	x29, x30, [sp, #112]
100007d30: f4 4f 46 a9 	ldp	x20, x19, [sp, #96]
100007d34: f6 57 45 a9 	ldp	x22, x21, [sp, #80]
100007d38: f8 5f 44 a9 	ldp	x24, x23, [sp, #64]
100007d3c: fa 67 43 a9 	ldp	x26, x25, [sp, #48]
100007d40: fc 6f 42 a9 	ldp	x28, x27, [sp, #32]
100007d44: ff 03 02 91 	add	sp, sp, #128
100007d48: c0 03 5f d6 	ret
100007d4c: 1b 00 80 52 	mov	w27, #0
100007d50: 69 02 80 52 	mov	w9, #19
100007d54: 06 00 00 14 	b	0x100007d6c <__ZN5gimli4read4line15FileEntryFormat5parse17h2275715be8ee50a7E+0x270>
100007d58: 1b 00 80 52 	mov	w27, #0
100007d5c: 69 02 80 52 	mov	w9, #19
100007d60: e8 03 16 aa 	mov	x8, x22
100007d64: 02 00 00 14 	b	0x100007d6c <__ZN5gimli4read4line15FileEntryFormat5parse17h2275715be8ee50a7E+0x270>
100007d68: c9 00 80 52 	mov	w9, #6
100007d6c: 69 22 00 39 	strb	w9, [x19, #8]
100007d70: 7f 26 00 39 	strb	wzr, [x19, #9]
100007d74: 7b 16 00 79 	strh	w27, [x19, #10]
100007d78: 7f 0e 00 b9 	str	wzr, [x19, #12]
100007d7c: 68 0a 00 f9 	str	x8, [x19, #16]
100007d80: 28 00 80 52 	mov	w8, #1
100007d84: 68 02 00 f9 	str	x8, [x19]
100007d88: e8 07 40 f9 	ldr	x8, [sp, #8]
100007d8c: 88 fc ff b5 	cbnz	x8, 0x100007d1c <__ZN5gimli4read4line15FileEntryFormat5parse17h2275715be8ee50a7E+0x220>
100007d90: e7 ff ff 17 	b	0x100007d2c <__ZN5gimli4read4line15FileEntryFormat5parse17h2275715be8ee50a7E+0x230>
100007d94: e0 03 15 aa 	mov	x0, x21
100007d98: 41 00 80 52 	mov	w1, #2
100007d9c: 3b a7 00 94 	bl	0x100031a88 <__ZN5alloc5alloc18handle_alloc_error17h98ae248b28eb0c8fE>
100007da0: f3 03 00 aa 	mov	x19, x0
100007da4: e0 23 00 91 	add	x0, sp, #8
100007da8: 26 f0 ff 97 	bl	0x100003e40 <__ZN4core3ptr78drop_in_place$LT$alloc..vec..Vec$LT$gimli..read..line..FileEntryFormat$GT$$GT$17h92290c62cdedd52dE>
100007dac: e0 03 13 aa 	mov	x0, x19
100007db0: 28 a8 00 94 	bl	0x100031e50 <_writev+0x100031e50>
100007db4: 87 a7 00 94 	bl	0x100031bd0 <__ZN4core9panicking19panic_cannot_unwind17h7ea28f7e8ef3b392E>

0000000100007db8 <__ZN5gimli4read4line15parse_attribute17hc0c60f902ac5d7c6E>:
100007db8: ff 43 01 d1 	sub	sp, sp, #80
100007dbc: f4 4f 03 a9 	stp	x20, x19, [sp, #48]
100007dc0: fd 7b 04 a9 	stp	x29, x30, [sp, #64]
100007dc4: fd 03 01 91 	add	x29, sp, #64
100007dc8: f3 03 00 aa 	mov	x19, x0
100007dcc: 48 3c 08 53 	ubfx	w8, w2, #8, #8
100007dd0: 69 3c 00 12 	and	w9, w3, #0xffff
100007dd4: 2a 0d 00 51 	sub	w10, w9, #3
100007dd8: 5f 95 00 71 	cmp	w10, #37
100007ddc: 28 02 00 54 	b.hi	0x100007e20 <__ZN5gimli4read4line15parse_attribute17hc0c60f902ac5d7c6E+0x68>
100007de0: a9 a0 15 10 	adr	x9, #177172
100007de4: 1f 20 03 d5 	nop
100007de8: 8b 00 00 10 	adr	x11, #16
100007dec: 2c 79 6a 78 	ldrh	w12, [x9, x10, lsl #1]
100007df0: 6b 09 0c 8b 	add	x11, x11, x12, lsl #2
100007df4: 60 01 1f d6 	br	x11
100007df8: 28 30 40 a9 	ldp	x8, x12, [x1]
100007dfc: 8b 09 00 f1 	subs	x11, x12, #2
100007e00: 82 28 00 54 	b.hs	0x100008310 <__ZN5gimli4read4line15parse_attribute17hc0c60f902ac5d7c6E+0x558>
100007e04: 09 00 80 d2 	mov	x9, #0
100007e08: 6a 02 80 52 	mov	w10, #19
100007e0c: eb 03 0c aa 	mov	x11, x12
100007e10: 4c 1d 00 12 	and	w12, w10, #0xff
100007e14: 9f 2d 01 71 	cmp	w12, #75
100007e18: 81 28 00 54 	b.ne	0x100008328 <__ZN5gimli4read4line15parse_attribute17hc0c60f902ac5d7c6E+0x570>
100007e1c: 4f 01 00 14 	b	0x100008358 <__ZN5gimli4read4line15parse_attribute17hc0c60f902ac5d7c6E+0x5a0>
100007e20: 4a e0 83 52 	mov	w10, #7938
100007e24: 3f 01 0a 6b 	cmp	w9, w10
100007e28: 80 01 00 54 	b.eq	0x100007e58 <__ZN5gimli4read4line15parse_attribute17hc0c60f902ac5d7c6E+0xa0>
100007e2c: 2a e4 83 52 	mov	w10, #7969
100007e30: 3f 01 0a 6b 	cmp	w9, w10
100007e34: a1 03 00 54 	b.ne	0x100007ea8 <__ZN5gimli4read4line15parse_attribute17hc0c60f902ac5d7c6E+0xf0>
100007e38: 1f 21 00 71 	cmp	w8, #8
100007e3c: 21 25 00 54 	b.ne	0x1000082e0 <__ZN5gimli4read4line15parse_attribute17hc0c60f902ac5d7c6E+0x528>
100007e40: 29 20 40 a9 	ldp	x9, x8, [x1]
100007e44: 0a 21 00 f1 	subs	x10, x8, #8
100007e48: 02 38 00 54 	b.hs	0x100008548 <__ZN5gimli4read4line15parse_attribute17hc0c60f902ac5d7c6E+0x790>
100007e4c: 08 00 80 d2 	mov	x8, #0
100007e50: 6a 02 80 52 	mov	w10, #19
100007e54: c0 01 00 14 	b	0x100008554 <__ZN5gimli4read4line15parse_attribute17hc0c60f902ac5d7c6E+0x79c>
100007e58: 09 00 80 52 	mov	w9, #0
100007e5c: 0e 00 80 d2 	mov	x14, #0
100007e60: 28 28 40 a9 	ldp	x8, x10, [x1]
100007e64: 4a 05 00 d1 	sub	x10, x10, #1
100007e68: 07 00 00 14 	b	0x100007e84 <__ZN5gimli4read4line15parse_attribute17hc0c60f902ac5d7c6E+0xcc>
100007e6c: 6c 19 40 92 	and	x12, x11, #0x7f
100007e70: 8c 21 c9 9a 	lsl	x12, x12, x9
100007e74: 8e 01 0e aa 	orr	x14, x12, x14
100007e78: 29 1d 00 11 	add	w9, w9, #7
100007e7c: 4a 05 00 d1 	sub	x10, x10, #1
100007e80: cb 23 38 36 	tbz	w11, #7, 0x1000082f8 <__ZN5gimli4read4line15parse_attribute17hc0c60f902ac5d7c6E+0x540>
100007e84: 5f 05 00 b1 	cmn	x10, #1
100007e88: 60 17 00 54 	b.eq	0x100008174 <__ZN5gimli4read4line15parse_attribute17hc0c60f902ac5d7c6E+0x3bc>
100007e8c: 0b 15 40 38 	ldrb	w11, [x8], #1
100007e90: 28 28 00 a9 	stp	x8, x10, [x1]
100007e94: 3f fd 00 71 	cmp	w9, #63
100007e98: a1 fe ff 54 	b.ne	0x100007e6c <__ZN5gimli4read4line15parse_attribute17hc0c60f902ac5d7c6E+0xb4>
100007e9c: 7f 09 00 71 	cmp	w11, #2
100007ea0: 63 fe ff 54 	b.lo	0x100007e6c <__ZN5gimli4read4line15parse_attribute17hc0c60f902ac5d7c6E+0xb4>
100007ea4: b2 00 00 14 	b	0x10000816c <__ZN5gimli4read4line15parse_attribute17hc0c60f902ac5d7c6E+0x3b4>
100007ea8: 88 01 80 52 	mov	w8, #12
100007eac: 68 22 00 39 	strb	w8, [x19, #8]
100007eb0: 3f 02 00 14 	b	0x1000087ac <__ZN5gimli4read4line15parse_attribute17hc0c60f902ac5d7c6E+0x9f4>
100007eb4: 28 30 40 a9 	ldp	x8, x12, [x1]
100007eb8: 8b 11 00 f1 	subs	x11, x12, #4
100007ebc: 22 24 00 54 	b.hs	0x100008340 <__ZN5gimli4read4line15parse_attribute17hc0c60f902ac5d7c6E+0x588>
100007ec0: 09 00 80 d2 	mov	x9, #0
100007ec4: 6a 02 80 52 	mov	w10, #19
100007ec8: eb 03 0c aa 	mov	x11, x12
100007ecc: 4c 1d 00 12 	and	w12, w10, #0xff
100007ed0: 9f 2d 01 71 	cmp	w12, #75
100007ed4: 20 24 00 54 	b.eq	0x100008358 <__ZN5gimli4read4line15parse_attribute17hc0c60f902ac5d7c6E+0x5a0>
100007ed8: 89 01 00 14 	b	0x1000084fc <__ZN5gimli4read4line15parse_attribute17hc0c60f902ac5d7c6E+0x744>
100007edc: 29 20 40 a9 	ldp	x9, x8, [x1]
100007ee0: 0a 09 00 f1 	subs	x10, x8, #2
100007ee4: 22 25 00 54 	b.hs	0x100008388 <__ZN5gimli4read4line15parse_attribute17hc0c60f902ac5d7c6E+0x5d0>
100007ee8: 08 00 80 52 	mov	w8, #0
100007eec: 6a 02 80 52 	mov	w10, #19
100007ef0: 4b 1d 00 12 	and	w11, w10, #0xff
100007ef4: 7f 2d 01 71 	cmp	w11, #75
100007ef8: 40 25 00 54 	b.eq	0x1000083a0 <__ZN5gimli4read4line15parse_attribute17hc0c60f902ac5d7c6E+0x5e8>
100007efc: ff 13 00 79 	strh	wzr, [sp, #8]
100007f00: ff a3 00 b8 	stur	wzr, [sp, #10]
100007f04: e8 93 40 78 	ldurh	w8, [sp, #9]
100007f08: 6a 22 00 39 	strb	w10, [x19, #8]
100007f0c: 7f 26 00 39 	strb	wzr, [x19, #9]
100007f10: 68 16 00 79 	strh	w8, [x19, #10]
100007f14: 7f 0e 00 b9 	str	wzr, [x19, #12]
100007f18: 24 02 00 14 	b	0x1000087a8 <__ZN5gimli4read4line15parse_attribute17hc0c60f902ac5d7c6E+0x9f0>
100007f1c: 29 20 40 a9 	ldp	x9, x8, [x1]
100007f20: 0a 11 00 f1 	subs	x10, x8, #4
100007f24: 82 24 00 54 	b.hs	0x1000083b4 <__ZN5gimli4read4line15parse_attribute17hc0c60f902ac5d7c6E+0x5fc>
100007f28: 08 00 80 52 	mov	w8, #0
100007f2c: 6a 02 80 52 	mov	w10, #19
100007f30: 4b 1d 00 12 	and	w11, w10, #0xff
100007f34: 7f 2d 01 71 	cmp	w11, #75
100007f38: a0 24 00 54 	b.eq	0x1000083cc <__ZN5gimli4read4line15parse_attribute17hc0c60f902ac5d7c6E+0x614>
100007f3c: ff 0b 00 b9 	str	wzr, [sp, #8]
100007f40: ff 3b 00 39 	strb	wzr, [sp, #14]
100007f44: ff 1b 00 79 	strh	wzr, [sp, #12]
100007f48: e8 b3 40 b8 	ldur	w8, [sp, #11]
100007f4c: ff 43 00 79 	strh	wzr, [sp, #32]
100007f50: eb 5f 10 53 	ubfx	w11, wzr, #16, #8
100007f54: eb 8b 00 39 	strb	w11, [sp, #34]
100007f58: 7f 92 00 78 	sturh	wzr, [x19, #9]
100007f5c: 6b 2e 00 39 	strb	w11, [x19, #11]
100007f60: 6a 22 00 39 	strb	w10, [x19, #8]
100007f64: 68 0e 00 b9 	str	w8, [x19, #12]
100007f68: 10 02 00 14 	b	0x1000087a8 <__ZN5gimli4read4line15parse_attribute17hc0c60f902ac5d7c6E+0x9f0>
100007f6c: 29 20 40 a9 	ldp	x9, x8, [x1]
100007f70: 08 21 00 f1 	subs	x8, x8, #8
100007f74: 62 23 00 54 	b.hs	0x1000083e0 <__ZN5gimli4read4line15parse_attribute17hc0c60f902ac5d7c6E+0x628>
100007f78: 0e 00 80 d2 	mov	x14, #0
100007f7c: 68 02 80 52 	mov	w8, #19
100007f80: 0a 1d 00 12 	and	w10, w8, #0xff
100007f84: 5f 2d 01 71 	cmp	w10, #75
100007f88: 80 23 00 54 	b.eq	0x1000083f8 <__ZN5gimli4read4line15parse_attribute17hc0c60f902ac5d7c6E+0x640>
100007f8c: ff 3b 00 39 	strb	wzr, [sp, #14]
100007f90: ff 1b 00 79 	strh	wzr, [sp, #12]
100007f94: ff 0b 00 b9 	str	wzr, [sp, #8]
100007f98: e9 f3 00 f8 	stur	x9, [sp, #15]
100007f9c: e9 07 40 f9 	ldr	x9, [sp, #8]
100007fa0: ea 13 40 b9 	ldr	w10, [sp, #16]
100007fa4: ea 2b 00 b9 	str	w10, [sp, #40]
100007fa8: ea 33 41 b8 	ldur	w10, [sp, #19]
100007fac: ea b3 02 b8 	stur	w10, [sp, #43]
100007fb0: e9 13 00 f9 	str	x9, [sp, #32]
100007fb4: ea 73 42 f8 	ldur	x10, [sp, #39]
100007fb8: e9 1b 00 b9 	str	w9, [sp, #24]
100007fbc: e9 33 42 b8 	ldur	w9, [sp, #35]
100007fc0: e9 b3 01 b8 	stur	w9, [sp, #27]
100007fc4: e9 1b 40 b9 	ldr	w9, [sp, #24]
100007fc8: 69 92 00 b8 	stur	w9, [x19, #9]
100007fcc: e9 b3 41 b8 	ldur	w9, [sp, #27]
100007fd0: 69 0e 00 b9 	str	w9, [x19, #12]
100007fd4: 68 22 00 39 	strb	w8, [x19, #8]
100007fd8: 6a 0a 00 f9 	str	x10, [x19, #16]
100007fdc: f4 01 00 14 	b	0x1000087ac <__ZN5gimli4read4line15parse_attribute17hc0c60f902ac5d7c6E+0x9f4>
100007fe0: 28 28 40 a9 	ldp	x8, x10, [x1]
100007fe4: ea 1b 00 b4 	cbz	x10, 0x100008360 <__ZN5gimli4read4line15parse_attribute17hc0c60f902ac5d7c6E+0x5a8>
100007fe8: 09 00 80 d2 	mov	x9, #0
100007fec: 0b 69 69 38 	ldrb	w11, [x8, x9]
100007ff0: 6b 31 00 34 	cbz	w11, 0x10000861c <__ZN5gimli4read4line15parse_attribute17hc0c60f902ac5d7c6E+0x864>
100007ff4: 29 05 00 91 	add	x9, x9, #1
100007ff8: 5f 01 09 eb 	cmp	x10, x9
100007ffc: 81 ff ff 54 	b.ne	0x100007fec <__ZN5gimli4read4line15parse_attribute17hc0c60f902ac5d7c6E+0x234>
100008000: d8 00 00 14 	b	0x100008360 <__ZN5gimli4read4line15parse_attribute17hc0c60f902ac5d7c6E+0x5a8>
100008004: 0b 00 80 52 	mov	w11, #0
100008008: 09 00 80 d2 	mov	x9, #0
10000800c: 28 28 40 a9 	ldp	x8, x10, [x1]
100008010: 06 00 00 14 	b	0x100008028 <__ZN5gimli4read4line15parse_attribute17hc0c60f902ac5d7c6E+0x270>
100008014: 8d 19 40 92 	and	x13, x12, #0x7f
100008018: ad 21 cb 9a 	lsl	x13, x13, x11
10000801c: a9 01 09 aa 	orr	x9, x13, x9
100008020: 6b 1d 00 11 	add	w11, w11, #7
100008024: ec 01 38 36 	tbz	w12, #7, 0x100008060 <__ZN5gimli4read4line15parse_attribute17hc0c60f902ac5d7c6E+0x2a8>
100008028: 6a 0a 00 b4 	cbz	x10, 0x100008174 <__ZN5gimli4read4line15parse_attribute17hc0c60f902ac5d7c6E+0x3bc>
10000802c: 0c 15 40 38 	ldrb	w12, [x8], #1
100008030: 4a 05 00 d1 	sub	x10, x10, #1
100008034: 28 28 00 a9 	stp	x8, x10, [x1]
100008038: 7f fd 00 71 	cmp	w11, #63
10000803c: c1 fe ff 54 	b.ne	0x100008014 <__ZN5gimli4read4line15parse_attribute17hc0c60f902ac5d7c6E+0x25c>
100008040: 9f 09 00 71 	cmp	w12, #2
100008044: 83 fe ff 54 	b.lo	0x100008014 <__ZN5gimli4read4line15parse_attribute17hc0c60f902ac5d7c6E+0x25c>
100008048: 49 00 00 14 	b	0x10000816c <__ZN5gimli4read4line15parse_attribute17hc0c60f902ac5d7c6E+0x3b4>
10000804c: 28 28 40 a9 	ldp	x8, x10, [x1]
100008050: 0a 2a 00 b4 	cbz	x10, 0x100008590 <__ZN5gimli4read4line15parse_attribute17hc0c60f902ac5d7c6E+0x7d8>
100008054: 09 15 40 38 	ldrb	w9, [x8], #1
100008058: 4a 05 00 d1 	sub	x10, x10, #1
10000805c: 28 28 00 a9 	stp	x8, x10, [x1]
100008060: 4b 01 09 eb 	subs	x11, x10, x9
100008064: e3 17 00 54 	b.lo	0x100008360 <__ZN5gimli4read4line15parse_attribute17hc0c60f902ac5d7c6E+0x5a8>
100008068: c1 00 00 14 	b	0x10000836c <__ZN5gimli4read4line15parse_attribute17hc0c60f902ac5d7c6E+0x5b4>
10000806c: 29 28 40 a9 	ldp	x9, x10, [x1]
100008070: 6a 29 00 b4 	cbz	x10, 0x10000859c <__ZN5gimli4read4line15parse_attribute17hc0c60f902ac5d7c6E+0x7e4>
100008074: 28 15 40 38 	ldrb	w8, [x9], #1
100008078: 4a 05 00 d1 	sub	x10, x10, #1
10000807c: 29 28 00 a9 	stp	x9, x10, [x1]
100008080: 6a 09 80 52 	mov	w10, #75
100008084: 4b 1d 00 12 	and	w11, w10, #0xff
100008088: 7f 2d 01 71 	cmp	w11, #75
10000808c: 20 29 00 54 	b.eq	0x1000085b0 <__ZN5gimli4read4line15parse_attribute17hc0c60f902ac5d7c6E+0x7f8>
100008090: 5e 01 00 14 	b	0x100008608 <__ZN5gimli4read4line15parse_attribute17hc0c60f902ac5d7c6E+0x850>
100008094: 28 28 40 a9 	ldp	x8, x10, [x1]
100008098: 6a 29 00 b4 	cbz	x10, 0x1000085c4 <__ZN5gimli4read4line15parse_attribute17hc0c60f902ac5d7c6E+0x80c>
10000809c: 09 15 40 38 	ldrb	w9, [x8], #1
1000080a0: 4a 05 00 d1 	sub	x10, x10, #1
1000080a4: 28 28 00 a9 	stp	x8, x10, [x1]
1000080a8: 6a 09 80 52 	mov	w10, #75
1000080ac: 4b 1d 00 12 	and	w11, w10, #0xff
1000080b0: 7f 2d 01 71 	cmp	w11, #75
1000080b4: 21 29 00 54 	b.ne	0x1000085d8 <__ZN5gimli4read4line15parse_attribute17hc0c60f902ac5d7c6E+0x820>
1000080b8: 0a 00 80 52 	mov	w10, #0
1000080bc: 0b 00 80 52 	mov	w11, #0
1000080c0: 0c 00 80 d2 	mov	x12, #0
1000080c4: 3f 01 00 71 	cmp	w9, #0
1000080c8: e8 07 9f 1a 	cset	w8, ne
1000080cc: 2d 01 80 52 	mov	w13, #9
1000080d0: a3 01 00 14 	b	0x10000875c <__ZN5gimli4read4line15parse_attribute17hc0c60f902ac5d7c6E+0x9a4>
1000080d4: e0 23 00 91 	add	x0, sp, #8
1000080d8: b1 09 00 94 	bl	0x10000a79c <__ZN5gimli4read6reader6Reader12read_sleb12817h97764a337c3ca800E>
1000080dc: e8 23 40 39 	ldrb	w8, [sp, #8]
1000080e0: 1f 2d 01 71 	cmp	w8, #75
1000080e4: 61 19 00 54 	b.ne	0x100008410 <__ZN5gimli4read4line15parse_attribute17hc0c60f902ac5d7c6E+0x658>
1000080e8: e8 0b 40 f9 	ldr	x8, [sp, #16]
1000080ec: 0a 3d 08 53 	ubfx	w10, w8, #8, #8
1000080f0: 0b 3d 10 12 	and	w11, w8, #0xffff0000
1000080f4: 0c 7d 60 92 	and	x12, x8, #0xffffffff00000000
1000080f8: cd 00 80 52 	mov	w13, #6
1000080fc: 98 01 00 14 	b	0x10000875c <__ZN5gimli4read4line15parse_attribute17hc0c60f902ac5d7c6E+0x9a4>
100008100: 1f 21 00 71 	cmp	w8, #8
100008104: c1 19 00 54 	b.ne	0x10000843c <__ZN5gimli4read4line15parse_attribute17hc0c60f902ac5d7c6E+0x684>
100008108: 29 20 40 a9 	ldp	x9, x8, [x1]
10000810c: 0a 21 00 f1 	subs	x10, x8, #8
100008110: 62 2a 00 54 	b.hs	0x10000865c <__ZN5gimli4read4line15parse_attribute17hc0c60f902ac5d7c6E+0x8a4>
100008114: 08 00 80 d2 	mov	x8, #0
100008118: 6a 02 80 52 	mov	w10, #19
10000811c: 53 01 00 14 	b	0x100008668 <__ZN5gimli4read4line15parse_attribute17hc0c60f902ac5d7c6E+0x8b0>
100008120: 09 00 80 52 	mov	w9, #0
100008124: 0e 00 80 d2 	mov	x14, #0
100008128: 28 28 40 a9 	ldp	x8, x10, [x1]
10000812c: 4a 05 00 d1 	sub	x10, x10, #1
100008130: 07 00 00 14 	b	0x10000814c <__ZN5gimli4read4line15parse_attribute17hc0c60f902ac5d7c6E+0x394>
100008134: 6c 19 40 92 	and	x12, x11, #0x7f
100008138: 8c 21 c9 9a 	lsl	x12, x12, x9
10000813c: 8e 01 0e aa 	orr	x14, x12, x14
100008140: 29 1d 00 11 	add	w9, w9, #7
100008144: 4a 05 00 d1 	sub	x10, x10, #1
100008148: eb 27 38 36 	tbz	w11, #7, 0x100008644 <__ZN5gimli4read4line15parse_attribute17hc0c60f902ac5d7c6E+0x88c>
10000814c: 5f 05 00 b1 	cmn	x10, #1
100008150: 20 01 00 54 	b.eq	0x100008174 <__ZN5gimli4read4line15parse_attribute17hc0c60f902ac5d7c6E+0x3bc>
100008154: 0b 15 40 38 	ldrb	w11, [x8], #1
100008158: 28 28 00 a9 	stp	x8, x10, [x1]
10000815c: 3f fd 00 71 	cmp	w9, #63
100008160: a1 fe ff 54 	b.ne	0x100008134 <__ZN5gimli4read4line15parse_attribute17hc0c60f902ac5d7c6E+0x37c>
100008164: 7f 09 00 71 	cmp	w11, #2
100008168: 63 fe ff 54 	b.lo	0x100008134 <__ZN5gimli4read4line15parse_attribute17hc0c60f902ac5d7c6E+0x37c>
10000816c: c9 00 80 52 	mov	w9, #6
100008170: 02 00 00 14 	b	0x100008178 <__ZN5gimli4read4line15parse_attribute17hc0c60f902ac5d7c6E+0x3c0>
100008174: 69 02 80 52 	mov	w9, #19
100008178: 69 22 00 39 	strb	w9, [x19, #8]
10000817c: 7f 26 00 39 	strb	wzr, [x19, #9]
100008180: 7f 1e 00 79 	strh	wzr, [x19, #14]
100008184: 7f a2 00 b8 	stur	wzr, [x19, #10]
100008188: 68 0a 00 f9 	str	x8, [x19, #16]
10000818c: 88 01 00 14 	b	0x1000087ac <__ZN5gimli4read4line15parse_attribute17hc0c60f902ac5d7c6E+0x9f4>
100008190: 28 24 40 a9 	ldp	x8, x9, [x1]
100008194: 29 41 00 f1 	subs	x9, x9, #16
100008198: 43 0e 00 54 	b.lo	0x100008360 <__ZN5gimli4read4line15parse_attribute17hc0c60f902ac5d7c6E+0x5a8>
10000819c: 0c 41 00 91 	add	x12, x8, #16
1000081a0: 0a 3d 08 53 	ubfx	w10, w8, #8, #8
1000081a4: 0b 3d 10 12 	and	w11, w8, #0xffff0000
1000081a8: 2c 24 00 a9 	stp	x12, x9, [x1]
1000081ac: 0c 7d 60 92 	and	x12, x8, #0xffffffff00000000
1000081b0: 2d 00 80 52 	mov	w13, #1
1000081b4: 09 02 80 52 	mov	w9, #16
1000081b8: 69 01 00 14 	b	0x10000875c <__ZN5gimli4read4line15parse_attribute17hc0c60f902ac5d7c6E+0x9a4>
1000081bc: 1f 21 00 71 	cmp	w8, #8
1000081c0: a1 14 00 54 	b.ne	0x100008454 <__ZN5gimli4read4line15parse_attribute17hc0c60f902ac5d7c6E+0x69c>
1000081c4: 29 20 40 a9 	ldp	x9, x8, [x1]
1000081c8: 0a 21 00 f1 	subs	x10, x8, #8
1000081cc: 62 25 00 54 	b.hs	0x100008678 <__ZN5gimli4read4line15parse_attribute17hc0c60f902ac5d7c6E+0x8c0>
1000081d0: 08 00 80 d2 	mov	x8, #0
1000081d4: 6a 02 80 52 	mov	w10, #19
1000081d8: 2b 01 00 14 	b	0x100008684 <__ZN5gimli4read4line15parse_attribute17hc0c60f902ac5d7c6E+0x8cc>
1000081dc: 29 28 40 a9 	ldp	x9, x10, [x1]
1000081e0: 0a 20 00 b4 	cbz	x10, 0x1000085e0 <__ZN5gimli4read4line15parse_attribute17hc0c60f902ac5d7c6E+0x828>
1000081e4: 28 15 40 38 	ldrb	w8, [x9], #1
1000081e8: 4a 05 00 d1 	sub	x10, x10, #1
1000081ec: 29 28 00 a9 	stp	x9, x10, [x1]
1000081f0: 6a 09 80 52 	mov	w10, #75
1000081f4: 4b 1d 00 12 	and	w11, w10, #0xff
1000081f8: 7f 2d 01 71 	cmp	w11, #75
1000081fc: 61 20 00 54 	b.ne	0x100008608 <__ZN5gimli4read4line15parse_attribute17hc0c60f902ac5d7c6E+0x850>
100008200: fd 00 00 14 	b	0x1000085f4 <__ZN5gimli4read4line15parse_attribute17hc0c60f902ac5d7c6E+0x83c>
100008204: 29 20 40 a9 	ldp	x9, x8, [x1]
100008208: 0a 09 00 f1 	subs	x10, x8, #2
10000820c: 02 13 00 54 	b.hs	0x10000846c <__ZN5gimli4read4line15parse_attribute17hc0c60f902ac5d7c6E+0x6b4>
100008210: 08 00 80 52 	mov	w8, #0
100008214: 6a 02 80 52 	mov	w10, #19
100008218: 4b 1d 00 12 	and	w11, w10, #0xff
10000821c: 7f 2d 01 71 	cmp	w11, #75
100008220: 20 13 00 54 	b.eq	0x100008484 <__ZN5gimli4read4line15parse_attribute17hc0c60f902ac5d7c6E+0x6cc>
100008224: ff 13 00 79 	strh	wzr, [sp, #8]
100008228: ff a3 00 b8 	stur	wzr, [sp, #10]
10000822c: ff 3b 00 39 	strb	wzr, [sp, #14]
100008230: e8 0b 40 b9 	ldr	w8, [sp, #8]
100008234: e8 23 00 b9 	str	w8, [sp, #32]
100008238: 1a 00 00 14 	b	0x1000082a0 <__ZN5gimli4read4line15parse_attribute17hc0c60f902ac5d7c6E+0x4e8>
10000823c: 29 20 40 a9 	ldp	x9, x8, [x1]
100008240: 08 0d 00 f1 	subs	x8, x8, #3
100008244: a2 12 00 54 	b.hs	0x100008498 <__ZN5gimli4read4line15parse_attribute17hc0c60f902ac5d7c6E+0x6e0>
100008248: 08 00 80 d2 	mov	x8, #0
10000824c: 6a 02 80 52 	mov	w10, #19
100008250: 4b 1d 00 12 	and	w11, w10, #0xff
100008254: 7f 2d 01 71 	cmp	w11, #75
100008258: 20 13 00 54 	b.eq	0x1000084bc <__ZN5gimli4read4line15parse_attribute17hc0c60f902ac5d7c6E+0x704>
10000825c: 6a 22 00 39 	strb	w10, [x19, #8]
100008260: 7f 3e 00 39 	strb	wzr, [x19, #15]
100008264: 7f d2 00 78 	sturh	wzr, [x19, #13]
100008268: 7f 92 00 b8 	stur	wzr, [x19, #9]
10000826c: 4f 01 00 14 	b	0x1000087a8 <__ZN5gimli4read4line15parse_attribute17hc0c60f902ac5d7c6E+0x9f0>
100008270: 29 20 40 a9 	ldp	x9, x8, [x1]
100008274: 0a 11 00 f1 	subs	x10, x8, #4
100008278: c2 12 00 54 	b.hs	0x1000084d0 <__ZN5gimli4read4line15parse_attribute17hc0c60f902ac5d7c6E+0x718>
10000827c: 08 00 80 52 	mov	w8, #0
100008280: 6a 02 80 52 	mov	w10, #19
100008284: 4b 1d 00 12 	and	w11, w10, #0xff
100008288: 7f 2d 01 71 	cmp	w11, #75
10000828c: e0 12 00 54 	b.eq	0x1000084e8 <__ZN5gimli4read4line15parse_attribute17hc0c60f902ac5d7c6E+0x730>
100008290: ff 0b 00 b9 	str	wzr, [sp, #8]
100008294: ff 3b 00 39 	strb	wzr, [sp, #14]
100008298: ff 1b 00 79 	strh	wzr, [sp, #12]
10000829c: ff 23 00 b9 	str	wzr, [sp, #32]
1000082a0: e8 b3 40 b8 	ldur	w8, [sp, #11]
1000082a4: e8 33 02 b8 	stur	w8, [sp, #35]
1000082a8: e8 23 40 b9 	ldr	w8, [sp, #32]
1000082ac: 68 92 00 b8 	stur	w8, [x19, #9]
1000082b0: e8 33 42 b8 	ldur	w8, [sp, #35]
1000082b4: 68 0e 00 b9 	str	w8, [x19, #12]
1000082b8: 6a 22 00 39 	strb	w10, [x19, #8]
1000082bc: 3b 01 00 14 	b	0x1000087a8 <__ZN5gimli4read4line15parse_attribute17hc0c60f902ac5d7c6E+0x9f0>
1000082c0: 1f 21 00 71 	cmp	w8, #8
1000082c4: 61 13 00 54 	b.ne	0x100008530 <__ZN5gimli4read4line15parse_attribute17hc0c60f902ac5d7c6E+0x778>
1000082c8: 29 20 40 a9 	ldp	x9, x8, [x1]
1000082cc: 0a 21 00 f1 	subs	x10, x8, #8
1000082d0: 22 1e 00 54 	b.hs	0x100008694 <__ZN5gimli4read4line15parse_attribute17hc0c60f902ac5d7c6E+0x8dc>
1000082d4: 08 00 80 d2 	mov	x8, #0
1000082d8: 6a 02 80 52 	mov	w10, #19
1000082dc: f1 00 00 14 	b	0x1000086a0 <__ZN5gimli4read4line15parse_attribute17hc0c60f902ac5d7c6E+0x8e8>
1000082e0: 29 20 40 a9 	ldp	x9, x8, [x1]
1000082e4: 0a 11 00 f1 	subs	x10, x8, #4
1000082e8: e2 13 00 54 	b.hs	0x100008564 <__ZN5gimli4read4line15parse_attribute17hc0c60f902ac5d7c6E+0x7ac>
1000082ec: 08 00 80 d2 	mov	x8, #0
1000082f0: 6a 02 80 52 	mov	w10, #19
1000082f4: 9f 00 00 14 	b	0x100008570 <__ZN5gimli4read4line15parse_attribute17hc0c60f902ac5d7c6E+0x7b8>
1000082f8: ca 3d 08 53 	ubfx	w10, w14, #8, #8
1000082fc: cb 3d 10 12 	and	w11, w14, #0xffff0000
100008300: cc 7d 60 92 	and	x12, x14, #0xffffffff00000000
100008304: ad 03 80 52 	mov	w13, #29
100008308: e8 03 0e aa 	mov	x8, x14
10000830c: 14 01 00 14 	b	0x10000875c <__ZN5gimli4read4line15parse_attribute17hc0c60f902ac5d7c6E+0x9a4>
100008310: 09 25 40 78 	ldrh	w9, [x8], #2
100008314: 28 2c 00 a9 	stp	x8, x11, [x1]
100008318: 6a 09 80 52 	mov	w10, #75
10000831c: 4c 1d 00 12 	and	w12, w10, #0xff
100008320: 9f 2d 01 71 	cmp	w12, #75
100008324: a0 01 00 54 	b.eq	0x100008358 <__ZN5gimli4read4line15parse_attribute17hc0c60f902ac5d7c6E+0x5a0>
100008328: ff 13 00 79 	strh	wzr, [sp, #8]
10000832c: ff a3 00 b8 	stur	wzr, [sp, #10]
100008330: ff 3b 00 39 	strb	wzr, [sp, #14]
100008334: e9 0b 40 b9 	ldr	w9, [sp, #8]
100008338: e9 23 00 b9 	str	w9, [sp, #32]
10000833c: 74 00 00 14 	b	0x10000850c <__ZN5gimli4read4line15parse_attribute17hc0c60f902ac5d7c6E+0x754>
100008340: 09 45 40 b8 	ldr	w9, [x8], #4
100008344: 28 2c 00 a9 	stp	x8, x11, [x1]
100008348: 6a 09 80 52 	mov	w10, #75
10000834c: 4c 1d 00 12 	and	w12, w10, #0xff
100008350: 9f 2d 01 71 	cmp	w12, #75
100008354: 41 0d 00 54 	b.ne	0x1000084fc <__ZN5gimli4read4line15parse_attribute17hc0c60f902ac5d7c6E+0x744>
100008358: 6b 01 09 eb 	subs	x11, x11, x9
10000835c: 82 00 00 54 	b.hs	0x10000836c <__ZN5gimli4read4line15parse_attribute17hc0c60f902ac5d7c6E+0x5b4>
100008360: 69 02 80 52 	mov	w9, #19
100008364: 69 a2 00 a9 	stp	x9, x8, [x19, #8]
100008368: 11 01 00 14 	b	0x1000087ac <__ZN5gimli4read4line15parse_attribute17hc0c60f902ac5d7c6E+0x9f4>
10000836c: 0c 01 09 8b 	add	x12, x8, x9
100008370: 0a 3d 08 53 	ubfx	w10, w8, #8, #8
100008374: 2c 2c 00 a9 	stp	x12, x11, [x1]
100008378: 0b 3d 10 12 	and	w11, w8, #0xffff0000
10000837c: 0c 7d 60 92 	and	x12, x8, #0xffffffff00000000
100008380: 2d 00 80 52 	mov	w13, #1
100008384: f6 00 00 14 	b	0x10000875c <__ZN5gimli4read4line15parse_attribute17hc0c60f902ac5d7c6E+0x9a4>
100008388: 28 25 40 78 	ldrh	w8, [x9], #2
10000838c: 29 28 00 a9 	stp	x9, x10, [x1]
100008390: 6a 09 80 52 	mov	w10, #75
100008394: 4b 1d 00 12 	and	w11, w10, #0xff
100008398: 7f 2d 01 71 	cmp	w11, #75
10000839c: 01 db ff 54 	b.ne	0x100007efc <__ZN5gimli4read4line15parse_attribute17hc0c60f902ac5d7c6E+0x144>
1000083a0: 0b 00 80 52 	mov	w11, #0
1000083a4: 0c 00 80 d2 	mov	x12, #0
1000083a8: 0a 7d 08 53 	lsr	w10, w8, #8
1000083ac: 6d 00 80 52 	mov	w13, #3
1000083b0: eb 00 00 14 	b	0x10000875c <__ZN5gimli4read4line15parse_attribute17hc0c60f902ac5d7c6E+0x9a4>
1000083b4: 28 45 40 b8 	ldr	w8, [x9], #4
1000083b8: 29 28 00 a9 	stp	x9, x10, [x1]
1000083bc: 6a 09 80 52 	mov	w10, #75
1000083c0: 4b 1d 00 12 	and	w11, w10, #0xff
1000083c4: 7f 2d 01 71 	cmp	w11, #75
1000083c8: a1 db ff 54 	b.ne	0x100007f3c <__ZN5gimli4read4line15parse_attribute17hc0c60f902ac5d7c6E+0x184>
1000083cc: 0c 00 80 d2 	mov	x12, #0
1000083d0: 0a 3d 08 53 	ubfx	w10, w8, #8, #8
1000083d4: 0b 3d 10 12 	and	w11, w8, #0xffff0000
1000083d8: 8d 00 80 52 	mov	w13, #4
1000083dc: e0 00 00 14 	b	0x10000875c <__ZN5gimli4read4line15parse_attribute17hc0c60f902ac5d7c6E+0x9a4>
1000083e0: 2e 85 40 f8 	ldr	x14, [x9], #8
1000083e4: 29 20 00 a9 	stp	x9, x8, [x1]
1000083e8: 68 09 80 52 	mov	w8, #75
1000083ec: 0a 1d 00 12 	and	w10, w8, #0xff
1000083f0: 5f 2d 01 71 	cmp	w10, #75
1000083f4: c1 dc ff 54 	b.ne	0x100007f8c <__ZN5gimli4read4line15parse_attribute17hc0c60f902ac5d7c6E+0x1d4>
1000083f8: ca 3d 08 53 	ubfx	w10, w14, #8, #8
1000083fc: cb 3d 10 12 	and	w11, w14, #0xffff0000
100008400: cc 7d 60 92 	and	x12, x14, #0xffffffff00000000
100008404: ad 00 80 52 	mov	w13, #5
100008408: e8 03 0e aa 	mov	x8, x14
10000840c: d4 00 00 14 	b	0x10000875c <__ZN5gimli4read4line15parse_attribute17hc0c60f902ac5d7c6E+0x9a4>
100008410: e9 0b 40 f9 	ldr	x9, [sp, #16]
100008414: ea 93 40 b8 	ldur	w10, [sp, #9]
100008418: ea 23 00 b9 	str	w10, [sp, #32]
10000841c: ea 0f 40 b9 	ldr	w10, [sp, #12]
100008420: ea 33 02 b8 	stur	w10, [sp, #35]
100008424: ea 23 40 b9 	ldr	w10, [sp, #32]
100008428: 6a 92 00 b8 	stur	w10, [x19, #9]
10000842c: ea 33 42 b8 	ldur	w10, [sp, #35]
100008430: 6a 0e 00 b9 	str	w10, [x19, #12]
100008434: 68 22 00 39 	strb	w8, [x19, #8]
100008438: dc 00 00 14 	b	0x1000087a8 <__ZN5gimli4read4line15parse_attribute17hc0c60f902ac5d7c6E+0x9f0>
10000843c: 29 20 40 a9 	ldp	x9, x8, [x1]
100008440: 0a 11 00 f1 	subs	x10, x8, #4
100008444: c2 14 00 54 	b.hs	0x1000086dc <__ZN5gimli4read4line15parse_attribute17hc0c60f902ac5d7c6E+0x924>
100008448: 08 00 80 d2 	mov	x8, #0
10000844c: 6a 02 80 52 	mov	w10, #19
100008450: a6 00 00 14 	b	0x1000086e8 <__ZN5gimli4read4line15parse_attribute17hc0c60f902ac5d7c6E+0x930>
100008454: 29 20 40 a9 	ldp	x9, x8, [x1]
100008458: 0a 11 00 f1 	subs	x10, x8, #4
10000845c: 62 15 00 54 	b.hs	0x100008708 <__ZN5gimli4read4line15parse_attribute17hc0c60f902ac5d7c6E+0x950>
100008460: 08 00 80 d2 	mov	x8, #0
100008464: 6a 02 80 52 	mov	w10, #19
100008468: ab 00 00 14 	b	0x100008714 <__ZN5gimli4read4line15parse_attribute17hc0c60f902ac5d7c6E+0x95c>
10000846c: 28 25 40 78 	ldrh	w8, [x9], #2
100008470: 29 28 00 a9 	stp	x9, x10, [x1]
100008474: 6a 09 80 52 	mov	w10, #75
100008478: 4b 1d 00 12 	and	w11, w10, #0xff
10000847c: 7f 2d 01 71 	cmp	w11, #75
100008480: 21 ed ff 54 	b.ne	0x100008224 <__ZN5gimli4read4line15parse_attribute17hc0c60f902ac5d7c6E+0x46c>
100008484: 0b 00 80 52 	mov	w11, #0
100008488: 0c 00 80 d2 	mov	x12, #0
10000848c: 0a 7d 08 53 	lsr	w10, w8, #8
100008490: ad 03 80 52 	mov	w13, #29
100008494: b2 00 00 14 	b	0x10000875c <__ZN5gimli4read4line15parse_attribute17hc0c60f902ac5d7c6E+0x9a4>
100008498: 2a 0d 00 91 	add	x10, x9, #3
10000849c: 2a 20 00 a9 	stp	x10, x8, [x1]
1000084a0: 2a 09 40 39 	ldrb	w10, [x9, #2]
1000084a4: 28 01 40 79 	ldrh	w8, [x9]
1000084a8: 48 1d 70 b3 	bfi	x8, x10, #16, #8
1000084ac: 6a 09 80 52 	mov	w10, #75
1000084b0: 4b 1d 00 12 	and	w11, w10, #0xff
1000084b4: 7f 2d 01 71 	cmp	w11, #75
1000084b8: 21 ed ff 54 	b.ne	0x10000825c <__ZN5gimli4read4line15parse_attribute17hc0c60f902ac5d7c6E+0x4a4>
1000084bc: 0c 00 80 d2 	mov	x12, #0
1000084c0: 0a 3d 08 53 	ubfx	w10, w8, #8, #8
1000084c4: 0b 1d 10 12 	and	w11, w8, #0xff0000
1000084c8: ad 03 80 52 	mov	w13, #29
1000084cc: a4 00 00 14 	b	0x10000875c <__ZN5gimli4read4line15parse_attribute17hc0c60f902ac5d7c6E+0x9a4>
1000084d0: 28 45 40 b8 	ldr	w8, [x9], #4
1000084d4: 29 28 00 a9 	stp	x9, x10, [x1]
1000084d8: 6a 09 80 52 	mov	w10, #75
1000084dc: 4b 1d 00 12 	and	w11, w10, #0xff
1000084e0: 7f 2d 01 71 	cmp	w11, #75
1000084e4: 61 ed ff 54 	b.ne	0x100008290 <__ZN5gimli4read4line15parse_attribute17hc0c60f902ac5d7c6E+0x4d8>
1000084e8: 0c 00 80 d2 	mov	x12, #0
1000084ec: 0a 7d 08 53 	lsr	w10, w8, #8
1000084f0: 0b 3d 10 12 	and	w11, w8, #0xffff0000
1000084f4: ad 03 80 52 	mov	w13, #29
1000084f8: 99 00 00 14 	b	0x10000875c <__ZN5gimli4read4line15parse_attribute17hc0c60f902ac5d7c6E+0x9a4>
1000084fc: ff 0b 00 b9 	str	wzr, [sp, #8]
100008500: ff 3b 00 39 	strb	wzr, [sp, #14]
100008504: ff 1b 00 79 	strh	wzr, [sp, #12]
100008508: ff 23 00 b9 	str	wzr, [sp, #32]
10000850c: e9 b3 40 b8 	ldur	w9, [sp, #11]
100008510: e9 33 02 b8 	stur	w9, [sp, #35]
100008514: e9 23 40 b9 	ldr	w9, [sp, #32]
100008518: 69 92 00 b8 	stur	w9, [x19, #9]
10000851c: e9 33 42 b8 	ldur	w9, [sp, #35]
100008520: 69 0e 00 b9 	str	w9, [x19, #12]
100008524: 6a 22 00 39 	strb	w10, [x19, #8]
100008528: 68 0a 00 f9 	str	x8, [x19, #16]
10000852c: a0 00 00 14 	b	0x1000087ac <__ZN5gimli4read4line15parse_attribute17hc0c60f902ac5d7c6E+0x9f4>
100008530: 29 20 40 a9 	ldp	x9, x8, [x1]
100008534: 0a 11 00 f1 	subs	x10, x8, #4
100008538: e2 0f 00 54 	b.hs	0x100008734 <__ZN5gimli4read4line15parse_attribute17hc0c60f902ac5d7c6E+0x97c>
10000853c: 08 00 80 d2 	mov	x8, #0
100008540: 6a 02 80 52 	mov	w10, #19
100008544: 7f 00 00 14 	b	0x100008740 <__ZN5gimli4read4line15parse_attribute17hc0c60f902ac5d7c6E+0x988>
100008548: 28 85 40 f8 	ldr	x8, [x9], #8
10000854c: 29 28 00 a9 	stp	x9, x10, [x1]
100008550: 6a 09 80 52 	mov	w10, #75
100008554: 4a 1d 00 12 	and	w10, w10, #0xff
100008558: 5f 2d 01 71 	cmp	w10, #75
10000855c: 00 01 00 54 	b.eq	0x10000857c <__ZN5gimli4read4line15parse_attribute17hc0c60f902ac5d7c6E+0x7c4>
100008560: 53 00 00 14 	b	0x1000086ac <__ZN5gimli4read4line15parse_attribute17hc0c60f902ac5d7c6E+0x8f4>
100008564: 28 45 40 b8 	ldr	w8, [x9], #4
100008568: 29 28 00 a9 	stp	x9, x10, [x1]
10000856c: 6a 09 80 52 	mov	w10, #75
100008570: 4a 1d 00 12 	and	w10, w10, #0xff
100008574: 5f 2d 01 71 	cmp	w10, #75
100008578: 01 10 00 54 	b.ne	0x100008778 <__ZN5gimli4read4line15parse_attribute17hc0c60f902ac5d7c6E+0x9c0>
10000857c: 0a 3d 08 53 	ubfx	w10, w8, #8, #8
100008580: 0b 3d 10 12 	and	w11, w8, #0xffff0000
100008584: 0c 7d 60 92 	and	x12, x8, #0xffffffff00000000
100008588: 6d 03 80 52 	mov	w13, #27
10000858c: 74 00 00 14 	b	0x10000875c <__ZN5gimli4read4line15parse_attribute17hc0c60f902ac5d7c6E+0x9a4>
100008590: 69 02 80 52 	mov	w9, #19
100008594: 69 12 00 79 	strh	w9, [x19, #8]
100008598: fa fe ff 17 	b	0x100008180 <__ZN5gimli4read4line15parse_attribute17hc0c60f902ac5d7c6E+0x3c8>
10000859c: 08 00 80 52 	mov	w8, #0
1000085a0: 6a 02 80 52 	mov	w10, #19
1000085a4: 4b 1d 00 12 	and	w11, w10, #0xff
1000085a8: 7f 2d 01 71 	cmp	w11, #75
1000085ac: e1 02 00 54 	b.ne	0x100008608 <__ZN5gimli4read4line15parse_attribute17hc0c60f902ac5d7c6E+0x850>
1000085b0: 0a 00 80 52 	mov	w10, #0
1000085b4: 0b 00 80 52 	mov	w11, #0
1000085b8: 0c 00 80 d2 	mov	x12, #0
1000085bc: 4d 00 80 52 	mov	w13, #2
1000085c0: 67 00 00 14 	b	0x10000875c <__ZN5gimli4read4line15parse_attribute17hc0c60f902ac5d7c6E+0x9a4>
1000085c4: 09 00 80 52 	mov	w9, #0
1000085c8: 6a 02 80 52 	mov	w10, #19
1000085cc: 4b 1d 00 12 	and	w11, w10, #0xff
1000085d0: 7f 2d 01 71 	cmp	w11, #75
1000085d4: 20 d7 ff 54 	b.eq	0x1000080b8 <__ZN5gimli4read4line15parse_attribute17hc0c60f902ac5d7c6E+0x300>
1000085d8: 6a 22 00 39 	strb	w10, [x19, #8]
1000085dc: e8 fe ff 17 	b	0x10000817c <__ZN5gimli4read4line15parse_attribute17hc0c60f902ac5d7c6E+0x3c4>
1000085e0: 08 00 80 52 	mov	w8, #0
1000085e4: 6a 02 80 52 	mov	w10, #19
1000085e8: 4b 1d 00 12 	and	w11, w10, #0xff
1000085ec: 7f 2d 01 71 	cmp	w11, #75
1000085f0: c1 00 00 54 	b.ne	0x100008608 <__ZN5gimli4read4line15parse_attribute17hc0c60f902ac5d7c6E+0x850>
1000085f4: 0a 00 80 52 	mov	w10, #0
1000085f8: 0b 00 80 52 	mov	w11, #0
1000085fc: 0c 00 80 d2 	mov	x12, #0
100008600: ad 03 80 52 	mov	w13, #29
100008604: 56 00 00 14 	b	0x10000875c <__ZN5gimli4read4line15parse_attribute17hc0c60f902ac5d7c6E+0x9a4>
100008608: 6a 22 00 39 	strb	w10, [x19, #8]
10000860c: 7f 26 00 39 	strb	wzr, [x19, #9]
100008610: 7f 1e 00 79 	strh	wzr, [x19, #14]
100008614: 7f a2 00 b8 	stur	wzr, [x19, #10]
100008618: 64 00 00 14 	b	0x1000087a8 <__ZN5gimli4read4line15parse_attribute17hc0c60f902ac5d7c6E+0x9f0>
10000861c: 0b 01 09 8b 	add	x11, x8, x9
100008620: 6b 05 00 91 	add	x11, x11, #1
100008624: ec 03 29 aa 	mvn	x12, x9
100008628: 4a 01 0c 8b 	add	x10, x10, x12
10000862c: 2b 28 00 a9 	stp	x11, x10, [x1]
100008630: 0a 3d 08 53 	ubfx	w10, w8, #8, #8
100008634: 0b 3d 10 12 	and	w11, w8, #0xffff0000
100008638: 0c 7d 60 92 	and	x12, x8, #0xffffffff00000000
10000863c: ed 03 80 52 	mov	w13, #31
100008640: 47 00 00 14 	b	0x10000875c <__ZN5gimli4read4line15parse_attribute17hc0c60f902ac5d7c6E+0x9a4>
100008644: ca 3d 08 53 	ubfx	w10, w14, #8, #8
100008648: cb 3d 10 12 	and	w11, w14, #0xffff0000
10000864c: cc 7d 60 92 	and	x12, x14, #0xffffffff00000000
100008650: ed 00 80 52 	mov	w13, #7
100008654: e8 03 0e aa 	mov	x8, x14
100008658: 41 00 00 14 	b	0x10000875c <__ZN5gimli4read4line15parse_attribute17hc0c60f902ac5d7c6E+0x9a4>
10000865c: 28 85 40 f8 	ldr	x8, [x9], #8
100008660: 29 28 00 a9 	stp	x9, x10, [x1]
100008664: 6a 09 80 52 	mov	w10, #75
100008668: 4a 1d 00 12 	and	w10, w10, #0xff
10000866c: 5f 2d 01 71 	cmp	w10, #75
100008670: e1 01 00 54 	b.ne	0x1000086ac <__ZN5gimli4read4line15parse_attribute17hc0c60f902ac5d7c6E+0x8f4>
100008674: 20 00 00 14 	b	0x1000086f4 <__ZN5gimli4read4line15parse_attribute17hc0c60f902ac5d7c6E+0x93c>
100008678: 28 85 40 f8 	ldr	x8, [x9], #8
10000867c: 29 28 00 a9 	stp	x9, x10, [x1]
100008680: 6a 09 80 52 	mov	w10, #75
100008684: 4a 1d 00 12 	and	w10, w10, #0xff
100008688: 5f 2d 01 71 	cmp	w10, #75
10000868c: 01 01 00 54 	b.ne	0x1000086ac <__ZN5gimli4read4line15parse_attribute17hc0c60f902ac5d7c6E+0x8f4>
100008690: 24 00 00 14 	b	0x100008720 <__ZN5gimli4read4line15parse_attribute17hc0c60f902ac5d7c6E+0x968>
100008694: 28 85 40 f8 	ldr	x8, [x9], #8
100008698: 29 28 00 a9 	stp	x9, x10, [x1]
10000869c: 6a 09 80 52 	mov	w10, #75
1000086a0: 4a 1d 00 12 	and	w10, w10, #0xff
1000086a4: 5f 2d 01 71 	cmp	w10, #75
1000086a8: 20 05 00 54 	b.eq	0x10000874c <__ZN5gimli4read4line15parse_attribute17hc0c60f902ac5d7c6E+0x994>
1000086ac: ff 3b 00 39 	strb	wzr, [sp, #14]
1000086b0: ff 1b 00 79 	strh	wzr, [sp, #12]
1000086b4: ff 0b 00 b9 	str	wzr, [sp, #8]
1000086b8: e9 f3 00 f8 	stur	x9, [sp, #15]
1000086bc: e8 07 40 f9 	ldr	x8, [sp, #8]
1000086c0: e9 13 40 b9 	ldr	w9, [sp, #16]
1000086c4: e9 2b 00 b9 	str	w9, [sp, #40]
1000086c8: e9 33 41 b8 	ldur	w9, [sp, #19]
1000086cc: e9 b3 02 b8 	stur	w9, [sp, #43]
1000086d0: e8 13 00 f9 	str	x8, [sp, #32]
1000086d4: e9 73 42 f8 	ldur	x9, [sp, #39]
1000086d8: 2b 00 00 14 	b	0x100008784 <__ZN5gimli4read4line15parse_attribute17hc0c60f902ac5d7c6E+0x9cc>
1000086dc: 28 45 40 b8 	ldr	w8, [x9], #4
1000086e0: 29 28 00 a9 	stp	x9, x10, [x1]
1000086e4: 6a 09 80 52 	mov	w10, #75
1000086e8: 4a 1d 00 12 	and	w10, w10, #0xff
1000086ec: 5f 2d 01 71 	cmp	w10, #75
1000086f0: 41 04 00 54 	b.ne	0x100008778 <__ZN5gimli4read4line15parse_attribute17hc0c60f902ac5d7c6E+0x9c0>
1000086f4: 0a 3d 08 53 	ubfx	w10, w8, #8, #8
1000086f8: 0b 3d 10 12 	and	w11, w8, #0xffff0000
1000086fc: 0c 7d 60 92 	and	x12, x8, #0xffffffff00000000
100008700: 4d 03 80 52 	mov	w13, #26
100008704: 16 00 00 14 	b	0x10000875c <__ZN5gimli4read4line15parse_attribute17hc0c60f902ac5d7c6E+0x9a4>
100008708: 28 45 40 b8 	ldr	w8, [x9], #4
10000870c: 29 28 00 a9 	stp	x9, x10, [x1]
100008710: 6a 09 80 52 	mov	w10, #75
100008714: 4a 1d 00 12 	and	w10, w10, #0xff
100008718: 5f 2d 01 71 	cmp	w10, #75
10000871c: e1 02 00 54 	b.ne	0x100008778 <__ZN5gimli4read4line15parse_attribute17hc0c60f902ac5d7c6E+0x9c0>
100008720: 0a 3d 08 53 	ubfx	w10, w8, #8, #8
100008724: 0b 3d 10 12 	and	w11, w8, #0xffff0000
100008728: 0c 7d 60 92 	and	x12, x8, #0xffffffff00000000
10000872c: cd 03 80 52 	mov	w13, #30
100008730: 0b 00 00 14 	b	0x10000875c <__ZN5gimli4read4line15parse_attribute17hc0c60f902ac5d7c6E+0x9a4>
100008734: 28 45 40 b8 	ldr	w8, [x9], #4
100008738: 29 28 00 a9 	stp	x9, x10, [x1]
10000873c: 6a 09 80 52 	mov	w10, #75
100008740: 4a 1d 00 12 	and	w10, w10, #0xff
100008744: 5f 2d 01 71 	cmp	w10, #75
100008748: 81 01 00 54 	b.ne	0x100008778 <__ZN5gimli4read4line15parse_attribute17hc0c60f902ac5d7c6E+0x9c0>
10000874c: 0a 3d 08 53 	ubfx	w10, w8, #8, #8
100008750: 0b 3d 10 12 	and	w11, w8, #0xffff0000
100008754: 0c 7d 60 92 	and	x12, x8, #0xffffffff00000000
100008758: 4d 01 80 52 	mov	w13, #10
10000875c: 08 1d 00 12 	and	w8, w8, #0xff
100008760: 48 1d 18 33 	bfi	w8, w10, #8, #8
100008764: 08 01 0b 2a 	orr	w8, w8, w11
100008768: 88 01 08 aa 	orr	x8, x12, x8
10000876c: 6d 22 00 a9 	stp	x13, x8, [x19]
100008770: 69 0a 00 f9 	str	x9, [x19, #16]
100008774: 10 00 00 14 	b	0x1000087b4 <__ZN5gimli4read4line15parse_attribute17hc0c60f902ac5d7c6E+0x9fc>
100008778: ff 23 00 b9 	str	wzr, [sp, #32]
10000877c: ff 9b 00 39 	strb	wzr, [sp, #38]
100008780: ff 4b 00 79 	strh	wzr, [sp, #36]
100008784: e8 23 40 b9 	ldr	w8, [sp, #32]
100008788: e8 1b 00 b9 	str	w8, [sp, #24]
10000878c: e8 33 42 b8 	ldur	w8, [sp, #35]
100008790: e8 b3 01 b8 	stur	w8, [sp, #27]
100008794: e8 1b 40 b9 	ldr	w8, [sp, #24]
100008798: 68 92 00 b8 	stur	w8, [x19, #9]
10000879c: e8 b3 41 b8 	ldur	w8, [sp, #27]
1000087a0: 68 0e 00 b9 	str	w8, [x19, #12]
1000087a4: 6a 22 00 39 	strb	w10, [x19, #8]
1000087a8: 69 0a 00 f9 	str	x9, [x19, #16]
1000087ac: c8 05 80 52 	mov	w8, #46
1000087b0: 68 02 00 f9 	str	x8, [x19]
1000087b4: fd 7b 44 a9 	ldp	x29, x30, [sp, #64]
1000087b8: f4 4f 43 a9 	ldp	x20, x19, [sp, #48]
1000087bc: ff 43 01 91 	add	sp, sp, #80
1000087c0: c0 03 5f d6 	ret

00000001000087c4 <__ZN5gimli4read4unit15parse_attribute17h0686769df978d94eE>:
1000087c4: ff 83 01 d1 	sub	sp, sp, #96
1000087c8: f6 57 03 a9 	stp	x22, x21, [sp, #48]
1000087cc: f4 4f 04 a9 	stp	x20, x19, [sp, #64]
1000087d0: fd 7b 05 a9 	stp	x29, x30, [sp, #80]
1000087d4: fd 43 01 91 	add	x29, sp, #80
1000087d8: f4 03 03 aa 	mov	x20, x3
1000087dc: f5 03 01 aa 	mov	x21, x1
1000087e0: f3 03 00 aa 	mov	x19, x0
1000087e4: 69 14 40 79 	ldrh	w9, [x3, #10]
1000087e8: cb 52 15 10 	adr	x11, #174680
1000087ec: 1f 20 03 d5 	nop
1000087f0: ec 03 09 aa 	mov	x12, x9
1000087f4: e8 03 0c aa 	mov	x8, x12
1000087f8: 8a 3d 00 12 	and	w10, w12, #0xffff
1000087fc: 4c 05 00 51 	sub	w12, w10, #1
100008800: 9f ad 00 71 	cmp	w12, #43
100008804: c8 03 00 54 	b.hi	0x10000887c <__ZN5gimli4read4unit15parse_attribute17h0686769df978d94eE+0xb8>
100008808: 8a 00 00 10 	adr	x10, #16
10000880c: 6d 79 6c 78 	ldrh	w13, [x11, x12, lsl #1]
100008810: 4a 09 0d 8b 	add	x10, x10, x13, lsl #2
100008814: 40 01 1f d6 	br	x10
100008818: aa 36 40 a9 	ldp	x10, x13, [x21]
10000881c: ad 3b 00 b4 	cbz	x13, 0x100008f90 <__ZN5gimli4read4unit15parse_attribute17h0686769df978d94eE+0x7cc>
100008820: ee 03 0a aa 	mov	x14, x10
100008824: d0 15 40 38 	ldrb	w16, [x14], #1
100008828: af 05 00 d1 	sub	x15, x13, #1
10000882c: ae 3e 00 a9 	stp	x14, x15, [x21]
100008830: 0c 1a 00 12 	and	w12, w16, #0x7f
100008834: 10 fe 3f 36 	tbz	w16, #7, 0x1000087f4 <__ZN5gimli4read4unit15parse_attribute17h0686769df978d94eE+0x30>
100008838: 4f 64 00 b4 	cbz	x15, 0x1000094c0 <__ZN5gimli4read4unit15parse_attribute17h0686769df978d94eE+0xcfc>
10000883c: 4e 09 00 91 	add	x14, x10, #2
100008840: af 09 00 d1 	sub	x15, x13, #2
100008844: ae 3e 00 a9 	stp	x14, x15, [x21]
100008848: 50 05 40 39 	ldrb	w16, [x10, #1]
10000884c: 11 1a 00 12 	and	w17, w16, #0x7f
100008850: 2c 1a 19 33 	bfi	w12, w17, #7, #7
100008854: 10 fd 3f 36 	tbz	w16, #7, 0x1000087f4 <__ZN5gimli4read4unit15parse_attribute17h0686769df978d94eE+0x30>
100008858: 4f 63 00 b4 	cbz	x15, 0x1000094c0 <__ZN5gimli4read4unit15parse_attribute17h0686769df978d94eE+0xcfc>
10000885c: 4e 0d 00 91 	add	x14, x10, #3
100008860: ad 0d 00 d1 	sub	x13, x13, #3
100008864: ae 36 00 a9 	stp	x14, x13, [x21]
100008868: 4a 09 40 39 	ldrb	w10, [x10, #2]
10000886c: 5f 0d 00 71 	cmp	w10, #3
100008870: 28 87 00 54 	b.hi	0x100009954 <__ZN5gimli4read4unit15parse_attribute17h0686769df978d94eE+0x1190>
100008874: 4c 1d 12 33 	bfi	w12, w10, #14, #8
100008878: df ff ff 17 	b	0x1000087f4 <__ZN5gimli4read4unit15parse_attribute17h0686769df978d94eE+0x30>
10000887c: 08 e0 83 12 	mov	w8, #-7937
100008880: 48 01 08 0b 	add	w8, w10, w8
100008884: 1f 81 00 71 	cmp	w8, #32
100008888: a8 38 00 54 	b.hi	0x100008f9c <__ZN5gimli4read4unit15parse_attribute17h0686769df978d94eE+0x7d8>
10000888c: 69 50 15 10 	adr	x9, #174604
100008890: 1f 20 03 d5 	nop
100008894: 8a 00 00 10 	adr	x10, #16
100008898: 2b 79 68 78 	ldrh	w11, [x9, x8, lsl #1]
10000889c: 4a 09 0b 8b 	add	x10, x10, x11, lsl #2
1000088a0: 40 01 1f d6 	br	x10
1000088a4: 09 00 80 52 	mov	w9, #0
1000088a8: 0c 00 80 d2 	mov	x12, #0
1000088ac: a8 2a 40 a9 	ldp	x8, x10, [x21]
1000088b0: 4a 05 00 d1 	sub	x10, x10, #1
1000088b4: 07 00 00 14 	b	0x1000088d0 <__ZN5gimli4read4unit15parse_attribute17h0686769df978d94eE+0x10c>
1000088b8: 6d 19 40 92 	and	x13, x11, #0x7f
1000088bc: ad 21 c9 9a 	lsl	x13, x13, x9
1000088c0: ac 01 0c aa 	orr	x12, x13, x12
1000088c4: 29 1d 00 11 	add	w9, w9, #7
1000088c8: 4a 05 00 d1 	sub	x10, x10, #1
1000088cc: 6b 39 38 36 	tbz	w11, #7, 0x100008ff8 <__ZN5gimli4read4unit15parse_attribute17h0686769df978d94eE+0x834>
1000088d0: 5f 05 00 b1 	cmn	x10, #1
1000088d4: e0 2b 00 54 	b.eq	0x100008e50 <__ZN5gimli4read4unit15parse_attribute17h0686769df978d94eE+0x68c>
1000088d8: 0b 15 40 38 	ldrb	w11, [x8], #1
1000088dc: a8 2a 00 a9 	stp	x8, x10, [x21]
1000088e0: 3f fd 00 71 	cmp	w9, #63
1000088e4: a1 fe ff 54 	b.ne	0x1000088b8 <__ZN5gimli4read4unit15parse_attribute17h0686769df978d94eE+0xf4>
1000088e8: 7f 09 00 71 	cmp	w11, #2
1000088ec: 63 fe ff 54 	b.lo	0x1000088b8 <__ZN5gimli4read4unit15parse_attribute17h0686769df978d94eE+0xf4>
1000088f0: 56 01 00 14 	b	0x100008e48 <__ZN5gimli4read4unit15parse_attribute17h0686769df978d94eE+0x684>
1000088f4: 09 00 80 52 	mov	w9, #0
1000088f8: 0c 00 80 d2 	mov	x12, #0
1000088fc: a8 2a 40 a9 	ldp	x8, x10, [x21]
100008900: 4a 05 00 d1 	sub	x10, x10, #1
100008904: 07 00 00 14 	b	0x100008920 <__ZN5gimli4read4unit15parse_attribute17h0686769df978d94eE+0x15c>
100008908: 6d 19 40 92 	and	x13, x11, #0x7f
10000890c: ad 21 c9 9a 	lsl	x13, x13, x9
100008910: ac 01 0c aa 	orr	x12, x13, x12
100008914: 29 1d 00 11 	add	w9, w9, #7
100008918: 4a 05 00 d1 	sub	x10, x10, #1
10000891c: ab 37 38 36 	tbz	w11, #7, 0x100009010 <__ZN5gimli4read4unit15parse_attribute17h0686769df978d94eE+0x84c>
100008920: 5f 05 00 b1 	cmn	x10, #1
100008924: 60 29 00 54 	b.eq	0x100008e50 <__ZN5gimli4read4unit15parse_attribute17h0686769df978d94eE+0x68c>
100008928: 0b 15 40 38 	ldrb	w11, [x8], #1
10000892c: a8 2a 00 a9 	stp	x8, x10, [x21]
100008930: 3f fd 00 71 	cmp	w9, #63
100008934: a1 fe ff 54 	b.ne	0x100008908 <__ZN5gimli4read4unit15parse_attribute17h0686769df978d94eE+0x144>
100008938: 7f 09 00 71 	cmp	w11, #2
10000893c: 63 fe ff 54 	b.lo	0x100008908 <__ZN5gimli4read4unit15parse_attribute17h0686769df978d94eE+0x144>
100008940: 42 01 00 14 	b	0x100008e48 <__ZN5gimli4read4unit15parse_attribute17h0686769df978d94eE+0x684>
100008944: 48 3c 08 53 	ubfx	w8, w2, #8, #8
100008948: 1f 21 00 71 	cmp	w8, #8
10000894c: 61 31 00 54 	b.ne	0x100008f78 <__ZN5gimli4read4unit15parse_attribute17h0686769df978d94eE+0x7b4>
100008950: a9 22 40 a9 	ldp	x9, x8, [x21]
100008954: 0a 21 00 f1 	subs	x10, x8, #8
100008958: 82 36 00 54 	b.hs	0x100009028 <__ZN5gimli4read4unit15parse_attribute17h0686769df978d94eE+0x864>
10000895c: 08 00 80 d2 	mov	x8, #0
100008960: 6a 02 80 52 	mov	w10, #19
100008964: b4 01 00 14 	b	0x100009034 <__ZN5gimli4read4unit15parse_attribute17h0686769df978d94eE+0x870>
100008968: e0 23 00 91 	add	x0, sp, #8
10000896c: e1 03 15 aa 	mov	x1, x21
100008970: 18 07 00 94 	bl	0x10000a5d0 <__ZN5gimli4read6reader6Reader12read_address17h6c0b7e219cdf6909E>
100008974: e8 23 40 39 	ldrb	w8, [sp, #8]
100008978: 1f 2d 01 71 	cmp	w8, #75
10000897c: 21 33 00 54 	b.ne	0x100008fe0 <__ZN5gimli4read4unit15parse_attribute17h0686769df978d94eE+0x81c>
100008980: 0b 00 80 d2 	mov	x11, #0
100008984: e8 0b 40 f9 	ldr	x8, [sp, #16]
100008988: 09 3d 08 53 	ubfx	w9, w8, #8, #8
10000898c: 0d 7d 50 d3 	ubfx	x13, x8, #16, #16
100008990: 0a 7d 60 92 	and	x10, x8, #0xffffffff00000000
100008994: cb 03 00 14 	b	0x1000098c0 <__ZN5gimli4read4unit15parse_attribute17h0686769df978d94eE+0x10fc>
100008998: a8 26 40 a9 	ldp	x8, x9, [x21]
10000899c: 29 09 00 f1 	subs	x9, x9, #2
1000089a0: e3 66 00 54 	b.lo	0x10000967c <__ZN5gimli4read4unit15parse_attribute17h0686769df978d94eE+0xeb8>
1000089a4: 0c 25 40 78 	ldrh	w12, [x8], #2
1000089a8: 46 00 00 14 	b	0x100008ac0 <__ZN5gimli4read4unit15parse_attribute17h0686769df978d94eE+0x2fc>
1000089ac: a8 26 40 a9 	ldp	x8, x9, [x21]
1000089b0: 29 11 00 f1 	subs	x9, x9, #4
1000089b4: 43 66 00 54 	b.lo	0x10000967c <__ZN5gimli4read4unit15parse_attribute17h0686769df978d94eE+0xeb8>
1000089b8: 0c 45 40 b8 	ldr	w12, [x8], #4
1000089bc: 41 00 00 14 	b	0x100008ac0 <__ZN5gimli4read4unit15parse_attribute17h0686769df978d94eE+0x2fc>
1000089c0: a9 22 40 a9 	ldp	x9, x8, [x21]
1000089c4: 0a 09 00 f1 	subs	x10, x8, #2
1000089c8: e2 33 00 54 	b.hs	0x100009044 <__ZN5gimli4read4unit15parse_attribute17h0686769df978d94eE+0x880>
1000089cc: 08 00 80 52 	mov	w8, #0
1000089d0: 6a 02 80 52 	mov	w10, #19
1000089d4: 9f 01 00 14 	b	0x100009050 <__ZN5gimli4read4unit15parse_attribute17h0686769df978d94eE+0x88c>
1000089d8: 48 1c 18 12 	and	w8, w2, #0xff00
1000089dc: 1f 01 10 71 	cmp	w8, #1024
1000089e0: 21 2e 00 54 	b.ne	0x100008fa4 <__ZN5gimli4read4unit15parse_attribute17h0686769df978d94eE+0x7e0>
1000089e4: 41 7c 10 53 	lsr	w1, w2, #16
1000089e8: 80 12 40 79 	ldrh	w0, [x20, #8]
1000089ec: ff 69 00 94 	bl	0x1000231e8 <__ZN5gimli4read4unit20allow_section_offset17h2f73321decae7ca2E>
1000089f0: a0 2d 00 36 	tbz	w0, #0, 0x100008fa4 <__ZN5gimli4read4unit15parse_attribute17h0686769df978d94eE+0x7e0>
1000089f4: a8 26 40 a9 	ldp	x8, x9, [x21]
1000089f8: 29 11 00 f1 	subs	x9, x9, #4
1000089fc: 62 73 00 54 	b.hs	0x100009868 <__ZN5gimli4read4unit15parse_attribute17h0686769df978d94eE+0x10a4>
100008a00: 0c 00 80 d2 	mov	x12, #0
100008a04: 69 02 80 52 	mov	w9, #19
100008a08: 9b 03 00 14 	b	0x100009874 <__ZN5gimli4read4unit15parse_attribute17h0686769df978d94eE+0x10b0>
100008a0c: 48 1c 18 12 	and	w8, w2, #0xff00
100008a10: 1f 01 20 71 	cmp	w8, #2048
100008a14: 41 2d 00 54 	b.ne	0x100008fbc <__ZN5gimli4read4unit15parse_attribute17h0686769df978d94eE+0x7f8>
100008a18: 41 7c 10 53 	lsr	w1, w2, #16
100008a1c: 80 12 40 79 	ldrh	w0, [x20, #8]
100008a20: f2 69 00 94 	bl	0x1000231e8 <__ZN5gimli4read4unit20allow_section_offset17h2f73321decae7ca2E>
100008a24: c0 2c 00 36 	tbz	w0, #0, 0x100008fbc <__ZN5gimli4read4unit15parse_attribute17h0686769df978d94eE+0x7f8>
100008a28: aa 22 40 a9 	ldp	x10, x8, [x21]
100008a2c: 09 21 00 f1 	subs	x9, x8, #8
100008a30: 42 73 00 54 	b.hs	0x100009898 <__ZN5gimli4read4unit15parse_attribute17h0686769df978d94eE+0x10d4>
100008a34: 08 00 80 d2 	mov	x8, #0
100008a38: 69 02 80 52 	mov	w9, #19
100008a3c: 9a 03 00 14 	b	0x1000098a4 <__ZN5gimli4read4unit15parse_attribute17h0686769df978d94eE+0x10e0>
100008a40: a8 26 40 a9 	ldp	x8, x9, [x21]
100008a44: c9 61 00 b4 	cbz	x9, 0x10000967c <__ZN5gimli4read4unit15parse_attribute17h0686769df978d94eE+0xeb8>
100008a48: 0c 00 80 d2 	mov	x12, #0
100008a4c: 0a 69 6c 38 	ldrb	w10, [x8, x12]
100008a50: ca 5e 00 34 	cbz	w10, 0x100009628 <__ZN5gimli4read4unit15parse_attribute17h0686769df978d94eE+0xe64>
100008a54: 8c 05 00 91 	add	x12, x12, #1
100008a58: 3f 01 0c eb 	cmp	x9, x12
100008a5c: 81 ff ff 54 	b.ne	0x100008a4c <__ZN5gimli4read4unit15parse_attribute17h0686769df978d94eE+0x288>
100008a60: 07 03 00 14 	b	0x10000967c <__ZN5gimli4read4unit15parse_attribute17h0686769df978d94eE+0xeb8>
100008a64: 0b 00 80 52 	mov	w11, #0
100008a68: 0c 00 80 d2 	mov	x12, #0
100008a6c: a8 2a 40 a9 	ldp	x8, x10, [x21]
100008a70: c9 00 80 52 	mov	w9, #6
100008a74: 06 00 00 14 	b	0x100008a8c <__ZN5gimli4read4unit15parse_attribute17h0686769df978d94eE+0x2c8>
100008a78: ae 19 40 92 	and	x14, x13, #0x7f
100008a7c: ce 21 cb 9a 	lsl	x14, x14, x11
100008a80: cc 01 0c aa 	orr	x12, x14, x12
100008a84: 6b 1d 00 11 	add	w11, w11, #7
100008a88: 4d 5e 38 36 	tbz	w13, #7, 0x100009650 <__ZN5gimli4read4unit15parse_attribute17h0686769df978d94eE+0xe8c>
100008a8c: 8a 5f 00 b4 	cbz	x10, 0x10000967c <__ZN5gimli4read4unit15parse_attribute17h0686769df978d94eE+0xeb8>
100008a90: 0d 15 40 38 	ldrb	w13, [x8], #1
100008a94: 4a 05 00 d1 	sub	x10, x10, #1
100008a98: a8 2a 00 a9 	stp	x8, x10, [x21]
100008a9c: 7f fd 00 71 	cmp	w11, #63
100008aa0: c1 fe ff 54 	b.ne	0x100008a78 <__ZN5gimli4read4unit15parse_attribute17h0686769df978d94eE+0x2b4>
100008aa4: bf 09 00 71 	cmp	w13, #2
100008aa8: 83 fe ff 54 	b.lo	0x100008a78 <__ZN5gimli4read4unit15parse_attribute17h0686769df978d94eE+0x2b4>
100008aac: 91 00 00 14 	b	0x100008cf0 <__ZN5gimli4read4unit15parse_attribute17h0686769df978d94eE+0x52c>
100008ab0: a8 26 40 a9 	ldp	x8, x9, [x21]
100008ab4: 49 5e 00 b4 	cbz	x9, 0x10000967c <__ZN5gimli4read4unit15parse_attribute17h0686769df978d94eE+0xeb8>
100008ab8: 0c 15 40 38 	ldrb	w12, [x8], #1
100008abc: 29 05 00 d1 	sub	x9, x9, #1
100008ac0: a8 26 00 a9 	stp	x8, x9, [x21]
100008ac4: 2a 01 0c eb 	subs	x10, x9, x12
100008ac8: a3 5d 00 54 	b.lo	0x10000967c <__ZN5gimli4read4unit15parse_attribute17h0686769df978d94eE+0xeb8>
100008acc: 0b 01 0c 8b 	add	x11, x8, x12
100008ad0: 09 3d 08 53 	ubfx	w9, w8, #8, #8
100008ad4: 0d 7d 50 d3 	ubfx	x13, x8, #16, #16
100008ad8: ab 2a 00 a9 	stp	x11, x10, [x21]
100008adc: 0a 7d 60 92 	and	x10, x8, #0xffffffff00000000
100008ae0: 2b 00 80 52 	mov	w11, #1
100008ae4: 77 03 00 14 	b	0x1000098c0 <__ZN5gimli4read4unit15parse_attribute17h0686769df978d94eE+0x10fc>
100008ae8: a9 2a 40 a9 	ldp	x9, x10, [x21]
100008aec: 0a 50 00 b4 	cbz	x10, 0x1000094ec <__ZN5gimli4read4unit15parse_attribute17h0686769df978d94eE+0xd28>
100008af0: 28 15 40 38 	ldrb	w8, [x9], #1
100008af4: 4a 05 00 d1 	sub	x10, x10, #1
100008af8: a9 2a 00 a9 	stp	x9, x10, [x21]
100008afc: 6a 09 80 52 	mov	w10, #75
100008b00: 7d 02 00 14 	b	0x1000094f4 <__ZN5gimli4read4unit15parse_attribute17h0686769df978d94eE+0xd30>
100008b04: a8 26 40 a9 	ldp	x8, x9, [x21]
100008b08: 69 50 00 b4 	cbz	x9, 0x100009514 <__ZN5gimli4read4unit15parse_attribute17h0686769df978d94eE+0xd50>
100008b0c: 0b 15 40 38 	ldrb	w11, [x8], #1
100008b10: 29 05 00 d1 	sub	x9, x9, #1
100008b14: a8 26 00 a9 	stp	x8, x9, [x21]
100008b18: 69 09 80 52 	mov	w9, #75
100008b1c: 80 02 00 14 	b	0x10000951c <__ZN5gimli4read4unit15parse_attribute17h0686769df978d94eE+0xd58>
100008b20: e0 23 00 91 	add	x0, sp, #8
100008b24: e1 03 15 aa 	mov	x1, x21
100008b28: 1d 07 00 94 	bl	0x10000a79c <__ZN5gimli4read6reader6Reader12read_sleb12817h97764a337c3ca800E>
100008b2c: e8 23 40 39 	ldrb	w8, [sp, #8]
100008b30: 1f 2d 01 71 	cmp	w8, #75
100008b34: 61 25 00 54 	b.ne	0x100008fe0 <__ZN5gimli4read4unit15parse_attribute17h0686769df978d94eE+0x81c>
100008b38: e8 0b 40 f9 	ldr	x8, [sp, #16]
100008b3c: 97 00 00 14 	b	0x100008d98 <__ZN5gimli4read4unit15parse_attribute17h0686769df978d94eE+0x5d4>
100008b40: 48 3c 08 53 	ubfx	w8, w2, #8, #8
100008b44: 1f 21 00 71 	cmp	w8, #8
100008b48: 41 29 00 54 	b.ne	0x100009070 <__ZN5gimli4read4unit15parse_attribute17h0686769df978d94eE+0x8ac>
100008b4c: a9 22 40 a9 	ldp	x9, x8, [x21]
100008b50: 0a 21 00 f1 	subs	x10, x8, #8
100008b54: 62 5b 00 54 	b.hs	0x1000096c0 <__ZN5gimli4read4unit15parse_attribute17h0686769df978d94eE+0xefc>
100008b58: 08 00 80 d2 	mov	x8, #0
100008b5c: 6a 02 80 52 	mov	w10, #19
100008b60: db 02 00 14 	b	0x1000096cc <__ZN5gimli4read4unit15parse_attribute17h0686769df978d94eE+0xf08>
100008b64: 09 00 80 52 	mov	w9, #0
100008b68: 0c 00 80 d2 	mov	x12, #0
100008b6c: a8 2a 40 a9 	ldp	x8, x10, [x21]
100008b70: 4a 05 00 d1 	sub	x10, x10, #1
100008b74: 07 00 00 14 	b	0x100008b90 <__ZN5gimli4read4unit15parse_attribute17h0686769df978d94eE+0x3cc>
100008b78: 6d 19 40 92 	and	x13, x11, #0x7f
100008b7c: ad 21 c9 9a 	lsl	x13, x13, x9
100008b80: ac 01 0c aa 	orr	x12, x13, x12
100008b84: 29 1d 00 11 	add	w9, w9, #7
100008b88: 4a 05 00 d1 	sub	x10, x10, #1
100008b8c: 8b 56 38 36 	tbz	w11, #7, 0x10000965c <__ZN5gimli4read4unit15parse_attribute17h0686769df978d94eE+0xe98>
100008b90: 5f 05 00 b1 	cmn	x10, #1
100008b94: e0 15 00 54 	b.eq	0x100008e50 <__ZN5gimli4read4unit15parse_attribute17h0686769df978d94eE+0x68c>
100008b98: 0b 15 40 38 	ldrb	w11, [x8], #1
100008b9c: a8 2a 00 a9 	stp	x8, x10, [x21]
100008ba0: 3f fd 00 71 	cmp	w9, #63
100008ba4: a1 fe ff 54 	b.ne	0x100008b78 <__ZN5gimli4read4unit15parse_attribute17h0686769df978d94eE+0x3b4>
100008ba8: 7f 09 00 71 	cmp	w11, #2
100008bac: 63 fe ff 54 	b.lo	0x100008b78 <__ZN5gimli4read4unit15parse_attribute17h0686769df978d94eE+0x3b4>
100008bb0: a6 00 00 14 	b	0x100008e48 <__ZN5gimli4read4unit15parse_attribute17h0686769df978d94eE+0x684>
100008bb4: 48 7c 10 53 	lsr	w8, w2, #16
100008bb8: 1f 09 00 71 	cmp	w8, #2
100008bbc: 61 26 00 54 	b.ne	0x100009088 <__ZN5gimli4read4unit15parse_attribute17h0686769df978d94eE+0x8c4>
100008bc0: e0 23 00 91 	add	x0, sp, #8
100008bc4: e1 03 15 aa 	mov	x1, x21
100008bc8: 81 07 00 94 	bl	0x10000a9cc <__ZN5gimli4read6reader6Reader17read_sized_offset17h815cd98699f0869bE>
100008bcc: 33 01 00 14 	b	0x100009098 <__ZN5gimli4read4unit15parse_attribute17h0686769df978d94eE+0x8d4>
100008bd0: a9 2a 40 a9 	ldp	x9, x10, [x21]
100008bd4: ca 4b 00 b4 	cbz	x10, 0x10000954c <__ZN5gimli4read4unit15parse_attribute17h0686769df978d94eE+0xd88>
100008bd8: 28 15 40 38 	ldrb	w8, [x9], #1
100008bdc: 4a 05 00 d1 	sub	x10, x10, #1
100008be0: a9 2a 00 a9 	stp	x9, x10, [x21]
100008be4: 6a 09 80 52 	mov	w10, #75
100008be8: 5b 02 00 14 	b	0x100009554 <__ZN5gimli4read4unit15parse_attribute17h0686769df978d94eE+0xd90>
100008bec: a9 22 40 a9 	ldp	x9, x8, [x21]
100008bf0: 0a 09 00 f1 	subs	x10, x8, #2
100008bf4: 42 26 00 54 	b.hs	0x1000090bc <__ZN5gimli4read4unit15parse_attribute17h0686769df978d94eE+0x8f8>
100008bf8: 08 00 80 52 	mov	w8, #0
100008bfc: 6a 02 80 52 	mov	w10, #19
100008c00: 32 01 00 14 	b	0x1000090c8 <__ZN5gimli4read4unit15parse_attribute17h0686769df978d94eE+0x904>
100008c04: a9 22 40 a9 	ldp	x9, x8, [x21]
100008c08: 0a 11 00 f1 	subs	x10, x8, #4
100008c0c: e2 26 00 54 	b.hs	0x1000090e8 <__ZN5gimli4read4unit15parse_attribute17h0686769df978d94eE+0x924>
100008c10: 08 00 80 52 	mov	w8, #0
100008c14: 6a 02 80 52 	mov	w10, #19
100008c18: 37 01 00 14 	b	0x1000090f4 <__ZN5gimli4read4unit15parse_attribute17h0686769df978d94eE+0x930>
100008c1c: a9 22 40 a9 	ldp	x9, x8, [x21]
100008c20: 08 21 00 f1 	subs	x8, x8, #8
100008c24: 82 27 00 54 	b.hs	0x100009114 <__ZN5gimli4read4unit15parse_attribute17h0686769df978d94eE+0x950>
100008c28: 0c 00 80 d2 	mov	x12, #0
100008c2c: 68 02 80 52 	mov	w8, #19
100008c30: 3c 01 00 14 	b	0x100009120 <__ZN5gimli4read4unit15parse_attribute17h0686769df978d94eE+0x95c>
100008c34: 09 00 80 52 	mov	w9, #0
100008c38: 0c 00 80 d2 	mov	x12, #0
100008c3c: a8 2a 40 a9 	ldp	x8, x10, [x21]
100008c40: 4a 05 00 d1 	sub	x10, x10, #1
100008c44: 07 00 00 14 	b	0x100008c60 <__ZN5gimli4read4unit15parse_attribute17h0686769df978d94eE+0x49c>
100008c48: 6d 19 40 92 	and	x13, x11, #0x7f
100008c4c: ad 21 c9 9a 	lsl	x13, x13, x9
100008c50: ac 01 0c aa 	orr	x12, x13, x12
100008c54: 29 1d 00 11 	add	w9, w9, #7
100008c58: 4a 05 00 d1 	sub	x10, x10, #1
100008c5c: 8b 26 38 36 	tbz	w11, #7, 0x10000912c <__ZN5gimli4read4unit15parse_attribute17h0686769df978d94eE+0x968>
100008c60: 5f 05 00 b1 	cmn	x10, #1
100008c64: 60 0f 00 54 	b.eq	0x100008e50 <__ZN5gimli4read4unit15parse_attribute17h0686769df978d94eE+0x68c>
100008c68: 0b 15 40 38 	ldrb	w11, [x8], #1
100008c6c: a8 2a 00 a9 	stp	x8, x10, [x21]
100008c70: 3f fd 00 71 	cmp	w9, #63
100008c74: a1 fe ff 54 	b.ne	0x100008c48 <__ZN5gimli4read4unit15parse_attribute17h0686769df978d94eE+0x484>
100008c78: 7f 09 00 71 	cmp	w11, #2
100008c7c: 63 fe ff 54 	b.lo	0x100008c48 <__ZN5gimli4read4unit15parse_attribute17h0686769df978d94eE+0x484>
100008c80: 72 00 00 14 	b	0x100008e48 <__ZN5gimli4read4unit15parse_attribute17h0686769df978d94eE+0x684>
100008c84: 48 3c 08 53 	ubfx	w8, w2, #8, #8
100008c88: 1f 21 00 71 	cmp	w8, #8
100008c8c: c1 25 00 54 	b.ne	0x100009144 <__ZN5gimli4read4unit15parse_attribute17h0686769df978d94eE+0x980>
100008c90: a9 22 40 a9 	ldp	x9, x8, [x21]
100008c94: 0a 21 00 f1 	subs	x10, x8, #8
100008c98: 22 52 00 54 	b.hs	0x1000096dc <__ZN5gimli4read4unit15parse_attribute17h0686769df978d94eE+0xf18>
100008c9c: 08 00 80 d2 	mov	x8, #0
100008ca0: 6a 02 80 52 	mov	w10, #19
100008ca4: 91 02 00 14 	b	0x1000096e8 <__ZN5gimli4read4unit15parse_attribute17h0686769df978d94eE+0xf24>
100008ca8: 0b 00 80 52 	mov	w11, #0
100008cac: 0c 00 80 d2 	mov	x12, #0
100008cb0: a8 2a 40 a9 	ldp	x8, x10, [x21]
100008cb4: c9 00 80 52 	mov	w9, #6
100008cb8: 06 00 00 14 	b	0x100008cd0 <__ZN5gimli4read4unit15parse_attribute17h0686769df978d94eE+0x50c>
100008cbc: ae 19 40 92 	and	x14, x13, #0x7f
100008cc0: ce 21 cb 9a 	lsl	x14, x14, x11
100008cc4: cc 01 0c aa 	orr	x12, x14, x12
100008cc8: 6b 1d 00 11 	add	w11, w11, #7
100008ccc: 4d 4d 38 36 	tbz	w13, #7, 0x100009674 <__ZN5gimli4read4unit15parse_attribute17h0686769df978d94eE+0xeb0>
100008cd0: 6a 4d 00 b4 	cbz	x10, 0x10000967c <__ZN5gimli4read4unit15parse_attribute17h0686769df978d94eE+0xeb8>
100008cd4: 0d 15 40 38 	ldrb	w13, [x8], #1
100008cd8: 4a 05 00 d1 	sub	x10, x10, #1
100008cdc: a8 2a 00 a9 	stp	x8, x10, [x21]
100008ce0: 7f fd 00 71 	cmp	w11, #63
100008ce4: c1 fe ff 54 	b.ne	0x100008cbc <__ZN5gimli4read4unit15parse_attribute17h0686769df978d94eE+0x4f8>
100008ce8: bf 09 00 71 	cmp	w13, #2
100008cec: 83 fe ff 54 	b.lo	0x100008cbc <__ZN5gimli4read4unit15parse_attribute17h0686769df978d94eE+0x4f8>
100008cf0: 64 02 00 14 	b	0x100009680 <__ZN5gimli4read4unit15parse_attribute17h0686769df978d94eE+0xebc>
100008cf4: 09 00 80 52 	mov	w9, #0
100008cf8: 0d 00 80 52 	mov	w13, #0
100008cfc: 0a 00 80 d2 	mov	x10, #0
100008d00: 28 00 80 52 	mov	w8, #1
100008d04: 2b 01 80 52 	mov	w11, #9
100008d08: ee 02 00 14 	b	0x1000098c0 <__ZN5gimli4read4unit15parse_attribute17h0686769df978d94eE+0x10fc>
100008d0c: a9 22 40 a9 	ldp	x9, x8, [x21]
100008d10: 0a 11 00 f1 	subs	x10, x8, #4
100008d14: 42 22 00 54 	b.hs	0x10000915c <__ZN5gimli4read4unit15parse_attribute17h0686769df978d94eE+0x998>
100008d18: 08 00 80 52 	mov	w8, #0
100008d1c: 6a 02 80 52 	mov	w10, #19
100008d20: 12 01 00 14 	b	0x100009168 <__ZN5gimli4read4unit15parse_attribute17h0686769df978d94eE+0x9a4>
100008d24: a8 26 40 a9 	ldp	x8, x9, [x21]
100008d28: 2b 41 00 f1 	subs	x11, x9, #16
100008d2c: 83 4a 00 54 	b.lo	0x10000967c <__ZN5gimli4read4unit15parse_attribute17h0686769df978d94eE+0xeb8>
100008d30: 0c 41 00 91 	add	x12, x8, #16
100008d34: 09 3d 08 53 	ubfx	w9, w8, #8, #8
100008d38: 0d 7d 50 d3 	ubfx	x13, x8, #16, #16
100008d3c: 0a 7d 60 92 	and	x10, x8, #0xffffffff00000000
100008d40: ac 2e 00 a9 	stp	x12, x11, [x21]
100008d44: 2b 00 80 52 	mov	w11, #1
100008d48: 0c 02 80 52 	mov	w12, #16
100008d4c: dd 02 00 14 	b	0x1000098c0 <__ZN5gimli4read4unit15parse_attribute17h0686769df978d94eE+0x10fc>
100008d50: 48 3c 08 53 	ubfx	w8, w2, #8, #8
100008d54: 1f 21 00 71 	cmp	w8, #8
100008d58: 81 21 00 54 	b.ne	0x100009188 <__ZN5gimli4read4unit15parse_attribute17h0686769df978d94eE+0x9c4>
100008d5c: a9 22 40 a9 	ldp	x9, x8, [x21]
100008d60: 0a 21 00 f1 	subs	x10, x8, #8
100008d64: a2 4c 00 54 	b.hs	0x1000096f8 <__ZN5gimli4read4unit15parse_attribute17h0686769df978d94eE+0xf34>
100008d68: 08 00 80 d2 	mov	x8, #0
100008d6c: 6a 02 80 52 	mov	w10, #19
100008d70: 65 02 00 14 	b	0x100009704 <__ZN5gimli4read4unit15parse_attribute17h0686769df978d94eE+0xf40>
100008d74: a9 22 40 a9 	ldp	x9, x8, [x21]
100008d78: 08 21 00 f1 	subs	x8, x8, #8
100008d7c: 22 21 00 54 	b.hs	0x1000091a0 <__ZN5gimli4read4unit15parse_attribute17h0686769df978d94eE+0x9dc>
100008d80: 0c 00 80 d2 	mov	x12, #0
100008d84: 68 02 80 52 	mov	w8, #19
100008d88: 09 01 00 14 	b	0x1000091ac <__ZN5gimli4read4unit15parse_attribute17h0686769df978d94eE+0x9e8>
100008d8c: 3f 85 00 71 	cmp	w9, #33
100008d90: 01 22 00 54 	b.ne	0x1000091d0 <__ZN5gimli4read4unit15parse_attribute17h0686769df978d94eE+0xa0c>
100008d94: 88 02 40 f9 	ldr	x8, [x20]
100008d98: 09 3d 08 53 	ubfx	w9, w8, #8, #8
100008d9c: 0d 7d 50 d3 	ubfx	x13, x8, #16, #16
100008da0: 0a 7d 60 92 	and	x10, x8, #0xffffffff00000000
100008da4: cb 00 80 52 	mov	w11, #6
100008da8: c6 02 00 14 	b	0x1000098c0 <__ZN5gimli4read4unit15parse_attribute17h0686769df978d94eE+0x10fc>
100008dac: 09 00 80 52 	mov	w9, #0
100008db0: 0c 00 80 d2 	mov	x12, #0
100008db4: a8 2a 40 a9 	ldp	x8, x10, [x21]
100008db8: 4a 05 00 d1 	sub	x10, x10, #1
100008dbc: 07 00 00 14 	b	0x100008dd8 <__ZN5gimli4read4unit15parse_attribute17h0686769df978d94eE+0x614>
100008dc0: 6d 19 40 92 	and	x13, x11, #0x7f
100008dc4: ad 21 c9 9a 	lsl	x13, x13, x9
100008dc8: ac 01 0c aa 	orr	x12, x13, x12
100008dcc: 29 1d 00 11 	add	w9, w9, #7
100008dd0: 4a 05 00 d1 	sub	x10, x10, #1
100008dd4: eb 45 38 36 	tbz	w11, #7, 0x100009690 <__ZN5gimli4read4unit15parse_attribute17h0686769df978d94eE+0xecc>
100008dd8: 5f 05 00 b1 	cmn	x10, #1
100008ddc: a0 03 00 54 	b.eq	0x100008e50 <__ZN5gimli4read4unit15parse_attribute17h0686769df978d94eE+0x68c>
100008de0: 0b 15 40 38 	ldrb	w11, [x8], #1
100008de4: a8 2a 00 a9 	stp	x8, x10, [x21]
100008de8: 3f fd 00 71 	cmp	w9, #63
100008dec: a1 fe ff 54 	b.ne	0x100008dc0 <__ZN5gimli4read4unit15parse_attribute17h0686769df978d94eE+0x5fc>
100008df0: 7f 09 00 71 	cmp	w11, #2
100008df4: 63 fe ff 54 	b.lo	0x100008dc0 <__ZN5gimli4read4unit15parse_attribute17h0686769df978d94eE+0x5fc>
100008df8: 14 00 00 14 	b	0x100008e48 <__ZN5gimli4read4unit15parse_attribute17h0686769df978d94eE+0x684>
100008dfc: 09 00 80 52 	mov	w9, #0
100008e00: 0c 00 80 d2 	mov	x12, #0
100008e04: a8 2a 40 a9 	ldp	x8, x10, [x21]
100008e08: 4a 05 00 d1 	sub	x10, x10, #1
100008e0c: 07 00 00 14 	b	0x100008e28 <__ZN5gimli4read4unit15parse_attribute17h0686769df978d94eE+0x664>
100008e10: 6d 19 40 92 	and	x13, x11, #0x7f
100008e14: ad 21 c9 9a 	lsl	x13, x13, x9
100008e18: ac 01 0c aa 	orr	x12, x13, x12
100008e1c: 29 1d 00 11 	add	w9, w9, #7
100008e20: 4a 05 00 d1 	sub	x10, x10, #1
100008e24: 2b 44 38 36 	tbz	w11, #7, 0x1000096a8 <__ZN5gimli4read4unit15parse_attribute17h0686769df978d94eE+0xee4>
100008e28: 5f 05 00 b1 	cmn	x10, #1
100008e2c: 20 01 00 54 	b.eq	0x100008e50 <__ZN5gimli4read4unit15parse_attribute17h0686769df978d94eE+0x68c>
100008e30: 0b 15 40 38 	ldrb	w11, [x8], #1
100008e34: a8 2a 00 a9 	stp	x8, x10, [x21]
100008e38: 3f fd 00 71 	cmp	w9, #63
100008e3c: a1 fe ff 54 	b.ne	0x100008e10 <__ZN5gimli4read4unit15parse_attribute17h0686769df978d94eE+0x64c>
100008e40: 7f 09 00 71 	cmp	w11, #2
100008e44: 63 fe ff 54 	b.lo	0x100008e10 <__ZN5gimli4read4unit15parse_attribute17h0686769df978d94eE+0x64c>
100008e48: c9 00 80 52 	mov	w9, #6
100008e4c: 02 00 00 14 	b	0x100008e54 <__ZN5gimli4read4unit15parse_attribute17h0686769df978d94eE+0x690>
100008e50: 69 02 80 52 	mov	w9, #19
100008e54: 69 22 00 39 	strb	w9, [x19, #8]
100008e58: 7f 26 00 39 	strb	wzr, [x19, #9]
100008e5c: 7f 1e 00 79 	strh	wzr, [x19, #14]
100008e60: 7f a2 00 b8 	stur	wzr, [x19, #10]
100008e64: 68 0a 00 f9 	str	x8, [x19, #16]
100008e68: c8 05 80 52 	mov	w8, #46
100008e6c: 68 02 00 f9 	str	x8, [x19]
100008e70: 9b 02 00 14 	b	0x1000098dc <__ZN5gimli4read4unit15parse_attribute17h0686769df978d94eE+0x1118>
100008e74: a9 22 40 a9 	ldp	x9, x8, [x21]
100008e78: 08 21 00 f1 	subs	x8, x8, #8
100008e7c: 42 1b 00 54 	b.hs	0x1000091e4 <__ZN5gimli4read4unit15parse_attribute17h0686769df978d94eE+0xa20>
100008e80: 0c 00 80 d2 	mov	x12, #0
100008e84: 68 02 80 52 	mov	w8, #19
100008e88: da 00 00 14 	b	0x1000091f0 <__ZN5gimli4read4unit15parse_attribute17h0686769df978d94eE+0xa2c>
100008e8c: a9 2a 40 a9 	ldp	x9, x10, [x21]
100008e90: 2a 37 00 b4 	cbz	x10, 0x100009574 <__ZN5gimli4read4unit15parse_attribute17h0686769df978d94eE+0xdb0>
100008e94: 28 15 40 38 	ldrb	w8, [x9], #1
100008e98: 4a 05 00 d1 	sub	x10, x10, #1
100008e9c: a9 2a 00 a9 	stp	x9, x10, [x21]
100008ea0: 6a 09 80 52 	mov	w10, #75
100008ea4: b6 01 00 14 	b	0x10000957c <__ZN5gimli4read4unit15parse_attribute17h0686769df978d94eE+0xdb8>
100008ea8: a9 22 40 a9 	ldp	x9, x8, [x21]
100008eac: 0a 09 00 f1 	subs	x10, x8, #2
100008eb0: a2 1d 00 54 	b.hs	0x100009264 <__ZN5gimli4read4unit15parse_attribute17h0686769df978d94eE+0xaa0>
100008eb4: 08 00 80 52 	mov	w8, #0
100008eb8: 6a 02 80 52 	mov	w10, #19
100008ebc: ed 00 00 14 	b	0x100009270 <__ZN5gimli4read4unit15parse_attribute17h0686769df978d94eE+0xaac>
100008ec0: a9 22 40 a9 	ldp	x9, x8, [x21]
100008ec4: 08 0d 00 f1 	subs	x8, x8, #3
100008ec8: 42 1e 00 54 	b.hs	0x100009290 <__ZN5gimli4read4unit15parse_attribute17h0686769df978d94eE+0xacc>
100008ecc: 08 00 80 d2 	mov	x8, #0
100008ed0: 6a 02 80 52 	mov	w10, #19
100008ed4: f5 00 00 14 	b	0x1000092a8 <__ZN5gimli4read4unit15parse_attribute17h0686769df978d94eE+0xae4>
100008ed8: a9 22 40 a9 	ldp	x9, x8, [x21]
100008edc: 0a 11 00 f1 	subs	x10, x8, #4
100008ee0: 42 1f 00 54 	b.hs	0x1000092c8 <__ZN5gimli4read4unit15parse_attribute17h0686769df978d94eE+0xb04>
100008ee4: 08 00 80 52 	mov	w8, #0
100008ee8: 6a 02 80 52 	mov	w10, #19
100008eec: fa 00 00 14 	b	0x1000092d4 <__ZN5gimli4read4unit15parse_attribute17h0686769df978d94eE+0xb10>
100008ef0: a9 2a 40 a9 	ldp	x9, x10, [x21]
100008ef4: 4a 35 00 b4 	cbz	x10, 0x10000959c <__ZN5gimli4read4unit15parse_attribute17h0686769df978d94eE+0xdd8>
100008ef8: 28 15 40 38 	ldrb	w8, [x9], #1
100008efc: 4a 05 00 d1 	sub	x10, x10, #1
100008f00: a9 2a 00 a9 	stp	x9, x10, [x21]
100008f04: 6a 09 80 52 	mov	w10, #75
100008f08: a7 01 00 14 	b	0x1000095a4 <__ZN5gimli4read4unit15parse_attribute17h0686769df978d94eE+0xde0>
100008f0c: a9 22 40 a9 	ldp	x9, x8, [x21]
100008f10: 0a 09 00 f1 	subs	x10, x8, #2
100008f14: 02 1f 00 54 	b.hs	0x1000092f4 <__ZN5gimli4read4unit15parse_attribute17h0686769df978d94eE+0xb30>
100008f18: 08 00 80 52 	mov	w8, #0
100008f1c: 6a 02 80 52 	mov	w10, #19
100008f20: f8 00 00 14 	b	0x100009300 <__ZN5gimli4read4unit15parse_attribute17h0686769df978d94eE+0xb3c>
100008f24: a9 22 40 a9 	ldp	x9, x8, [x21]
100008f28: 08 0d 00 f1 	subs	x8, x8, #3
100008f2c: 62 20 00 54 	b.hs	0x100009338 <__ZN5gimli4read4unit15parse_attribute17h0686769df978d94eE+0xb74>
100008f30: 08 00 80 d2 	mov	x8, #0
100008f34: 6a 02 80 52 	mov	w10, #19
100008f38: 06 01 00 14 	b	0x100009350 <__ZN5gimli4read4unit15parse_attribute17h0686769df978d94eE+0xb8c>
100008f3c: a9 22 40 a9 	ldp	x9, x8, [x21]
100008f40: 0a 11 00 f1 	subs	x10, x8, #4
100008f44: 02 22 00 54 	b.hs	0x100009384 <__ZN5gimli4read4unit15parse_attribute17h0686769df978d94eE+0xbc0>
100008f48: 08 00 80 52 	mov	w8, #0
100008f4c: 6a 02 80 52 	mov	w10, #19
100008f50: 10 01 00 14 	b	0x100009390 <__ZN5gimli4read4unit15parse_attribute17h0686769df978d94eE+0xbcc>
100008f54: 48 3c 08 53 	ubfx	w8, w2, #8, #8
100008f58: 1f 21 00 71 	cmp	w8, #8
100008f5c: 21 24 00 54 	b.ne	0x1000093e0 <__ZN5gimli4read4unit15parse_attribute17h0686769df978d94eE+0xc1c>
100008f60: a9 22 40 a9 	ldp	x9, x8, [x21]
100008f64: 0a 21 00 f1 	subs	x10, x8, #8
100008f68: 62 3d 00 54 	b.hs	0x100009714 <__ZN5gimli4read4unit15parse_attribute17h0686769df978d94eE+0xf50>
100008f6c: 08 00 80 d2 	mov	x8, #0
100008f70: 6a 02 80 52 	mov	w10, #19
100008f74: eb 01 00 14 	b	0x100009720 <__ZN5gimli4read4unit15parse_attribute17h0686769df978d94eE+0xf5c>
100008f78: a9 22 40 a9 	ldp	x9, x8, [x21]
100008f7c: 0a 11 00 f1 	subs	x10, x8, #4
100008f80: c2 23 00 54 	b.hs	0x1000093f8 <__ZN5gimli4read4unit15parse_attribute17h0686769df978d94eE+0xc34>
100008f84: 08 00 80 d2 	mov	x8, #0
100008f88: 6a 02 80 52 	mov	w10, #19
100008f8c: 1e 01 00 14 	b	0x100009404 <__ZN5gimli4read4unit15parse_attribute17h0686769df978d94eE+0xc40>
100008f90: 08 00 80 52 	mov	w8, #0
100008f94: 69 02 80 52 	mov	w9, #19
100008f98: 4d 01 00 14 	b	0x1000094cc <__ZN5gimli4read4unit15parse_attribute17h0686769df978d94eE+0xd08>
100008f9c: 88 01 80 52 	mov	w8, #12
100008fa0: 8d 00 00 14 	b	0x1000091d4 <__ZN5gimli4read4unit15parse_attribute17h0686769df978d94eE+0xa10>
100008fa4: a8 26 40 a9 	ldp	x8, x9, [x21]
100008fa8: 29 11 00 f1 	subs	x9, x9, #4
100008fac: 62 31 00 54 	b.hs	0x1000095d8 <__ZN5gimli4read4unit15parse_attribute17h0686769df978d94eE+0xe14>
100008fb0: 0c 00 80 52 	mov	w12, #0
100008fb4: 69 02 80 52 	mov	w9, #19
100008fb8: 8b 01 00 14 	b	0x1000095e4 <__ZN5gimli4read4unit15parse_attribute17h0686769df978d94eE+0xe20>
100008fbc: e0 23 00 91 	add	x0, sp, #8
100008fc0: e1 03 15 aa 	mov	x1, x21
100008fc4: f6 06 00 94 	bl	0x10000ab9c <__ZN5gimli4read6reader6Reader8read_u6417h43c83d6ff2ae4135E>
100008fc8: e8 23 40 39 	ldrb	w8, [sp, #8]
100008fcc: 1f 2d 01 71 	cmp	w8, #75
100008fd0: 81 00 00 54 	b.ne	0x100008fe0 <__ZN5gimli4read4unit15parse_attribute17h0686769df978d94eE+0x81c>
100008fd4: e8 0b 40 f9 	ldr	x8, [sp, #16]
100008fd8: ab 00 80 52 	mov	w11, #5
100008fdc: 36 02 00 14 	b	0x1000098b4 <__ZN5gimli4read4unit15parse_attribute17h0686769df978d94eE+0x10f0>
100008fe0: e9 0b 40 f9 	ldr	x9, [sp, #16]
100008fe4: ea 93 40 b8 	ldur	w10, [sp, #9]
100008fe8: ea 23 00 b9 	str	w10, [sp, #32]
100008fec: ea 0f 40 b9 	ldr	w10, [sp, #12]
100008ff0: ea 33 02 b8 	stur	w10, [sp, #35]
100008ff4: 19 01 00 14 	b	0x100009458 <__ZN5gimli4read4unit15parse_attribute17h0686769df978d94eE+0xc94>
100008ff8: 89 3d 08 53 	ubfx	w9, w12, #8, #8
100008ffc: 8d 7d 50 d3 	ubfx	x13, x12, #16, #16
100009000: 8a 7d 60 92 	and	x10, x12, #0xffffffff00000000
100009004: 8b 01 80 52 	mov	w11, #12
100009008: e8 03 0c aa 	mov	x8, x12
10000900c: 2d 02 00 14 	b	0x1000098c0 <__ZN5gimli4read4unit15parse_attribute17h0686769df978d94eE+0x10fc>
100009010: 89 3d 08 53 	ubfx	w9, w12, #8, #8
100009014: 8d 7d 50 d3 	ubfx	x13, x12, #16, #16
100009018: 8a 7d 60 92 	and	x10, x12, #0xffffffff00000000
10000901c: ab 03 80 52 	mov	w11, #29
100009020: e8 03 0c aa 	mov	x8, x12
100009024: 27 02 00 14 	b	0x1000098c0 <__ZN5gimli4read4unit15parse_attribute17h0686769df978d94eE+0x10fc>
100009028: 28 85 40 f8 	ldr	x8, [x9], #8
10000902c: a9 2a 00 a9 	stp	x9, x10, [x21]
100009030: 6a 09 80 52 	mov	w10, #75
100009034: 4a 1d 00 12 	and	w10, w10, #0xff
100009038: 5f 2d 01 71 	cmp	w10, #75
10000903c: a0 1e 00 54 	b.eq	0x100009410 <__ZN5gimli4read4unit15parse_attribute17h0686769df978d94eE+0xc4c>
100009040: bb 01 00 14 	b	0x10000972c <__ZN5gimli4read4unit15parse_attribute17h0686769df978d94eE+0xf68>
100009044: 28 25 40 78 	ldrh	w8, [x9], #2
100009048: a9 2a 00 a9 	stp	x9, x10, [x21]
10000904c: 6a 09 80 52 	mov	w10, #75
100009050: 4b 1d 00 12 	and	w11, w10, #0xff
100009054: 7f 2d 01 71 	cmp	w11, #75
100009058: 61 1e 00 54 	b.ne	0x100009424 <__ZN5gimli4read4unit15parse_attribute17h0686769df978d94eE+0xc60>
10000905c: 0d 00 80 52 	mov	w13, #0
100009060: 0a 00 80 d2 	mov	x10, #0
100009064: 09 7d 08 53 	lsr	w9, w8, #8
100009068: 6b 00 80 52 	mov	w11, #3
10000906c: 15 02 00 14 	b	0x1000098c0 <__ZN5gimli4read4unit15parse_attribute17h0686769df978d94eE+0x10fc>
100009070: a9 22 40 a9 	ldp	x9, x8, [x21]
100009074: 0a 11 00 f1 	subs	x10, x8, #4
100009078: 22 37 00 54 	b.hs	0x10000975c <__ZN5gimli4read4unit15parse_attribute17h0686769df978d94eE+0xf98>
10000907c: 08 00 80 d2 	mov	x8, #0
100009080: 6a 02 80 52 	mov	w10, #19
100009084: b9 01 00 14 	b	0x100009768 <__ZN5gimli4read4unit15parse_attribute17h0686769df978d94eE+0xfa4>
100009088: 42 7c 08 53 	lsr	w2, w2, #8
10000908c: e0 23 00 91 	add	x0, sp, #8
100009090: e1 03 15 aa 	mov	x1, x21
100009094: 12 05 00 94 	bl	0x10000a4dc <__ZN5gimli4read6reader6Reader11read_offset17h056e1ae4b5d0d82bE>
100009098: e8 23 40 39 	ldrb	w8, [sp, #8]
10000909c: 1f 2d 01 71 	cmp	w8, #75
1000090a0: 21 1d 00 54 	b.ne	0x100009444 <__ZN5gimli4read4unit15parse_attribute17h0686769df978d94eE+0xc80>
1000090a4: e8 0b 40 f9 	ldr	x8, [sp, #16]
1000090a8: 09 3d 08 53 	ubfx	w9, w8, #8, #8
1000090ac: 0d 7d 50 d3 	ubfx	x13, x8, #16, #16
1000090b0: 0a 7d 60 92 	and	x10, x8, #0xffffffff00000000
1000090b4: cb 01 80 52 	mov	w11, #14
1000090b8: 02 02 00 14 	b	0x1000098c0 <__ZN5gimli4read4unit15parse_attribute17h0686769df978d94eE+0x10fc>
1000090bc: 28 25 40 78 	ldrh	w8, [x9], #2
1000090c0: a9 2a 00 a9 	stp	x9, x10, [x21]
1000090c4: 6a 09 80 52 	mov	w10, #75
1000090c8: 4b 1d 00 12 	and	w11, w10, #0xff
1000090cc: 7f 2d 01 71 	cmp	w11, #75
1000090d0: 81 12 00 54 	b.ne	0x100009320 <__ZN5gimli4read4unit15parse_attribute17h0686769df978d94eE+0xb5c>
1000090d4: 0d 00 80 52 	mov	w13, #0
1000090d8: 0a 00 80 d2 	mov	x10, #0
1000090dc: 09 7d 08 53 	lsr	w9, w8, #8
1000090e0: ab 01 80 52 	mov	w11, #13
1000090e4: f7 01 00 14 	b	0x1000098c0 <__ZN5gimli4read4unit15parse_attribute17h0686769df978d94eE+0x10fc>
1000090e8: 28 45 40 b8 	ldr	w8, [x9], #4
1000090ec: a9 2a 00 a9 	stp	x9, x10, [x21]
1000090f0: 6a 09 80 52 	mov	w10, #75
1000090f4: 4b 1d 00 12 	and	w11, w10, #0xff
1000090f8: 7f 2d 01 71 	cmp	w11, #75
1000090fc: a1 15 00 54 	b.ne	0x1000093b0 <__ZN5gimli4read4unit15parse_attribute17h0686769df978d94eE+0xbec>
100009100: 0a 00 80 d2 	mov	x10, #0
100009104: 09 3d 08 53 	ubfx	w9, w8, #8, #8
100009108: 0d 7d 10 53 	lsr	w13, w8, #16
10000910c: ab 01 80 52 	mov	w11, #13
100009110: ec 01 00 14 	b	0x1000098c0 <__ZN5gimli4read4unit15parse_attribute17h0686769df978d94eE+0x10fc>
100009114: 2c 85 40 f8 	ldr	x12, [x9], #8
100009118: a9 22 00 a9 	stp	x9, x8, [x21]
10000911c: 68 09 80 52 	mov	w8, #75
100009120: 0a 1d 00 12 	and	w10, w8, #0xff
100009124: 5f 2d 01 71 	cmp	w10, #75
100009128: 61 07 00 54 	b.ne	0x100009214 <__ZN5gimli4read4unit15parse_attribute17h0686769df978d94eE+0xa50>
10000912c: 89 3d 08 53 	ubfx	w9, w12, #8, #8
100009130: 8d 7d 50 d3 	ubfx	x13, x12, #16, #16
100009134: 8a 7d 60 92 	and	x10, x12, #0xffffffff00000000
100009138: ab 01 80 52 	mov	w11, #13
10000913c: e8 03 0c aa 	mov	x8, x12
100009140: e0 01 00 14 	b	0x1000098c0 <__ZN5gimli4read4unit15parse_attribute17h0686769df978d94eE+0x10fc>
100009144: a9 22 40 a9 	ldp	x9, x8, [x21]
100009148: 0a 11 00 f1 	subs	x10, x8, #4
10000914c: e2 31 00 54 	b.hs	0x100009788 <__ZN5gimli4read4unit15parse_attribute17h0686769df978d94eE+0xfc4>
100009150: 08 00 80 d2 	mov	x8, #0
100009154: 6a 02 80 52 	mov	w10, #19
100009158: 8f 01 00 14 	b	0x100009794 <__ZN5gimli4read4unit15parse_attribute17h0686769df978d94eE+0xfd0>
10000915c: 28 45 40 b8 	ldr	w8, [x9], #4
100009160: a9 2a 00 a9 	stp	x9, x10, [x21]
100009164: 6a 09 80 52 	mov	w10, #75
100009168: 4b 1d 00 12 	and	w11, w10, #0xff
10000916c: 7f 2d 01 71 	cmp	w11, #75
100009170: 01 12 00 54 	b.ne	0x1000093b0 <__ZN5gimli4read4unit15parse_attribute17h0686769df978d94eE+0xbec>
100009174: 0a 00 80 d2 	mov	x10, #0
100009178: 09 3d 08 53 	ubfx	w9, w8, #8, #8
10000917c: 0d 7d 10 53 	lsr	w13, w8, #16
100009180: eb 01 80 52 	mov	w11, #15
100009184: cf 01 00 14 	b	0x1000098c0 <__ZN5gimli4read4unit15parse_attribute17h0686769df978d94eE+0x10fc>
100009188: a9 22 40 a9 	ldp	x9, x8, [x21]
10000918c: 0a 11 00 f1 	subs	x10, x8, #4
100009190: 22 31 00 54 	b.hs	0x1000097b4 <__ZN5gimli4read4unit15parse_attribute17h0686769df978d94eE+0xff0>
100009194: 08 00 80 d2 	mov	x8, #0
100009198: 6a 02 80 52 	mov	w10, #19
10000919c: 89 01 00 14 	b	0x1000097c0 <__ZN5gimli4read4unit15parse_attribute17h0686769df978d94eE+0xffc>
1000091a0: 2c 85 40 f8 	ldr	x12, [x9], #8
1000091a4: a9 22 00 a9 	stp	x9, x8, [x21]
1000091a8: 68 09 80 52 	mov	w8, #75
1000091ac: 0a 1d 00 12 	and	w10, w8, #0xff
1000091b0: 5f 2d 01 71 	cmp	w10, #75
1000091b4: e1 15 00 54 	b.ne	0x100009470 <__ZN5gimli4read4unit15parse_attribute17h0686769df978d94eE+0xcac>
1000091b8: 89 3d 08 53 	ubfx	w9, w12, #8, #8
1000091bc: 8d 7d 50 d3 	ubfx	x13, x12, #16, #16
1000091c0: 8a 7d 60 92 	and	x10, x12, #0xffffffff00000000
1000091c4: 2b 03 80 52 	mov	w11, #25
1000091c8: e8 03 0c aa 	mov	x8, x12
1000091cc: bd 01 00 14 	b	0x1000098c0 <__ZN5gimli4read4unit15parse_attribute17h0686769df978d94eE+0x10fc>
1000091d0: c8 08 80 52 	mov	w8, #70
1000091d4: 68 22 00 39 	strb	w8, [x19, #8]
1000091d8: c8 05 80 52 	mov	w8, #46
1000091dc: 68 02 00 f9 	str	x8, [x19]
1000091e0: bf 01 00 14 	b	0x1000098dc <__ZN5gimli4read4unit15parse_attribute17h0686769df978d94eE+0x1118>
1000091e4: 2c 85 40 f8 	ldr	x12, [x9], #8
1000091e8: a9 22 00 a9 	stp	x9, x8, [x21]
1000091ec: 68 09 80 52 	mov	w8, #75
1000091f0: 0a 1d 00 12 	and	w10, w8, #0xff
1000091f4: 5f 2d 01 71 	cmp	w10, #75
1000091f8: e1 00 00 54 	b.ne	0x100009214 <__ZN5gimli4read4unit15parse_attribute17h0686769df978d94eE+0xa50>
1000091fc: 89 3d 08 53 	ubfx	w9, w12, #8, #8
100009200: 8d 7d 50 d3 	ubfx	x13, x12, #16, #16
100009204: 8a 7d 60 92 	and	x10, x12, #0xffffffff00000000
100009208: eb 01 80 52 	mov	w11, #15
10000920c: e8 03 0c aa 	mov	x8, x12
100009210: ac 01 00 14 	b	0x1000098c0 <__ZN5gimli4read4unit15parse_attribute17h0686769df978d94eE+0x10fc>
100009214: ff 3b 00 39 	strb	wzr, [sp, #14]
100009218: ff 1b 00 79 	strh	wzr, [sp, #12]
10000921c: ff 0b 00 b9 	str	wzr, [sp, #8]
100009220: e9 f3 00 f8 	stur	x9, [sp, #15]
100009224: e9 07 40 f9 	ldr	x9, [sp, #8]
100009228: ea 13 40 b9 	ldr	w10, [sp, #16]
10000922c: ea 2b 00 b9 	str	w10, [sp, #40]
100009230: ea 33 41 b8 	ldur	w10, [sp, #19]
100009234: ea b3 02 b8 	stur	w10, [sp, #43]
100009238: e9 13 00 f9 	str	x9, [sp, #32]
10000923c: e9 1b 00 b9 	str	w9, [sp, #24]
100009240: e9 33 42 b8 	ldur	w9, [sp, #35]
100009244: e9 b3 01 b8 	stur	w9, [sp, #27]
100009248: e9 73 42 f8 	ldur	x9, [sp, #39]
10000924c: ea 1b 40 b9 	ldr	w10, [sp, #24]
100009250: 6a 92 00 b8 	stur	w10, [x19, #9]
100009254: ea b3 41 b8 	ldur	w10, [sp, #27]
100009258: 6a 0e 00 b9 	str	w10, [x19, #12]
10000925c: 68 22 00 39 	strb	w8, [x19, #8]
100009260: 77 01 00 14 	b	0x10000983c <__ZN5gimli4read4unit15parse_attribute17h0686769df978d94eE+0x1078>
100009264: 28 25 40 78 	ldrh	w8, [x9], #2
100009268: a9 2a 00 a9 	stp	x9, x10, [x21]
10000926c: 6a 09 80 52 	mov	w10, #75
100009270: 4b 1d 00 12 	and	w11, w10, #0xff
100009274: 7f 2d 01 71 	cmp	w11, #75
100009278: 41 05 00 54 	b.ne	0x100009320 <__ZN5gimli4read4unit15parse_attribute17h0686769df978d94eE+0xb5c>
10000927c: 0d 00 80 52 	mov	w13, #0
100009280: 0a 00 80 d2 	mov	x10, #0
100009284: 09 7d 08 53 	lsr	w9, w8, #8
100009288: ab 03 80 52 	mov	w11, #29
10000928c: 8d 01 00 14 	b	0x1000098c0 <__ZN5gimli4read4unit15parse_attribute17h0686769df978d94eE+0x10fc>
100009290: 2a 0d 00 91 	add	x10, x9, #3
100009294: aa 22 00 a9 	stp	x10, x8, [x21]
100009298: 2a 09 40 39 	ldrb	w10, [x9, #2]
10000929c: 28 01 40 79 	ldrh	w8, [x9]
1000092a0: 48 1d 70 b3 	bfi	x8, x10, #16, #8
1000092a4: 6a 09 80 52 	mov	w10, #75
1000092a8: 4b 1d 00 12 	and	w11, w10, #0xff
1000092ac: 7f 2d 01 71 	cmp	w11, #75
1000092b0: 01 06 00 54 	b.ne	0x100009370 <__ZN5gimli4read4unit15parse_attribute17h0686769df978d94eE+0xbac>
1000092b4: 0a 00 80 d2 	mov	x10, #0
1000092b8: 09 3d 08 53 	ubfx	w9, w8, #8, #8
1000092bc: 0d 7d 50 d3 	ubfx	x13, x8, #16, #16
1000092c0: ab 03 80 52 	mov	w11, #29
1000092c4: 7f 01 00 14 	b	0x1000098c0 <__ZN5gimli4read4unit15parse_attribute17h0686769df978d94eE+0x10fc>
1000092c8: 28 45 40 b8 	ldr	w8, [x9], #4
1000092cc: a9 2a 00 a9 	stp	x9, x10, [x21]
1000092d0: 6a 09 80 52 	mov	w10, #75
1000092d4: 4b 1d 00 12 	and	w11, w10, #0xff
1000092d8: 7f 2d 01 71 	cmp	w11, #75
1000092dc: a1 06 00 54 	b.ne	0x1000093b0 <__ZN5gimli4read4unit15parse_attribute17h0686769df978d94eE+0xbec>
1000092e0: 0a 00 80 d2 	mov	x10, #0
1000092e4: 09 3d 08 53 	ubfx	w9, w8, #8, #8
1000092e8: 0d 7d 10 53 	lsr	w13, w8, #16
1000092ec: ab 03 80 52 	mov	w11, #29
1000092f0: 74 01 00 14 	b	0x1000098c0 <__ZN5gimli4read4unit15parse_attribute17h0686769df978d94eE+0x10fc>
1000092f4: 28 25 40 78 	ldrh	w8, [x9], #2
1000092f8: a9 2a 00 a9 	stp	x9, x10, [x21]
1000092fc: 6a 09 80 52 	mov	w10, #75
100009300: 4b 1d 00 12 	and	w11, w10, #0xff
100009304: 7f 2d 01 71 	cmp	w11, #75
100009308: c1 00 00 54 	b.ne	0x100009320 <__ZN5gimli4read4unit15parse_attribute17h0686769df978d94eE+0xb5c>
10000930c: 0d 00 80 52 	mov	w13, #0
100009310: 0a 00 80 d2 	mov	x10, #0
100009314: 09 7d 08 53 	lsr	w9, w8, #8
100009318: 8b 01 80 52 	mov	w11, #12
10000931c: 69 01 00 14 	b	0x1000098c0 <__ZN5gimli4read4unit15parse_attribute17h0686769df978d94eE+0x10fc>
100009320: ff 13 00 79 	strh	wzr, [sp, #8]
100009324: ff a3 00 b8 	stur	wzr, [sp, #10]
100009328: ff 3b 00 39 	strb	wzr, [sp, #14]
10000932c: e8 0b 40 b9 	ldr	w8, [sp, #8]
100009330: e8 23 00 b9 	str	w8, [sp, #32]
100009334: 23 00 00 14 	b	0x1000093c0 <__ZN5gimli4read4unit15parse_attribute17h0686769df978d94eE+0xbfc>
100009338: 2a 0d 00 91 	add	x10, x9, #3
10000933c: aa 22 00 a9 	stp	x10, x8, [x21]
100009340: 2a 09 40 39 	ldrb	w10, [x9, #2]
100009344: 28 01 40 79 	ldrh	w8, [x9]
100009348: 48 1d 70 b3 	bfi	x8, x10, #16, #8
10000934c: 6a 09 80 52 	mov	w10, #75
100009350: 4b 1d 00 12 	and	w11, w10, #0xff
100009354: 7f 2d 01 71 	cmp	w11, #75
100009358: c1 00 00 54 	b.ne	0x100009370 <__ZN5gimli4read4unit15parse_attribute17h0686769df978d94eE+0xbac>
10000935c: 0a 00 80 d2 	mov	x10, #0
100009360: 09 3d 08 53 	ubfx	w9, w8, #8, #8
100009364: 0d 7d 50 d3 	ubfx	x13, x8, #16, #16
100009368: 8b 01 80 52 	mov	w11, #12
10000936c: 55 01 00 14 	b	0x1000098c0 <__ZN5gimli4read4unit15parse_attribute17h0686769df978d94eE+0x10fc>
100009370: 6a 22 00 39 	strb	w10, [x19, #8]
100009374: 7f 3e 00 39 	strb	wzr, [x19, #15]
100009378: 7f d2 00 78 	sturh	wzr, [x19, #13]
10000937c: 7f 92 00 b8 	stur	wzr, [x19, #9]
100009380: 2f 01 00 14 	b	0x10000983c <__ZN5gimli4read4unit15parse_attribute17h0686769df978d94eE+0x1078>
100009384: 28 45 40 b8 	ldr	w8, [x9], #4
100009388: a9 2a 00 a9 	stp	x9, x10, [x21]
10000938c: 6a 09 80 52 	mov	w10, #75
100009390: 4b 1d 00 12 	and	w11, w10, #0xff
100009394: 7f 2d 01 71 	cmp	w11, #75
100009398: c1 00 00 54 	b.ne	0x1000093b0 <__ZN5gimli4read4unit15parse_attribute17h0686769df978d94eE+0xbec>
10000939c: 0a 00 80 d2 	mov	x10, #0
1000093a0: 09 3d 08 53 	ubfx	w9, w8, #8, #8
1000093a4: 0d 7d 10 53 	lsr	w13, w8, #16
1000093a8: 8b 01 80 52 	mov	w11, #12
1000093ac: 45 01 00 14 	b	0x1000098c0 <__ZN5gimli4read4unit15parse_attribute17h0686769df978d94eE+0x10fc>
1000093b0: ff 0b 00 b9 	str	wzr, [sp, #8]
1000093b4: ff 3b 00 39 	strb	wzr, [sp, #14]
1000093b8: ff 1b 00 79 	strh	wzr, [sp, #12]
1000093bc: ff 23 00 b9 	str	wzr, [sp, #32]
1000093c0: e8 b3 40 b8 	ldur	w8, [sp, #11]
1000093c4: e8 33 02 b8 	stur	w8, [sp, #35]
1000093c8: e8 23 40 b9 	ldr	w8, [sp, #32]
1000093cc: 68 92 00 b8 	stur	w8, [x19, #9]
1000093d0: e8 33 42 b8 	ldur	w8, [sp, #35]
1000093d4: 68 0e 00 b9 	str	w8, [x19, #12]
1000093d8: 6a 22 00 39 	strb	w10, [x19, #8]
1000093dc: 18 01 00 14 	b	0x10000983c <__ZN5gimli4read4unit15parse_attribute17h0686769df978d94eE+0x1078>
1000093e0: a9 22 40 a9 	ldp	x9, x8, [x21]
1000093e4: 0a 11 00 f1 	subs	x10, x8, #4
1000093e8: c2 1f 00 54 	b.hs	0x1000097e0 <__ZN5gimli4read4unit15parse_attribute17h0686769df978d94eE+0x101c>
1000093ec: 08 00 80 d2 	mov	x8, #0
1000093f0: 6a 02 80 52 	mov	w10, #19
1000093f4: fe 00 00 14 	b	0x1000097ec <__ZN5gimli4read4unit15parse_attribute17h0686769df978d94eE+0x1028>
1000093f8: 28 45 40 b8 	ldr	w8, [x9], #4
1000093fc: a9 2a 00 a9 	stp	x9, x10, [x21]
100009400: 6a 09 80 52 	mov	w10, #75
100009404: 4a 1d 00 12 	and	w10, w10, #0xff
100009408: 5f 2d 01 71 	cmp	w10, #75
10000940c: 01 20 00 54 	b.ne	0x10000980c <__ZN5gimli4read4unit15parse_attribute17h0686769df978d94eE+0x1048>
100009410: 09 3d 08 53 	ubfx	w9, w8, #8, #8
100009414: 0d 7d 50 d3 	ubfx	x13, x8, #16, #16
100009418: 0a 7d 60 92 	and	x10, x8, #0xffffffff00000000
10000941c: 6b 03 80 52 	mov	w11, #27
100009420: 28 01 00 14 	b	0x1000098c0 <__ZN5gimli4read4unit15parse_attribute17h0686769df978d94eE+0x10fc>
100009424: ff 13 00 79 	strh	wzr, [sp, #8]
100009428: ff a3 00 b8 	stur	wzr, [sp, #10]
10000942c: e8 93 40 78 	ldurh	w8, [sp, #9]
100009430: 6a 22 00 39 	strb	w10, [x19, #8]
100009434: 7f 26 00 39 	strb	wzr, [x19, #9]
100009438: 68 16 00 79 	strh	w8, [x19, #10]
10000943c: 7f 0e 00 b9 	str	wzr, [x19, #12]
100009440: ff 00 00 14 	b	0x10000983c <__ZN5gimli4read4unit15parse_attribute17h0686769df978d94eE+0x1078>
100009444: e9 0f 40 b9 	ldr	w9, [sp, #12]
100009448: e9 33 02 b8 	stur	w9, [sp, #35]
10000944c: e9 93 40 b8 	ldur	w9, [sp, #9]
100009450: e9 23 00 b9 	str	w9, [sp, #32]
100009454: e9 0b 40 f9 	ldr	x9, [sp, #16]
100009458: ea 23 40 b9 	ldr	w10, [sp, #32]
10000945c: 6a 92 00 b8 	stur	w10, [x19, #9]
100009460: ea 33 42 b8 	ldur	w10, [sp, #35]
100009464: 6a 0e 00 b9 	str	w10, [x19, #12]
100009468: 68 22 00 39 	strb	w8, [x19, #8]
10000946c: f4 00 00 14 	b	0x10000983c <__ZN5gimli4read4unit15parse_attribute17h0686769df978d94eE+0x1078>
100009470: ff 3b 00 39 	strb	wzr, [sp, #14]
100009474: ff 1b 00 79 	strh	wzr, [sp, #12]
100009478: ff 0b 00 b9 	str	wzr, [sp, #8]
10000947c: e9 f3 00 f8 	stur	x9, [sp, #15]
100009480: e9 07 40 f9 	ldr	x9, [sp, #8]
100009484: ea 13 40 b9 	ldr	w10, [sp, #16]
100009488: ea 2b 00 b9 	str	w10, [sp, #40]
10000948c: ea 33 41 b8 	ldur	w10, [sp, #19]
100009490: ea b3 02 b8 	stur	w10, [sp, #43]
100009494: e9 13 00 f9 	str	x9, [sp, #32]
100009498: ea 73 42 f8 	ldur	x10, [sp, #39]
10000949c: e9 1b 00 b9 	str	w9, [sp, #24]
1000094a0: e9 33 42 b8 	ldur	w9, [sp, #35]
1000094a4: e9 b3 01 b8 	stur	w9, [sp, #27]
1000094a8: e9 1b 40 b9 	ldr	w9, [sp, #24]
1000094ac: 69 92 00 b8 	stur	w9, [x19, #9]
1000094b0: e9 b3 41 b8 	ldur	w9, [sp, #27]
1000094b4: 69 0e 00 b9 	str	w9, [x19, #12]
1000094b8: 68 22 00 39 	strb	w8, [x19, #8]
1000094bc: 08 00 00 14 	b	0x1000094dc <__ZN5gimli4read4unit15parse_attribute17h0686769df978d94eE+0xd18>
1000094c0: 08 00 80 52 	mov	w8, #0
1000094c4: 69 02 80 52 	mov	w9, #19
1000094c8: ea 03 0e aa 	mov	x10, x14
1000094cc: 69 22 00 39 	strb	w9, [x19, #8]
1000094d0: 7f 26 00 39 	strb	wzr, [x19, #9]
1000094d4: 68 16 00 79 	strh	w8, [x19, #10]
1000094d8: 7f 0e 00 b9 	str	wzr, [x19, #12]
1000094dc: 6a 0a 00 f9 	str	x10, [x19, #16]
1000094e0: c8 05 80 52 	mov	w8, #46
1000094e4: 68 02 00 f9 	str	x8, [x19]
1000094e8: fd 00 00 14 	b	0x1000098dc <__ZN5gimli4read4unit15parse_attribute17h0686769df978d94eE+0x1118>
1000094ec: 08 00 80 52 	mov	w8, #0
1000094f0: 6a 02 80 52 	mov	w10, #19
1000094f4: 4b 1d 00 12 	and	w11, w10, #0xff
1000094f8: 7f 2d 01 71 	cmp	w11, #75
1000094fc: 41 06 00 54 	b.ne	0x1000095c4 <__ZN5gimli4read4unit15parse_attribute17h0686769df978d94eE+0xe00>
100009500: 09 00 80 52 	mov	w9, #0
100009504: 0d 00 80 52 	mov	w13, #0
100009508: 0a 00 80 d2 	mov	x10, #0
10000950c: 4b 00 80 52 	mov	w11, #2
100009510: ec 00 00 14 	b	0x1000098c0 <__ZN5gimli4read4unit15parse_attribute17h0686769df978d94eE+0x10fc>
100009514: 0b 00 80 52 	mov	w11, #0
100009518: 69 02 80 52 	mov	w9, #19
10000951c: 2a 1d 00 12 	and	w10, w9, #0xff
100009520: 5f 2d 01 71 	cmp	w10, #75
100009524: 01 01 00 54 	b.ne	0x100009544 <__ZN5gimli4read4unit15parse_attribute17h0686769df978d94eE+0xd80>
100009528: 09 00 80 52 	mov	w9, #0
10000952c: 0d 00 80 52 	mov	w13, #0
100009530: 0a 00 80 d2 	mov	x10, #0
100009534: 7f 01 00 71 	cmp	w11, #0
100009538: e8 07 9f 1a 	cset	w8, ne
10000953c: 2b 01 80 52 	mov	w11, #9
100009540: e0 00 00 14 	b	0x1000098c0 <__ZN5gimli4read4unit15parse_attribute17h0686769df978d94eE+0x10fc>
100009544: 69 22 00 39 	strb	w9, [x19, #8]
100009548: 44 fe ff 17 	b	0x100008e58 <__ZN5gimli4read4unit15parse_attribute17h0686769df978d94eE+0x694>
10000954c: 08 00 80 52 	mov	w8, #0
100009550: 6a 02 80 52 	mov	w10, #19
100009554: 4b 1d 00 12 	and	w11, w10, #0xff
100009558: 7f 2d 01 71 	cmp	w11, #75
10000955c: 41 03 00 54 	b.ne	0x1000095c4 <__ZN5gimli4read4unit15parse_attribute17h0686769df978d94eE+0xe00>
100009560: 09 00 80 52 	mov	w9, #0
100009564: 0d 00 80 52 	mov	w13, #0
100009568: 0a 00 80 d2 	mov	x10, #0
10000956c: ab 01 80 52 	mov	w11, #13
100009570: d4 00 00 14 	b	0x1000098c0 <__ZN5gimli4read4unit15parse_attribute17h0686769df978d94eE+0x10fc>
100009574: 08 00 80 52 	mov	w8, #0
100009578: 6a 02 80 52 	mov	w10, #19
10000957c: 4b 1d 00 12 	and	w11, w10, #0xff
100009580: 7f 2d 01 71 	cmp	w11, #75
100009584: 01 02 00 54 	b.ne	0x1000095c4 <__ZN5gimli4read4unit15parse_attribute17h0686769df978d94eE+0xe00>
100009588: 09 00 80 52 	mov	w9, #0
10000958c: 0d 00 80 52 	mov	w13, #0
100009590: 0a 00 80 d2 	mov	x10, #0
100009594: ab 03 80 52 	mov	w11, #29
100009598: ca 00 00 14 	b	0x1000098c0 <__ZN5gimli4read4unit15parse_attribute17h0686769df978d94eE+0x10fc>
10000959c: 08 00 80 52 	mov	w8, #0
1000095a0: 6a 02 80 52 	mov	w10, #19
1000095a4: 4b 1d 00 12 	and	w11, w10, #0xff
1000095a8: 7f 2d 01 71 	cmp	w11, #75
1000095ac: c1 00 00 54 	b.ne	0x1000095c4 <__ZN5gimli4read4unit15parse_attribute17h0686769df978d94eE+0xe00>
1000095b0: 09 00 80 52 	mov	w9, #0
1000095b4: 0d 00 80 52 	mov	w13, #0
1000095b8: 0a 00 80 d2 	mov	x10, #0
1000095bc: 8b 01 80 52 	mov	w11, #12
1000095c0: c0 00 00 14 	b	0x1000098c0 <__ZN5gimli4read4unit15parse_attribute17h0686769df978d94eE+0x10fc>
1000095c4: 6a 22 00 39 	strb	w10, [x19, #8]
1000095c8: 7f 26 00 39 	strb	wzr, [x19, #9]
1000095cc: 7f 1e 00 79 	strh	wzr, [x19, #14]
1000095d0: 7f a2 00 b8 	stur	wzr, [x19, #10]
1000095d4: 9a 00 00 14 	b	0x10000983c <__ZN5gimli4read4unit15parse_attribute17h0686769df978d94eE+0x1078>
1000095d8: 0c 45 40 b8 	ldr	w12, [x8], #4
1000095dc: a8 26 00 a9 	stp	x8, x9, [x21]
1000095e0: 69 09 80 52 	mov	w9, #75
1000095e4: 2a 1d 00 12 	and	w10, w9, #0xff
1000095e8: 5f 2d 01 71 	cmp	w10, #75
1000095ec: 61 00 00 54 	b.ne	0x1000095f8 <__ZN5gimli4read4unit15parse_attribute17h0686769df978d94eE+0xe34>
1000095f0: 8b 00 80 52 	mov	w11, #4
1000095f4: a4 00 00 14 	b	0x100009884 <__ZN5gimli4read4unit15parse_attribute17h0686769df978d94eE+0x10c0>
1000095f8: ff 0b 00 b9 	str	wzr, [sp, #8]
1000095fc: ff 3b 00 39 	strb	wzr, [sp, #14]
100009600: ff 1b 00 79 	strh	wzr, [sp, #12]
100009604: ea b3 40 b8 	ldur	w10, [sp, #11]
100009608: ff 43 00 79 	strh	wzr, [sp, #32]
10000960c: eb 5f 10 53 	ubfx	w11, wzr, #16, #8
100009610: eb 8b 00 39 	strb	w11, [sp, #34]
100009614: 7f 92 00 78 	sturh	wzr, [x19, #9]
100009618: 6b 2e 00 39 	strb	w11, [x19, #11]
10000961c: 69 22 00 39 	strb	w9, [x19, #8]
100009620: 6a 0e 00 b9 	str	w10, [x19, #12]
100009624: 10 fe ff 17 	b	0x100008e64 <__ZN5gimli4read4unit15parse_attribute17h0686769df978d94eE+0x6a0>
100009628: 0a 01 0c 8b 	add	x10, x8, x12
10000962c: 4a 05 00 91 	add	x10, x10, #1
100009630: eb 03 2c aa 	mvn	x11, x12
100009634: 29 01 0b 8b 	add	x9, x9, x11
100009638: aa 26 00 a9 	stp	x10, x9, [x21]
10000963c: 09 3d 08 53 	ubfx	w9, w8, #8, #8
100009640: 0d 7d 50 d3 	ubfx	x13, x8, #16, #16
100009644: 0a 7d 60 92 	and	x10, x8, #0xffffffff00000000
100009648: eb 03 80 52 	mov	w11, #31
10000964c: 9d 00 00 14 	b	0x1000098c0 <__ZN5gimli4read4unit15parse_attribute17h0686769df978d94eE+0x10fc>
100009650: 4a 01 0c eb 	subs	x10, x10, x12
100009654: c2 a3 ff 54 	b.hs	0x100008acc <__ZN5gimli4read4unit15parse_attribute17h0686769df978d94eE+0x308>
100009658: 09 00 00 14 	b	0x10000967c <__ZN5gimli4read4unit15parse_attribute17h0686769df978d94eE+0xeb8>
10000965c: 89 3d 08 53 	ubfx	w9, w12, #8, #8
100009660: 8d 7d 50 d3 	ubfx	x13, x12, #16, #16
100009664: 8a 7d 60 92 	and	x10, x12, #0xffffffff00000000
100009668: eb 00 80 52 	mov	w11, #7
10000966c: e8 03 0c aa 	mov	x8, x12
100009670: 94 00 00 14 	b	0x1000098c0 <__ZN5gimli4read4unit15parse_attribute17h0686769df978d94eE+0x10fc>
100009674: 4a 01 0c eb 	subs	x10, x10, x12
100009678: a2 0e 00 54 	b.hs	0x10000984c <__ZN5gimli4read4unit15parse_attribute17h0686769df978d94eE+0x1088>
10000967c: 69 02 80 52 	mov	w9, #19
100009680: 69 a2 00 a9 	stp	x9, x8, [x19, #8]
100009684: c8 05 80 52 	mov	w8, #46
100009688: 68 02 00 f9 	str	x8, [x19]
10000968c: 94 00 00 14 	b	0x1000098dc <__ZN5gimli4read4unit15parse_attribute17h0686769df978d94eE+0x1118>
100009690: 89 3d 08 53 	ubfx	w9, w12, #8, #8
100009694: 8d 7d 50 d3 	ubfx	x13, x12, #16, #16
100009698: 8a 7d 60 92 	and	x10, x12, #0xffffffff00000000
10000969c: 6b 02 80 52 	mov	w11, #19
1000096a0: e8 03 0c aa 	mov	x8, x12
1000096a4: 87 00 00 14 	b	0x1000098c0 <__ZN5gimli4read4unit15parse_attribute17h0686769df978d94eE+0x10fc>
1000096a8: 89 fd 48 d3 	lsr	x9, x12, #8
1000096ac: 8d fd 50 d3 	lsr	x13, x12, #16
1000096b0: 8a 7d 60 92 	and	x10, x12, #0xffffffff00000000
1000096b4: 0b 03 80 52 	mov	w11, #24
1000096b8: e8 03 0c aa 	mov	x8, x12
1000096bc: 81 00 00 14 	b	0x1000098c0 <__ZN5gimli4read4unit15parse_attribute17h0686769df978d94eE+0x10fc>
1000096c0: 28 85 40 f8 	ldr	x8, [x9], #8
1000096c4: a9 2a 00 a9 	stp	x9, x10, [x21]
1000096c8: 6a 09 80 52 	mov	w10, #75
1000096cc: 4a 1d 00 12 	and	w10, w10, #0xff
1000096d0: 5f 2d 01 71 	cmp	w10, #75
1000096d4: c1 02 00 54 	b.ne	0x10000972c <__ZN5gimli4read4unit15parse_attribute17h0686769df978d94eE+0xf68>
1000096d8: 27 00 00 14 	b	0x100009774 <__ZN5gimli4read4unit15parse_attribute17h0686769df978d94eE+0xfb0>
1000096dc: 28 85 40 f8 	ldr	x8, [x9], #8
1000096e0: a9 2a 00 a9 	stp	x9, x10, [x21]
1000096e4: 6a 09 80 52 	mov	w10, #75
1000096e8: 4a 1d 00 12 	and	w10, w10, #0xff
1000096ec: 5f 2d 01 71 	cmp	w10, #75
1000096f0: e1 01 00 54 	b.ne	0x10000972c <__ZN5gimli4read4unit15parse_attribute17h0686769df978d94eE+0xf68>
1000096f4: 2b 00 00 14 	b	0x1000097a0 <__ZN5gimli4read4unit15parse_attribute17h0686769df978d94eE+0xfdc>
1000096f8: 28 85 40 f8 	ldr	x8, [x9], #8
1000096fc: a9 2a 00 a9 	stp	x9, x10, [x21]
100009700: 6a 09 80 52 	mov	w10, #75
100009704: 4a 1d 00 12 	and	w10, w10, #0xff
100009708: 5f 2d 01 71 	cmp	w10, #75
10000970c: 01 01 00 54 	b.ne	0x10000972c <__ZN5gimli4read4unit15parse_attribute17h0686769df978d94eE+0xf68>
100009710: 2f 00 00 14 	b	0x1000097cc <__ZN5gimli4read4unit15parse_attribute17h0686769df978d94eE+0x1008>
100009714: 28 85 40 f8 	ldr	x8, [x9], #8
100009718: a9 2a 00 a9 	stp	x9, x10, [x21]
10000971c: 6a 09 80 52 	mov	w10, #75
100009720: 4a 1d 00 12 	and	w10, w10, #0xff
100009724: 5f 2d 01 71 	cmp	w10, #75
100009728: 80 06 00 54 	b.eq	0x1000097f8 <__ZN5gimli4read4unit15parse_attribute17h0686769df978d94eE+0x1034>
10000972c: ff 3b 00 39 	strb	wzr, [sp, #14]
100009730: ff 1b 00 79 	strh	wzr, [sp, #12]
100009734: ff 0b 00 b9 	str	wzr, [sp, #8]
100009738: e9 f3 00 f8 	stur	x9, [sp, #15]
10000973c: e8 07 40 f9 	ldr	x8, [sp, #8]
100009740: e9 13 40 b9 	ldr	w9, [sp, #16]
100009744: e9 2b 00 b9 	str	w9, [sp, #40]
100009748: e9 33 41 b8 	ldur	w9, [sp, #19]
10000974c: e9 b3 02 b8 	stur	w9, [sp, #43]
100009750: e8 13 00 f9 	str	x8, [sp, #32]
100009754: e9 73 42 f8 	ldur	x9, [sp, #39]
100009758: 30 00 00 14 	b	0x100009818 <__ZN5gimli4read4unit15parse_attribute17h0686769df978d94eE+0x1054>
10000975c: 28 45 40 b8 	ldr	w8, [x9], #4
100009760: a9 2a 00 a9 	stp	x9, x10, [x21]
100009764: 6a 09 80 52 	mov	w10, #75
100009768: 4a 1d 00 12 	and	w10, w10, #0xff
10000976c: 5f 2d 01 71 	cmp	w10, #75
100009770: e1 04 00 54 	b.ne	0x10000980c <__ZN5gimli4read4unit15parse_attribute17h0686769df978d94eE+0x1048>
100009774: 09 3d 08 53 	ubfx	w9, w8, #8, #8
100009778: 0d 7d 50 d3 	ubfx	x13, x8, #16, #16
10000977c: 0a 7d 60 92 	and	x10, x8, #0xffffffff00000000
100009780: 4b 03 80 52 	mov	w11, #26
100009784: 4f 00 00 14 	b	0x1000098c0 <__ZN5gimli4read4unit15parse_attribute17h0686769df978d94eE+0x10fc>
100009788: 28 45 40 b8 	ldr	w8, [x9], #4
10000978c: a9 2a 00 a9 	stp	x9, x10, [x21]
100009790: 6a 09 80 52 	mov	w10, #75
100009794: 4a 1d 00 12 	and	w10, w10, #0xff
100009798: 5f 2d 01 71 	cmp	w10, #75
10000979c: 81 03 00 54 	b.ne	0x10000980c <__ZN5gimli4read4unit15parse_attribute17h0686769df978d94eE+0x1048>
1000097a0: 09 3d 08 53 	ubfx	w9, w8, #8, #8
1000097a4: 0d 7d 50 d3 	ubfx	x13, x8, #16, #16
1000097a8: 0a 7d 60 92 	and	x10, x8, #0xffffffff00000000
1000097ac: 4b 01 80 52 	mov	w11, #10
1000097b0: 44 00 00 14 	b	0x1000098c0 <__ZN5gimli4read4unit15parse_attribute17h0686769df978d94eE+0x10fc>
1000097b4: 28 45 40 b8 	ldr	w8, [x9], #4
1000097b8: a9 2a 00 a9 	stp	x9, x10, [x21]
1000097bc: 6a 09 80 52 	mov	w10, #75
1000097c0: 4a 1d 00 12 	and	w10, w10, #0xff
1000097c4: 5f 2d 01 71 	cmp	w10, #75
1000097c8: 21 02 00 54 	b.ne	0x10000980c <__ZN5gimli4read4unit15parse_attribute17h0686769df978d94eE+0x1048>
1000097cc: 09 3d 08 53 	ubfx	w9, w8, #8, #8
1000097d0: 0d 7d 50 d3 	ubfx	x13, x8, #16, #16
1000097d4: 0a 7d 60 92 	and	x10, x8, #0xffffffff00000000
1000097d8: cb 03 80 52 	mov	w11, #30
1000097dc: 39 00 00 14 	b	0x1000098c0 <__ZN5gimli4read4unit15parse_attribute17h0686769df978d94eE+0x10fc>
1000097e0: 28 45 40 b8 	ldr	w8, [x9], #4
1000097e4: a9 2a 00 a9 	stp	x9, x10, [x21]
1000097e8: 6a 09 80 52 	mov	w10, #75
1000097ec: 4a 1d 00 12 	and	w10, w10, #0xff
1000097f0: 5f 2d 01 71 	cmp	w10, #75
1000097f4: c1 00 00 54 	b.ne	0x10000980c <__ZN5gimli4read4unit15parse_attribute17h0686769df978d94eE+0x1048>
1000097f8: 09 3d 08 53 	ubfx	w9, w8, #8, #8
1000097fc: 0d 7d 50 d3 	ubfx	x13, x8, #16, #16
100009800: 0a 7d 60 92 	and	x10, x8, #0xffffffff00000000
100009804: eb 01 80 52 	mov	w11, #15
100009808: 2e 00 00 14 	b	0x1000098c0 <__ZN5gimli4read4unit15parse_attribute17h0686769df978d94eE+0x10fc>
10000980c: ff 23 00 b9 	str	wzr, [sp, #32]
100009810: ff 9b 00 39 	strb	wzr, [sp, #38]
100009814: ff 4b 00 79 	strh	wzr, [sp, #36]
100009818: e8 23 40 b9 	ldr	w8, [sp, #32]
10000981c: e8 1b 00 b9 	str	w8, [sp, #24]
100009820: e8 33 42 b8 	ldur	w8, [sp, #35]
100009824: e8 b3 01 b8 	stur	w8, [sp, #27]
100009828: e8 1b 40 b9 	ldr	w8, [sp, #24]
10000982c: 68 92 00 b8 	stur	w8, [x19, #9]
100009830: e8 b3 41 b8 	ldur	w8, [sp, #27]
100009834: 68 0e 00 b9 	str	w8, [x19, #12]
100009838: 6a 22 00 39 	strb	w10, [x19, #8]
10000983c: 69 0a 00 f9 	str	x9, [x19, #16]
100009840: c8 05 80 52 	mov	w8, #46
100009844: 68 02 00 f9 	str	x8, [x19]
100009848: 25 00 00 14 	b	0x1000098dc <__ZN5gimli4read4unit15parse_attribute17h0686769df978d94eE+0x1118>
10000984c: 0b 01 0c 8b 	add	x11, x8, x12
100009850: 09 3d 08 53 	ubfx	w9, w8, #8, #8
100009854: 0d 7d 50 d3 	ubfx	x13, x8, #16, #16
100009858: ab 2a 00 a9 	stp	x11, x10, [x21]
10000985c: 0a 7d 60 92 	and	x10, x8, #0xffffffff00000000
100009860: 0b 01 80 52 	mov	w11, #8
100009864: 17 00 00 14 	b	0x1000098c0 <__ZN5gimli4read4unit15parse_attribute17h0686769df978d94eE+0x10fc>
100009868: 0c 45 40 b8 	ldr	w12, [x8], #4
10000986c: a8 26 00 a9 	stp	x8, x9, [x21]
100009870: 69 09 80 52 	mov	w9, #75
100009874: 2a 1d 00 12 	and	w10, w9, #0xff
100009878: 5f 2d 01 71 	cmp	w10, #75
10000987c: a1 03 00 54 	b.ne	0x1000098f0 <__ZN5gimli4read4unit15parse_attribute17h0686769df978d94eE+0x112c>
100009880: 4b 01 80 52 	mov	w11, #10
100009884: e8 03 0c aa 	mov	x8, x12
100009888: 0a 00 80 d2 	mov	x10, #0
10000988c: 89 3d 08 53 	ubfx	w9, w12, #8, #8
100009890: 8d 7d 10 53 	lsr	w13, w12, #16
100009894: 0b 00 00 14 	b	0x1000098c0 <__ZN5gimli4read4unit15parse_attribute17h0686769df978d94eE+0x10fc>
100009898: 48 85 40 f8 	ldr	x8, [x10], #8
10000989c: aa 26 00 a9 	stp	x10, x9, [x21]
1000098a0: 69 09 80 52 	mov	w9, #75
1000098a4: 2b 1d 00 12 	and	w11, w9, #0xff
1000098a8: 7f 2d 01 71 	cmp	w11, #75
1000098ac: c1 02 00 54 	b.ne	0x100009904 <__ZN5gimli4read4unit15parse_attribute17h0686769df978d94eE+0x1140>
1000098b0: 4b 01 80 52 	mov	w11, #10
1000098b4: 0a 7d 60 92 	and	x10, x8, #0xffffffff00000000
1000098b8: 09 3d 08 53 	ubfx	w9, w8, #8, #8
1000098bc: 0d 7d 50 d3 	ubfx	x13, x8, #16, #16
1000098c0: 8e 12 40 79 	ldrh	w14, [x20, #8]
1000098c4: 28 1d 18 33 	bfi	w8, w9, #8, #8
1000098c8: a8 3d 10 33 	bfi	w8, w13, #16, #16
1000098cc: 48 01 08 aa 	orr	x8, x10, x8
1000098d0: 6b 22 00 a9 	stp	x11, x8, [x19]
1000098d4: 6c 0a 00 f9 	str	x12, [x19, #16]
1000098d8: 6e 32 00 79 	strh	w14, [x19, #24]
1000098dc: fd 7b 45 a9 	ldp	x29, x30, [sp, #80]
1000098e0: f4 4f 44 a9 	ldp	x20, x19, [sp, #64]
1000098e4: f6 57 43 a9 	ldp	x22, x21, [sp, #48]
1000098e8: ff 83 01 91 	add	sp, sp, #96
1000098ec: c0 03 5f d6 	ret
1000098f0: 69 22 00 39 	strb	w9, [x19, #8]
1000098f4: 7f 92 00 b8 	stur	wzr, [x19, #9]
1000098f8: 7f 3e 00 39 	strb	wzr, [x19, #15]
1000098fc: 7f d2 00 78 	sturh	wzr, [x19, #13]
100009900: 59 fd ff 17 	b	0x100008e64 <__ZN5gimli4read4unit15parse_attribute17h0686769df978d94eE+0x6a0>
100009904: ff 3b 00 39 	strb	wzr, [sp, #14]
100009908: ff 1b 00 79 	strh	wzr, [sp, #12]
10000990c: ff 0b 00 b9 	str	wzr, [sp, #8]
100009910: ea f3 00 f8 	stur	x10, [sp, #15]
100009914: e8 07 40 f9 	ldr	x8, [sp, #8]
100009918: ea 13 40 b9 	ldr	w10, [sp, #16]
10000991c: ea 2b 00 b9 	str	w10, [sp, #40]
100009920: ea 33 41 b8 	ldur	w10, [sp, #19]
100009924: ea b3 02 b8 	stur	w10, [sp, #43]
100009928: e8 13 00 f9 	str	x8, [sp, #32]
10000992c: e8 1b 00 b9 	str	w8, [sp, #24]
100009930: e8 33 42 b8 	ldur	w8, [sp, #35]
100009934: e8 b3 01 b8 	stur	w8, [sp, #27]
100009938: e8 73 42 f8 	ldur	x8, [sp, #39]
10000993c: ea 1b 40 b9 	ldr	w10, [sp, #24]
100009940: 6a 92 00 b8 	stur	w10, [x19, #9]
100009944: ea b3 41 b8 	ldur	w10, [sp, #27]
100009948: 6a 0e 00 b9 	str	w10, [x19, #12]
10000994c: 69 22 00 39 	strb	w9, [x19, #8]
100009950: 45 fd ff 17 	b	0x100008e64 <__ZN5gimli4read4unit15parse_attribute17h0686769df978d94eE+0x6a0>
100009954: c9 00 80 52 	mov	w9, #6
100009958: dd fe ff 17 	b	0x1000094cc <__ZN5gimli4read4unit15parse_attribute17h0686769df978d94eE+0xd08>

000000010000995c <__ZN5gimli4read4unit15skip_attributes17h20cc130c1f825841E>:
10000995c: ff c3 00 d1 	sub	sp, sp, #48
100009960: f6 57 01 a9 	stp	x22, x21, [sp, #16]
100009964: f4 4f 02 a9 	stp	x20, x19, [sp, #32]
100009968: e4 17 00 b4 	cbz	x4, 0x100009c64 <__ZN5gimli4read4unit15skip_attributes17h20cc130c1f825841E+0x308>
10000996c: 05 00 80 d2 	mov	x5, #0
100009970: 68 10 04 8b 	add	x8, x3, x4, lsl #4
100009974: 49 7c 08 53 	lsr	w9, w2, #8
100009978: 4a 3c 10 12 	and	w10, w2, #0xffff0000
10000997c: 5f 81 40 71 	cmp	w10, #32, lsl #12       ; =131072
100009980: 4a 00 89 1a 	csel	w10, w2, w9, eq
100009984: 24 18 40 a9 	ldp	x4, x6, [x1]
100009988: ec e3 83 12 	mov	w12, #-7968
10000998c: 0d e0 83 12 	mov	w13, #-7937
100009990: ae cb 14 50 	adr	x14, #170358
100009994: 1f 20 03 d5 	nop
100009998: 10 ca 14 50 	adr	x16, #170306
10000999c: 1f 20 03 d5 	nop
1000099a0: 74 14 40 79 	ldrh	w20, [x3, #10]
1000099a4: 63 40 00 91 	add	x3, x3, #16
1000099a8: f5 03 0b aa 	mov	x21, x11
1000099ac: eb 03 15 aa 	mov	x11, x21
1000099b0: 93 3e 00 12 	and	w19, w20, #0xffff
1000099b4: 67 06 00 51 	sub	w7, w19, #1
